; ModuleID = 'gemm.bc'
source_filename = "gemm.cpp"
target datalayout = "e-m:e-i64:64-f80:128-n8:16:32:64-S128"
target triple = "x86_64-pc-linux-gnu"

%struct.GEMM_STRUCT_REF = type { i32*, i32*, i32* }
%struct.INSTR = type { i32, i32, i32, %struct.GEMM_STRUCT_REF }
%struct.INSTR_VAL = type { i32, i32, i32, %struct.GEMM_STRUCT_VAL }
%struct.GEMM_STRUCT_VAL = type { i32, i32, i32 }

@res_index = dso_local global i32 0, align 4, !dbg !0
@result = dso_local global [9 x i32] zeroinitializer, align 16, !dbg !6
@inp_mem = dso_local global [3 x [3 x i32]] [[3 x i32] [i32 1, i32 2, i32 3], [3 x i32] [i32 1, i32 2, i32 3], [3 x i32] [i32 1, i32 2, i32 3]], align 16, !dbg !12
@wgt_mem = dso_local global [3 x [3 x i32]] [[3 x i32] [i32 4, i32 5, i32 6], [3 x i32] [i32 4, i32 5, i32 6], [3 x i32] [i32 4, i32 5, i32 6]], align 16, !dbg !17
@acc_mem = dso_local global [3 x [3 x i32]] zeroinitializer, align 16, !dbg !19
@wgt_mem_prime = dso_local global [3 x [3 x i32]] zeroinitializer, align 16, !dbg !21
@acc_mem_flat = dso_local global [9 x i32] zeroinitializer, align 16, !dbg !23
@acc_mem_gemm = dso_local global i32* null, align 8, !dbg !25
@.str = private unnamed_addr constant [8 x i8] c"op_type\00", align 1
@.str.1 = private unnamed_addr constant [7 x i8] c"opcode\00", align 1
@__const.main.gemm_instr = private unnamed_addr constant %struct.GEMM_STRUCT_REF { i32* getelementptr inbounds ([3 x [3 x i32]], [3 x [3 x i32]]* @inp_mem, i32 0, i32 0, i32 0), i32* getelementptr inbounds ([3 x [3 x i32]], [3 x [3 x i32]]* @wgt_mem, i32 0, i32 0, i32 0), i32* getelementptr inbounds ([3 x [3 x i32]], [3 x [3 x i32]]* @acc_mem, i32 0, i32 0, i32 0) }, align 8

; Function Attrs: noinline nounwind uwtable
define dso_local void @_Z9transposePA3_jS0_([3 x i32]*, [3 x i32]*) #0 !dbg !128 {
  %3 = alloca [3 x i32]*, align 8
  %4 = alloca [3 x i32]*, align 8
  %5 = alloca i32, align 4
  %6 = alloca i32, align 4
  store [3 x i32]* %0, [3 x i32]** %3, align 8
  call void @llvm.dbg.declare(metadata [3 x i32]** %3, metadata !134, metadata !DIExpression()), !dbg !135
  store [3 x i32]* %1, [3 x i32]** %4, align 8
  call void @llvm.dbg.declare(metadata [3 x i32]** %4, metadata !136, metadata !DIExpression()), !dbg !137
  call void @llvm.dbg.declare(metadata i32* %5, metadata !138, metadata !DIExpression()), !dbg !139
  call void @llvm.dbg.declare(metadata i32* %6, metadata !140, metadata !DIExpression()), !dbg !141
  store i32 0, i32* %5, align 4, !dbg !142
  br label %7, !dbg !144

7:                                                ; preds = %32, %2
  %8 = load i32, i32* %5, align 4, !dbg !145
  %9 = icmp slt i32 %8, 3, !dbg !147
  br i1 %9, label %10, label %35, !dbg !148

10:                                               ; preds = %7
  store i32 0, i32* %6, align 4, !dbg !149
  br label %11, !dbg !151

11:                                               ; preds = %14, %10
  %12 = load i32, i32* %6, align 4, !dbg !152
  %13 = icmp slt i32 %12, 3, !dbg !154
  br i1 %13, label %14, label %32, !dbg !155

14:                                               ; preds = %11
  %15 = load [3 x i32]*, [3 x i32]** %3, align 8, !dbg !156
  %16 = load i32, i32* %6, align 4, !dbg !157
  %17 = sext i32 %16 to i64, !dbg !156
  %18 = getelementptr inbounds [3 x i32], [3 x i32]* %15, i64 %17, !dbg !156
  %19 = load i32, i32* %5, align 4, !dbg !158
  %20 = sext i32 %19 to i64, !dbg !156
  %21 = getelementptr inbounds [3 x i32], [3 x i32]* %18, i64 0, i64 %20, !dbg !156
  %22 = load i32, i32* %21, align 4, !dbg !156
  %23 = load [3 x i32]*, [3 x i32]** %4, align 8, !dbg !159
  %24 = load i32, i32* %5, align 4, !dbg !160
  %25 = sext i32 %24 to i64, !dbg !159
  %26 = getelementptr inbounds [3 x i32], [3 x i32]* %23, i64 %25, !dbg !159
  %27 = load i32, i32* %6, align 4, !dbg !161
  %28 = sext i32 %27 to i64, !dbg !159
  %29 = getelementptr inbounds [3 x i32], [3 x i32]* %26, i64 0, i64 %28, !dbg !159
  store i32 %22, i32* %29, align 4, !dbg !162
  %30 = load i32, i32* %6, align 4, !dbg !163
  %31 = add nsw i32 %30, 1, !dbg !163
  store i32 %31, i32* %6, align 4, !dbg !163
  br label %11, !dbg !164, !llvm.loop !165

32:                                               ; preds = %11
  %33 = load i32, i32* %5, align 4, !dbg !167
  %34 = add nsw i32 %33, 1, !dbg !167
  store i32 %34, i32* %5, align 4, !dbg !167
  br label %7, !dbg !168, !llvm.loop !169

35:                                               ; preds = %7
  ret void, !dbg !171
}

; Function Attrs: nounwind readnone speculatable
declare void @llvm.dbg.declare(metadata, metadata, metadata) #1

; Function Attrs: noinline nounwind uwtable
define dso_local i32* @_Z14matrixMultiplyPjS_(i32*, i32*) #0 !dbg !172 {
  %3 = alloca i32*, align 8
  %4 = alloca i32*, align 8
  %5 = alloca i32, align 4
  %6 = alloca i32, align 4
  store i32* %0, i32** %3, align 8
  call void @llvm.dbg.declare(metadata i32** %3, metadata !175, metadata !DIExpression()), !dbg !176
  store i32* %1, i32** %4, align 8
  call void @llvm.dbg.declare(metadata i32** %4, metadata !177, metadata !DIExpression()), !dbg !178
  call void @llvm.dbg.declare(metadata i32* %5, metadata !179, metadata !DIExpression()), !dbg !180
  store i32 0, i32* %5, align 4, !dbg !180
  call void @llvm.dbg.declare(metadata i32* %6, metadata !181, metadata !DIExpression()), !dbg !183
  store i32 0, i32* %6, align 4, !dbg !183
  br label %7, !dbg !184

7:                                                ; preds = %10, %2
  %8 = load i32, i32* %6, align 4, !dbg !185
  %9 = icmp slt i32 %8, 3, !dbg !187
  br i1 %9, label %10, label %26, !dbg !188

10:                                               ; preds = %7
  %11 = load i32*, i32** %3, align 8, !dbg !189
  %12 = load i32, i32* %6, align 4, !dbg !191
  %13 = sext i32 %12 to i64, !dbg !189
  %14 = getelementptr inbounds i32, i32* %11, i64 %13, !dbg !189
  %15 = load i32, i32* %14, align 4, !dbg !189
  %16 = load i32*, i32** %4, align 8, !dbg !192
  %17 = load i32, i32* %6, align 4, !dbg !193
  %18 = sext i32 %17 to i64, !dbg !192
  %19 = getelementptr inbounds i32, i32* %16, i64 %18, !dbg !192
  %20 = load i32, i32* %19, align 4, !dbg !192
  %21 = mul i32 %15, %20, !dbg !194
  %22 = load i32, i32* %5, align 4, !dbg !195
  %23 = add i32 %22, %21, !dbg !195
  store i32 %23, i32* %5, align 4, !dbg !195
  %24 = load i32, i32* %6, align 4, !dbg !196
  %25 = add nsw i32 %24, 1, !dbg !196
  store i32 %25, i32* %6, align 4, !dbg !196
  br label %7, !dbg !197, !llvm.loop !198

26:                                               ; preds = %7
  %27 = load i32, i32* %5, align 4, !dbg !200
  %28 = load i32, i32* @res_index, align 4, !dbg !201
  %29 = sext i32 %28 to i64, !dbg !202
  %30 = getelementptr inbounds [9 x i32], [9 x i32]* @result, i64 0, i64 %29, !dbg !202
  store i32 %27, i32* %30, align 4, !dbg !203
  %31 = load i32, i32* @res_index, align 4, !dbg !204
  %32 = add nsw i32 %31, 1, !dbg !204
  store i32 %32, i32* @res_index, align 4, !dbg !204
  ret i32* getelementptr inbounds ([9 x i32], [9 x i32]* @result, i64 0, i64 0), !dbg !205
}

; Function Attrs: noinline nounwind uwtable
define dso_local i32* @_Z6mulMatPA3_jS0_S0_([3 x i32]*, [3 x i32]*, [3 x i32]*) #0 !dbg !206 {
  %4 = alloca [3 x i32]*, align 8
  %5 = alloca [3 x i32]*, align 8
  %6 = alloca [3 x i32]*, align 8
  %7 = alloca i32, align 4
  %8 = alloca i32, align 4
  %9 = alloca i32, align 4
  %10 = alloca i32, align 4
  %11 = alloca i32, align 4
  store [3 x i32]* %0, [3 x i32]** %4, align 8
  call void @llvm.dbg.declare(metadata [3 x i32]** %4, metadata !209, metadata !DIExpression()), !dbg !210
  store [3 x i32]* %1, [3 x i32]** %5, align 8
  call void @llvm.dbg.declare(metadata [3 x i32]** %5, metadata !211, metadata !DIExpression()), !dbg !212
  store [3 x i32]* %2, [3 x i32]** %6, align 8
  call void @llvm.dbg.declare(metadata [3 x i32]** %6, metadata !213, metadata !DIExpression()), !dbg !214
  call void @llvm.dbg.declare(metadata i32* %7, metadata !215, metadata !DIExpression()), !dbg !217
  store i32 0, i32* %7, align 4, !dbg !217
  br label %12, !dbg !218

12:                                               ; preds = %52, %3
  %13 = load i32, i32* %7, align 4, !dbg !219
  %14 = icmp slt i32 %13, 3, !dbg !221
  br i1 %14, label %15, label %55, !dbg !222

15:                                               ; preds = %12
  call void @llvm.dbg.declare(metadata i32* %8, metadata !223, metadata !DIExpression()), !dbg !226
  store i32 0, i32* %8, align 4, !dbg !226
  br label %16, !dbg !227

16:                                               ; preds = %49, %15
  %17 = load i32, i32* %8, align 4, !dbg !228
  %18 = icmp slt i32 %17, 3, !dbg !230
  br i1 %18, label %19, label %52, !dbg !231

19:                                               ; preds = %16
  call void @llvm.dbg.declare(metadata i32* %9, metadata !232, metadata !DIExpression()), !dbg !235
  store i32 0, i32* %9, align 4, !dbg !235
  br label %20, !dbg !236

20:                                               ; preds = %23, %19
  %21 = load i32, i32* %9, align 4, !dbg !237
  %22 = icmp slt i32 %21, 3, !dbg !239
  br i1 %22, label %23, label %49, !dbg !240

23:                                               ; preds = %20
  %24 = load i32, i32* %7, align 4, !dbg !241
  %25 = sext i32 %24 to i64, !dbg !243
  %26 = getelementptr inbounds [3 x [3 x i32]], [3 x [3 x i32]]* @inp_mem, i64 0, i64 %25, !dbg !243
  %27 = load i32, i32* %9, align 4, !dbg !244
  %28 = sext i32 %27 to i64, !dbg !243
  %29 = getelementptr inbounds [3 x i32], [3 x i32]* %26, i64 0, i64 %28, !dbg !243
  %30 = load i32, i32* %29, align 4, !dbg !243
  %31 = load i32, i32* %9, align 4, !dbg !245
  %32 = sext i32 %31 to i64, !dbg !246
  %33 = getelementptr inbounds [3 x [3 x i32]], [3 x [3 x i32]]* @wgt_mem, i64 0, i64 %32, !dbg !246
  %34 = load i32, i32* %8, align 4, !dbg !247
  %35 = sext i32 %34 to i64, !dbg !246
  %36 = getelementptr inbounds [3 x i32], [3 x i32]* %33, i64 0, i64 %35, !dbg !246
  %37 = load i32, i32* %36, align 4, !dbg !246
  %38 = mul i32 %30, %37, !dbg !248
  %39 = load i32, i32* %7, align 4, !dbg !249
  %40 = sext i32 %39 to i64, !dbg !250
  %41 = getelementptr inbounds [3 x [3 x i32]], [3 x [3 x i32]]* @acc_mem, i64 0, i64 %40, !dbg !250
  %42 = load i32, i32* %8, align 4, !dbg !251
  %43 = sext i32 %42 to i64, !dbg !250
  %44 = getelementptr inbounds [3 x i32], [3 x i32]* %41, i64 0, i64 %43, !dbg !250
  %45 = load i32, i32* %44, align 4, !dbg !252
  %46 = add i32 %45, %38, !dbg !252
  store i32 %46, i32* %44, align 4, !dbg !252
  %47 = load i32, i32* %9, align 4, !dbg !253
  %48 = add nsw i32 %47, 1, !dbg !253
  store i32 %48, i32* %9, align 4, !dbg !253
  br label %20, !dbg !254, !llvm.loop !255

49:                                               ; preds = %20
  %50 = load i32, i32* %8, align 4, !dbg !257
  %51 = add nsw i32 %50, 1, !dbg !257
  store i32 %51, i32* %8, align 4, !dbg !257
  br label %16, !dbg !258, !llvm.loop !259

52:                                               ; preds = %16
  %53 = load i32, i32* %7, align 4, !dbg !261
  %54 = add nsw i32 %53, 1, !dbg !261
  store i32 %54, i32* %7, align 4, !dbg !261
  br label %12, !dbg !262, !llvm.loop !263

55:                                               ; preds = %12
  call void @llvm.dbg.declare(metadata i32* %10, metadata !265, metadata !DIExpression()), !dbg !267
  store i32 0, i32* %10, align 4, !dbg !267
  br label %56, !dbg !268

56:                                               ; preds = %79, %55
  %57 = load i32, i32* %10, align 4, !dbg !269
  %58 = icmp slt i32 %57, 3, !dbg !271
  br i1 %58, label %59, label %81, !dbg !272

59:                                               ; preds = %56
  call void @llvm.dbg.declare(metadata i32* %11, metadata !273, metadata !DIExpression()), !dbg !276
  store i32 0, i32* %11, align 4, !dbg !276
  br label %60, !dbg !277

60:                                               ; preds = %64, %59
  %61 = load i32, i32* %11, align 4, !dbg !278
  %62 = icmp slt i32 %61, 3, !dbg !280
  %63 = load i32, i32* %10, align 4, !dbg !281
  br i1 %62, label %64, label %79, !dbg !282

64:                                               ; preds = %60
  %65 = sext i32 %63 to i64, !dbg !283
  %66 = getelementptr inbounds [3 x [3 x i32]], [3 x [3 x i32]]* @acc_mem, i64 0, i64 %65, !dbg !283
  %67 = load i32, i32* %11, align 4, !dbg !285
  %68 = sext i32 %67 to i64, !dbg !283
  %69 = getelementptr inbounds [3 x i32], [3 x i32]* %66, i64 0, i64 %68, !dbg !283
  %70 = load i32, i32* %69, align 4, !dbg !283
  %71 = load i32, i32* %10, align 4, !dbg !286
  %72 = mul nsw i32 %71, 3, !dbg !287
  %73 = load i32, i32* %11, align 4, !dbg !288
  %74 = add nsw i32 %72, %73, !dbg !289
  %75 = sext i32 %74 to i64, !dbg !290
  %76 = getelementptr inbounds [9 x i32], [9 x i32]* @acc_mem_flat, i64 0, i64 %75, !dbg !290
  store i32 %70, i32* %76, align 4, !dbg !291
  %77 = load i32, i32* %11, align 4, !dbg !292
  %78 = add nsw i32 %77, 1, !dbg !292
  store i32 %78, i32* %11, align 4, !dbg !292
  br label %60, !dbg !293, !llvm.loop !294

79:                                               ; preds = %60
  %80 = add nsw i32 %63, 1, !dbg !296
  store i32 %80, i32* %10, align 4, !dbg !296
  br label %56, !dbg !297, !llvm.loop !298

81:                                               ; preds = %56
  ret i32* getelementptr inbounds ([9 x i32], [9 x i32]* @acc_mem_flat, i64 0, i64 0), !dbg !300
}

; Function Attrs: noinline nounwind uwtable
define dso_local i32* @_Z13micro_decoder5INSTR(%struct.INSTR* byval(%struct.INSTR) align 8) #0 !dbg !301 {
  %2 = alloca [3 x i32], align 4
  %3 = alloca [3 x i32], align 4
  %4 = alloca i32, align 4
  %5 = alloca i32, align 4
  %6 = alloca i32*, align 8
  call void @llvm.dbg.declare(metadata %struct.INSTR* %0, metadata !316, metadata !DIExpression()), !dbg !317
  call void @llvm.dbg.declare(metadata [3 x i32]* %2, metadata !318, metadata !DIExpression()), !dbg !319
  call void @llvm.dbg.declare(metadata [3 x i32]* %3, metadata !320, metadata !DIExpression()), !dbg !321
  call void @llvm.dbg.declare(metadata i32* %4, metadata !322, metadata !DIExpression()), !dbg !324
  store i32 0, i32* %4, align 4, !dbg !324
  br label %7, !dbg !325

7:                                                ; preds = %10, %1
  %8 = load i32, i32* %4, align 4, !dbg !326
  %9 = icmp slt i32 %8, 3, !dbg !328
  br i1 %9, label %10, label %23, !dbg !329

10:                                               ; preds = %7
  %11 = getelementptr inbounds %struct.INSTR, %struct.INSTR* %0, i32 0, i32 3, !dbg !330
  %12 = getelementptr inbounds %struct.GEMM_STRUCT_REF, %struct.GEMM_STRUCT_REF* %11, i32 0, i32 0, !dbg !332
  %13 = load i32*, i32** %12, align 8, !dbg !332
  %14 = load i32, i32* %4, align 4, !dbg !333
  %15 = sext i32 %14 to i64, !dbg !334
  %16 = getelementptr inbounds i32, i32* %13, i64 %15, !dbg !334
  %17 = load i32, i32* %16, align 4, !dbg !335
  %18 = load i32, i32* %4, align 4, !dbg !336
  %19 = sext i32 %18 to i64, !dbg !337
  %20 = getelementptr inbounds [3 x i32], [3 x i32]* %2, i64 0, i64 %19, !dbg !337
  store i32 %17, i32* %20, align 4, !dbg !338
  %21 = load i32, i32* %4, align 4, !dbg !339
  %22 = add nsw i32 %21, 1, !dbg !339
  store i32 %22, i32* %4, align 4, !dbg !339
  br label %7, !dbg !340, !llvm.loop !341

23:                                               ; preds = %7
  call void @llvm.dbg.declare(metadata i32* %5, metadata !343, metadata !DIExpression()), !dbg !345
  store i32 0, i32* %5, align 4, !dbg !345
  br label %24, !dbg !346

24:                                               ; preds = %27, %23
  %25 = load i32, i32* %5, align 4, !dbg !347
  %26 = icmp slt i32 %25, 3, !dbg !349
  br i1 %26, label %27, label %40, !dbg !350

27:                                               ; preds = %24
  %28 = getelementptr inbounds %struct.INSTR, %struct.INSTR* %0, i32 0, i32 3, !dbg !351
  %29 = getelementptr inbounds %struct.GEMM_STRUCT_REF, %struct.GEMM_STRUCT_REF* %28, i32 0, i32 1, !dbg !353
  %30 = load i32*, i32** %29, align 8, !dbg !353
  %31 = load i32, i32* %5, align 4, !dbg !354
  %32 = sext i32 %31 to i64, !dbg !355
  %33 = getelementptr inbounds i32, i32* %30, i64 %32, !dbg !355
  %34 = load i32, i32* %33, align 4, !dbg !356
  %35 = load i32, i32* %5, align 4, !dbg !357
  %36 = sext i32 %35 to i64, !dbg !358
  %37 = getelementptr inbounds [3 x i32], [3 x i32]* %3, i64 0, i64 %36, !dbg !358
  store i32 %34, i32* %37, align 4, !dbg !359
  %38 = load i32, i32* %5, align 4, !dbg !360
  %39 = add nsw i32 %38, 1, !dbg !360
  store i32 %39, i32* %5, align 4, !dbg !360
  br label %24, !dbg !361, !llvm.loop !362

40:                                               ; preds = %24
  call void @llvm.dbg.declare(metadata i32** %6, metadata !364, metadata !DIExpression()), !dbg !365
  %41 = getelementptr inbounds [3 x i32], [3 x i32]* %2, i64 0, i64 0, !dbg !366
  %42 = getelementptr inbounds [3 x i32], [3 x i32]* %3, i64 0, i64 0, !dbg !367
  %43 = call i32* @_Z14matrixMultiplyPjS_(i32* %41, i32* %42), !dbg !368
  store i32* %43, i32** %6, align 8, !dbg !365
  %44 = load i32*, i32** %6, align 8, !dbg !369
  ret i32* %44, !dbg !370
}

; Function Attrs: noinline nounwind uwtable
define dso_local i32* @_Z17micro_decoder_val9INSTR_VAL(%struct.INSTR_VAL* byval(%struct.INSTR_VAL) align 8) #0 !dbg !371 {
  %2 = alloca [3 x i32], align 4
  %3 = alloca [3 x i32], align 4
  %4 = alloca i32, align 4
  %5 = alloca i32, align 4
  %6 = alloca i32*, align 8
  call void @llvm.dbg.declare(metadata %struct.INSTR_VAL* %0, metadata !385, metadata !DIExpression()), !dbg !386
  call void @llvm.dbg.declare(metadata [3 x i32]* %2, metadata !387, metadata !DIExpression()), !dbg !388
  call void @llvm.dbg.declare(metadata [3 x i32]* %3, metadata !389, metadata !DIExpression()), !dbg !390
  call void @llvm.dbg.declare(metadata i32* %4, metadata !391, metadata !DIExpression()), !dbg !393
  store i32 0, i32* %4, align 4, !dbg !393
  br label %7, !dbg !394

7:                                                ; preds = %10, %1
  %8 = load i32, i32* %4, align 4, !dbg !395
  %9 = icmp slt i32 %8, 3, !dbg !397
  br i1 %9, label %10, label %21, !dbg !398

10:                                               ; preds = %7
  %11 = getelementptr inbounds %struct.INSTR_VAL, %struct.INSTR_VAL* %0, i32 0, i32 3, !dbg !399
  %12 = getelementptr inbounds %struct.GEMM_STRUCT_VAL, %struct.GEMM_STRUCT_VAL* %11, i32 0, i32 0, !dbg !401
  %13 = load i32, i32* %12, align 4, !dbg !401
  %14 = load i32, i32* %4, align 4, !dbg !402
  %15 = add i32 %13, %14, !dbg !403
  %16 = load i32, i32* %4, align 4, !dbg !404
  %17 = sext i32 %16 to i64, !dbg !405
  %18 = getelementptr inbounds [3 x i32], [3 x i32]* %2, i64 0, i64 %17, !dbg !405
  store i32 %15, i32* %18, align 4, !dbg !406
  %19 = load i32, i32* %4, align 4, !dbg !407
  %20 = add nsw i32 %19, 1, !dbg !407
  store i32 %20, i32* %4, align 4, !dbg !407
  br label %7, !dbg !408, !llvm.loop !409

21:                                               ; preds = %7
  call void @llvm.dbg.declare(metadata i32* %5, metadata !411, metadata !DIExpression()), !dbg !413
  store i32 0, i32* %5, align 4, !dbg !413
  br label %22, !dbg !414

22:                                               ; preds = %25, %21
  %23 = load i32, i32* %5, align 4, !dbg !415
  %24 = icmp slt i32 %23, 3, !dbg !417
  br i1 %24, label %25, label %34, !dbg !418

25:                                               ; preds = %22
  %26 = getelementptr inbounds %struct.INSTR_VAL, %struct.INSTR_VAL* %0, i32 0, i32 3, !dbg !419
  %27 = getelementptr inbounds %struct.GEMM_STRUCT_VAL, %struct.GEMM_STRUCT_VAL* %26, i32 0, i32 1, !dbg !421
  %28 = load i32, i32* %27, align 4, !dbg !421
  %29 = load i32, i32* %5, align 4, !dbg !422
  %30 = sext i32 %29 to i64, !dbg !423
  %31 = getelementptr inbounds [3 x i32], [3 x i32]* %3, i64 0, i64 %30, !dbg !423
  store i32 %28, i32* %31, align 4, !dbg !424
  %32 = load i32, i32* %5, align 4, !dbg !425
  %33 = add nsw i32 %32, 1, !dbg !425
  store i32 %33, i32* %5, align 4, !dbg !425
  br label %22, !dbg !426, !llvm.loop !427

34:                                               ; preds = %22
  call void @llvm.dbg.declare(metadata i32** %6, metadata !429, metadata !DIExpression()), !dbg !430
  %35 = getelementptr inbounds [3 x i32], [3 x i32]* %2, i64 0, i64 0, !dbg !431
  %36 = getelementptr inbounds [3 x i32], [3 x i32]* %3, i64 0, i64 0, !dbg !432
  %37 = call i32* @_Z14matrixMultiplyPjS_(i32* %35, i32* %36), !dbg !433
  store i32* %37, i32** %6, align 8, !dbg !430
  %38 = load i32*, i32** %6, align 8, !dbg !434
  ret i32* %38, !dbg !435
}

; Function Attrs: noinline norecurse uwtable
define dso_local i32 @main(i32, i8**) #2 !dbg !436 {
  %3 = alloca i32, align 4
  %4 = alloca i32, align 4
  %5 = alloca i8**, align 8
  %6 = alloca [3 x i32], align 4
  %7 = alloca [3 x i32], align 4
  %8 = alloca [3 x i32], align 4
  %9 = alloca [3 x i32], align 4
  %10 = alloca [3 x i32], align 4
  %11 = alloca [3 x i32], align 4
  %12 = alloca [3 x i32], align 4
  %13 = alloca [3 x i32], align 4
  %14 = alloca [3 x i32], align 4
  %15 = alloca i32*, align 8
  %16 = alloca i32*, align 8
  %17 = alloca i32, align 4
  %18 = alloca i32, align 4
  %19 = alloca %struct.GEMM_STRUCT_REF, align 8
  %20 = alloca %struct.INSTR, align 8
  %21 = alloca [9 x %struct.GEMM_STRUCT_REF], align 16
  %22 = alloca [9 x %struct.GEMM_STRUCT_VAL], align 16
  %23 = alloca [9 x %struct.INSTR], align 16
  %24 = alloca [9 x %struct.INSTR_VAL], align 16
  %25 = alloca i32, align 4
  %26 = alloca %struct.INSTR, align 8
  store i32 0, i32* %3, align 4
  store i32 %0, i32* %4, align 4
  call void @llvm.dbg.declare(metadata i32* %4, metadata !440, metadata !DIExpression()), !dbg !441
  store i8** %1, i8*** %5, align 8
  call void @llvm.dbg.declare(metadata i8*** %5, metadata !442, metadata !DIExpression()), !dbg !443
  call void @llvm.dbg.declare(metadata [3 x i32]* %6, metadata !444, metadata !DIExpression()), !dbg !445
  call void @llvm.dbg.declare(metadata [3 x i32]* %7, metadata !446, metadata !DIExpression()), !dbg !447
  call void @llvm.dbg.declare(metadata [3 x i32]* %8, metadata !448, metadata !DIExpression()), !dbg !449
  call void @llvm.dbg.declare(metadata [3 x i32]* %9, metadata !450, metadata !DIExpression()), !dbg !451
  call void @llvm.dbg.declare(metadata [3 x i32]* %10, metadata !452, metadata !DIExpression()), !dbg !453
  call void @llvm.dbg.declare(metadata [3 x i32]* %11, metadata !454, metadata !DIExpression()), !dbg !455
  call void @llvm.dbg.declare(metadata [3 x i32]* %12, metadata !456, metadata !DIExpression()), !dbg !457
  call void @llvm.dbg.declare(metadata [3 x i32]* %13, metadata !458, metadata !DIExpression()), !dbg !459
  call void @llvm.dbg.declare(metadata [3 x i32]* %14, metadata !460, metadata !DIExpression()), !dbg !461
  call void @llvm.dbg.declare(metadata i32** %15, metadata !462, metadata !DIExpression()), !dbg !463
  call void @llvm.dbg.declare(metadata i32** %16, metadata !464, metadata !DIExpression()), !dbg !465
  call void @llvm.dbg.declare(metadata i32* %17, metadata !466, metadata !DIExpression()), !dbg !467
  call void @llvm.dbg.declare(metadata i32* %18, metadata !468, metadata !DIExpression()), !dbg !469
  call void @_Z9transposePA3_jS0_([3 x i32]* getelementptr inbounds ([3 x [3 x i32]], [3 x [3 x i32]]* @wgt_mem, i64 0, i64 0), [3 x i32]* getelementptr inbounds ([3 x [3 x i32]], [3 x [3 x i32]]* @wgt_mem_prime, i64 0, i64 0)), !dbg !470
  %27 = getelementptr inbounds [3 x i32], [3 x i32]* %6, i64 0, i64 0, !dbg !471
  %28 = bitcast i32* %27 to i8*, !dbg !471
  %29 = call i8* @memcpy(i8* %28, i8* bitcast ([3 x [3 x i32]]* @inp_mem to i8*), i64 12), !dbg !471
  %30 = getelementptr inbounds [3 x i32], [3 x i32]* %7, i64 0, i64 0, !dbg !472
  %31 = bitcast i32* %30 to i8*, !dbg !472
  %32 = call i8* @memcpy(i8* %31, i8* bitcast (i32* getelementptr inbounds ([3 x [3 x i32]], [3 x [3 x i32]]* @inp_mem, i64 0, i64 1, i64 0) to i8*), i64 12), !dbg !472
  %33 = getelementptr inbounds [3 x i32], [3 x i32]* %8, i64 0, i64 0, !dbg !473
  %34 = bitcast i32* %33 to i8*, !dbg !473
  %35 = call i8* @memcpy(i8* %34, i8* bitcast (i32* getelementptr inbounds ([3 x [3 x i32]], [3 x [3 x i32]]* @inp_mem, i64 0, i64 2, i64 0) to i8*), i64 12), !dbg !473
  %36 = getelementptr inbounds [3 x i32], [3 x i32]* %9, i64 0, i64 0, !dbg !474
  %37 = bitcast i32* %36 to i8*, !dbg !474
  %38 = call i8* @memcpy(i8* %37, i8* bitcast ([3 x [3 x i32]]* @wgt_mem_prime to i8*), i64 12), !dbg !474
  %39 = getelementptr inbounds [3 x i32], [3 x i32]* %10, i64 0, i64 0, !dbg !475
  %40 = bitcast i32* %39 to i8*, !dbg !475
  %41 = call i8* @memcpy(i8* %40, i8* bitcast (i32* getelementptr inbounds ([3 x [3 x i32]], [3 x [3 x i32]]* @wgt_mem_prime, i64 0, i64 1, i64 0) to i8*), i64 12), !dbg !475
  %42 = getelementptr inbounds [3 x i32], [3 x i32]* %11, i64 0, i64 0, !dbg !476
  %43 = bitcast i32* %42 to i8*, !dbg !476
  %44 = call i8* @memcpy(i8* %43, i8* bitcast (i32* getelementptr inbounds ([3 x [3 x i32]], [3 x [3 x i32]]* @wgt_mem_prime, i64 0, i64 2, i64 0) to i8*), i64 12), !dbg !476
  %45 = getelementptr inbounds [3 x i32], [3 x i32]* %12, i64 0, i64 0, !dbg !477
  %46 = bitcast i32* %45 to i8*, !dbg !477
  %47 = call i8* @memcpy(i8* %46, i8* bitcast ([3 x [3 x i32]]* @acc_mem to i8*), i64 12), !dbg !477
  %48 = getelementptr inbounds [3 x i32], [3 x i32]* %13, i64 0, i64 0, !dbg !478
  %49 = bitcast i32* %48 to i8*, !dbg !478
  %50 = call i8* @memcpy(i8* %49, i8* bitcast (i32* getelementptr inbounds ([3 x [3 x i32]], [3 x [3 x i32]]* @acc_mem, i64 0, i64 1, i64 0) to i8*), i64 12), !dbg !478
  %51 = getelementptr inbounds [3 x i32], [3 x i32]* %14, i64 0, i64 0, !dbg !479
  %52 = bitcast i32* %51 to i8*, !dbg !479
  %53 = call i8* @memcpy(i8* %52, i8* bitcast (i32* getelementptr inbounds ([3 x [3 x i32]], [3 x [3 x i32]]* @acc_mem, i64 0, i64 2, i64 0) to i8*), i64 12), !dbg !479
  %54 = bitcast i32* %18 to i8*, !dbg !480
  call void @klee_make_symbolic(i8* %54, i64 4, i8* getelementptr inbounds ([8 x i8], [8 x i8]* @.str, i64 0, i64 0)), !dbg !481
  %55 = bitcast i32* %17 to i8*, !dbg !482
  call void @klee_make_symbolic(i8* %55, i64 4, i8* getelementptr inbounds ([7 x i8], [7 x i8]* @.str.1, i64 0, i64 0)), !dbg !483
  call void @llvm.dbg.declare(metadata %struct.GEMM_STRUCT_REF* %19, metadata !484, metadata !DIExpression()), !dbg !485
  %56 = bitcast %struct.GEMM_STRUCT_REF* %19 to i8*, !dbg !485
  %57 = call i8* @memcpy(i8* %56, i8* bitcast (%struct.GEMM_STRUCT_REF* @__const.main.gemm_instr to i8*), i64 24), !dbg !485
  call void @llvm.dbg.declare(metadata %struct.INSTR* %20, metadata !486, metadata !DIExpression()), !dbg !487
  %58 = getelementptr inbounds %struct.INSTR, %struct.INSTR* %20, i32 0, i32 0, !dbg !488
  store i32 0, i32* %58, align 8, !dbg !488
  %59 = getelementptr inbounds %struct.INSTR, %struct.INSTR* %20, i32 0, i32 1, !dbg !488
  store i32 2, i32* %59, align 4, !dbg !488
  %60 = getelementptr inbounds %struct.INSTR, %struct.INSTR* %20, i32 0, i32 2, !dbg !488
  store i32 0, i32* %60, align 8, !dbg !488
  %61 = getelementptr inbounds %struct.INSTR, %struct.INSTR* %20, i32 0, i32 3, !dbg !488
  %62 = bitcast %struct.GEMM_STRUCT_REF* %61 to i8*, !dbg !489
  %63 = bitcast %struct.GEMM_STRUCT_REF* %19 to i8*, !dbg !489
  %64 = call i8* @memcpy(i8* %62, i8* %63, i64 24), !dbg !489
  call void @llvm.dbg.declare(metadata [9 x %struct.GEMM_STRUCT_REF]* %21, metadata !490, metadata !DIExpression()), !dbg !492
  %65 = getelementptr inbounds [9 x %struct.GEMM_STRUCT_REF], [9 x %struct.GEMM_STRUCT_REF]* %21, i64 0, i64 0, !dbg !493
  %66 = getelementptr inbounds %struct.GEMM_STRUCT_REF, %struct.GEMM_STRUCT_REF* %65, i32 0, i32 0, !dbg !494
  %67 = getelementptr inbounds [3 x i32], [3 x i32]* %6, i64 0, i64 0, !dbg !495
  store i32* %67, i32** %66, align 8, !dbg !494
  %68 = getelementptr inbounds %struct.GEMM_STRUCT_REF, %struct.GEMM_STRUCT_REF* %65, i32 0, i32 1, !dbg !494
  %69 = getelementptr inbounds [3 x i32], [3 x i32]* %9, i64 0, i64 0, !dbg !496
  store i32* %69, i32** %68, align 8, !dbg !494
  %70 = getelementptr inbounds %struct.GEMM_STRUCT_REF, %struct.GEMM_STRUCT_REF* %65, i32 0, i32 2, !dbg !494
  %71 = getelementptr inbounds [3 x i32], [3 x i32]* %12, i64 0, i64 0, !dbg !497
  store i32* %71, i32** %70, align 8, !dbg !494
  %72 = getelementptr inbounds %struct.GEMM_STRUCT_REF, %struct.GEMM_STRUCT_REF* %65, i64 1, !dbg !493
  %73 = getelementptr inbounds %struct.GEMM_STRUCT_REF, %struct.GEMM_STRUCT_REF* %72, i32 0, i32 0, !dbg !498
  %74 = getelementptr inbounds [3 x i32], [3 x i32]* %6, i64 0, i64 0, !dbg !499
  store i32* %74, i32** %73, align 8, !dbg !498
  %75 = getelementptr inbounds %struct.GEMM_STRUCT_REF, %struct.GEMM_STRUCT_REF* %72, i32 0, i32 1, !dbg !498
  %76 = getelementptr inbounds [3 x i32], [3 x i32]* %10, i64 0, i64 0, !dbg !500
  store i32* %76, i32** %75, align 8, !dbg !498
  %77 = getelementptr inbounds %struct.GEMM_STRUCT_REF, %struct.GEMM_STRUCT_REF* %72, i32 0, i32 2, !dbg !498
  %78 = getelementptr inbounds [3 x i32], [3 x i32]* %12, i64 0, i64 1, !dbg !501
  store i32* %78, i32** %77, align 8, !dbg !498
  %79 = getelementptr inbounds %struct.GEMM_STRUCT_REF, %struct.GEMM_STRUCT_REF* %72, i64 1, !dbg !493
  %80 = getelementptr inbounds %struct.GEMM_STRUCT_REF, %struct.GEMM_STRUCT_REF* %79, i32 0, i32 0, !dbg !502
  %81 = getelementptr inbounds [3 x i32], [3 x i32]* %6, i64 0, i64 0, !dbg !503
  store i32* %81, i32** %80, align 8, !dbg !502
  %82 = getelementptr inbounds %struct.GEMM_STRUCT_REF, %struct.GEMM_STRUCT_REF* %79, i32 0, i32 1, !dbg !502
  %83 = getelementptr inbounds [3 x i32], [3 x i32]* %11, i64 0, i64 0, !dbg !504
  store i32* %83, i32** %82, align 8, !dbg !502
  %84 = getelementptr inbounds %struct.GEMM_STRUCT_REF, %struct.GEMM_STRUCT_REF* %79, i32 0, i32 2, !dbg !502
  %85 = getelementptr inbounds [3 x i32], [3 x i32]* %12, i64 0, i64 2, !dbg !505
  store i32* %85, i32** %84, align 8, !dbg !502
  %86 = getelementptr inbounds %struct.GEMM_STRUCT_REF, %struct.GEMM_STRUCT_REF* %79, i64 1, !dbg !493
  %87 = getelementptr inbounds %struct.GEMM_STRUCT_REF, %struct.GEMM_STRUCT_REF* %86, i32 0, i32 0, !dbg !506
  %88 = getelementptr inbounds [3 x i32], [3 x i32]* %7, i64 0, i64 0, !dbg !507
  store i32* %88, i32** %87, align 8, !dbg !506
  %89 = getelementptr inbounds %struct.GEMM_STRUCT_REF, %struct.GEMM_STRUCT_REF* %86, i32 0, i32 1, !dbg !506
  %90 = getelementptr inbounds [3 x i32], [3 x i32]* %9, i64 0, i64 0, !dbg !508
  store i32* %90, i32** %89, align 8, !dbg !506
  %91 = getelementptr inbounds %struct.GEMM_STRUCT_REF, %struct.GEMM_STRUCT_REF* %86, i32 0, i32 2, !dbg !506
  %92 = getelementptr inbounds [3 x i32], [3 x i32]* %13, i64 0, i64 0, !dbg !509
  store i32* %92, i32** %91, align 8, !dbg !506
  %93 = getelementptr inbounds %struct.GEMM_STRUCT_REF, %struct.GEMM_STRUCT_REF* %86, i64 1, !dbg !493
  %94 = getelementptr inbounds %struct.GEMM_STRUCT_REF, %struct.GEMM_STRUCT_REF* %93, i32 0, i32 0, !dbg !510
  %95 = getelementptr inbounds [3 x i32], [3 x i32]* %7, i64 0, i64 0, !dbg !511
  store i32* %95, i32** %94, align 8, !dbg !510
  %96 = getelementptr inbounds %struct.GEMM_STRUCT_REF, %struct.GEMM_STRUCT_REF* %93, i32 0, i32 1, !dbg !510
  %97 = getelementptr inbounds [3 x i32], [3 x i32]* %10, i64 0, i64 0, !dbg !512
  store i32* %97, i32** %96, align 8, !dbg !510
  %98 = getelementptr inbounds %struct.GEMM_STRUCT_REF, %struct.GEMM_STRUCT_REF* %93, i32 0, i32 2, !dbg !510
  %99 = getelementptr inbounds [3 x i32], [3 x i32]* %13, i64 0, i64 1, !dbg !513
  store i32* %99, i32** %98, align 8, !dbg !510
  %100 = getelementptr inbounds %struct.GEMM_STRUCT_REF, %struct.GEMM_STRUCT_REF* %93, i64 1, !dbg !493
  %101 = getelementptr inbounds %struct.GEMM_STRUCT_REF, %struct.GEMM_STRUCT_REF* %100, i32 0, i32 0, !dbg !514
  %102 = getelementptr inbounds [3 x i32], [3 x i32]* %7, i64 0, i64 0, !dbg !515
  store i32* %102, i32** %101, align 8, !dbg !514
  %103 = getelementptr inbounds %struct.GEMM_STRUCT_REF, %struct.GEMM_STRUCT_REF* %100, i32 0, i32 1, !dbg !514
  %104 = getelementptr inbounds [3 x i32], [3 x i32]* %11, i64 0, i64 0, !dbg !516
  store i32* %104, i32** %103, align 8, !dbg !514
  %105 = getelementptr inbounds %struct.GEMM_STRUCT_REF, %struct.GEMM_STRUCT_REF* %100, i32 0, i32 2, !dbg !514
  %106 = getelementptr inbounds [3 x i32], [3 x i32]* %13, i64 0, i64 2, !dbg !517
  store i32* %106, i32** %105, align 8, !dbg !514
  %107 = getelementptr inbounds %struct.GEMM_STRUCT_REF, %struct.GEMM_STRUCT_REF* %100, i64 1, !dbg !493
  %108 = getelementptr inbounds %struct.GEMM_STRUCT_REF, %struct.GEMM_STRUCT_REF* %107, i32 0, i32 0, !dbg !518
  %109 = getelementptr inbounds [3 x i32], [3 x i32]* %8, i64 0, i64 0, !dbg !519
  store i32* %109, i32** %108, align 8, !dbg !518
  %110 = getelementptr inbounds %struct.GEMM_STRUCT_REF, %struct.GEMM_STRUCT_REF* %107, i32 0, i32 1, !dbg !518
  %111 = getelementptr inbounds [3 x i32], [3 x i32]* %9, i64 0, i64 0, !dbg !520
  store i32* %111, i32** %110, align 8, !dbg !518
  %112 = getelementptr inbounds %struct.GEMM_STRUCT_REF, %struct.GEMM_STRUCT_REF* %107, i32 0, i32 2, !dbg !518
  %113 = getelementptr inbounds [3 x i32], [3 x i32]* %14, i64 0, i64 0, !dbg !521
  store i32* %113, i32** %112, align 8, !dbg !518
  %114 = getelementptr inbounds %struct.GEMM_STRUCT_REF, %struct.GEMM_STRUCT_REF* %107, i64 1, !dbg !493
  %115 = getelementptr inbounds %struct.GEMM_STRUCT_REF, %struct.GEMM_STRUCT_REF* %114, i32 0, i32 0, !dbg !522
  %116 = getelementptr inbounds [3 x i32], [3 x i32]* %8, i64 0, i64 0, !dbg !523
  store i32* %116, i32** %115, align 8, !dbg !522
  %117 = getelementptr inbounds %struct.GEMM_STRUCT_REF, %struct.GEMM_STRUCT_REF* %114, i32 0, i32 1, !dbg !522
  %118 = getelementptr inbounds [3 x i32], [3 x i32]* %10, i64 0, i64 0, !dbg !524
  store i32* %118, i32** %117, align 8, !dbg !522
  %119 = getelementptr inbounds %struct.GEMM_STRUCT_REF, %struct.GEMM_STRUCT_REF* %114, i32 0, i32 2, !dbg !522
  %120 = getelementptr inbounds [3 x i32], [3 x i32]* %14, i64 0, i64 1, !dbg !525
  store i32* %120, i32** %119, align 8, !dbg !522
  %121 = getelementptr inbounds %struct.GEMM_STRUCT_REF, %struct.GEMM_STRUCT_REF* %114, i64 1, !dbg !493
  %122 = getelementptr inbounds %struct.GEMM_STRUCT_REF, %struct.GEMM_STRUCT_REF* %121, i32 0, i32 0, !dbg !526
  %123 = getelementptr inbounds [3 x i32], [3 x i32]* %8, i64 0, i64 0, !dbg !527
  store i32* %123, i32** %122, align 8, !dbg !526
  %124 = getelementptr inbounds %struct.GEMM_STRUCT_REF, %struct.GEMM_STRUCT_REF* %121, i32 0, i32 1, !dbg !526
  %125 = getelementptr inbounds [3 x i32], [3 x i32]* %11, i64 0, i64 0, !dbg !528
  store i32* %125, i32** %124, align 8, !dbg !526
  %126 = getelementptr inbounds %struct.GEMM_STRUCT_REF, %struct.GEMM_STRUCT_REF* %121, i32 0, i32 2, !dbg !526
  %127 = getelementptr inbounds [3 x i32], [3 x i32]* %14, i64 0, i64 2, !dbg !529
  store i32* %127, i32** %126, align 8, !dbg !526
  call void @llvm.dbg.declare(metadata [9 x %struct.GEMM_STRUCT_VAL]* %22, metadata !530, metadata !DIExpression()), !dbg !532
  %128 = getelementptr inbounds [9 x %struct.GEMM_STRUCT_VAL], [9 x %struct.GEMM_STRUCT_VAL]* %22, i64 0, i64 0, !dbg !533
  %129 = getelementptr inbounds %struct.GEMM_STRUCT_VAL, %struct.GEMM_STRUCT_VAL* %128, i32 0, i32 0, !dbg !534
  %130 = getelementptr inbounds [3 x i32], [3 x i32]* %6, i64 0, i64 0, !dbg !535
  %131 = load i32, i32* %130, align 4, !dbg !535
  store i32 %131, i32* %129, align 4, !dbg !534
  %132 = getelementptr inbounds %struct.GEMM_STRUCT_VAL, %struct.GEMM_STRUCT_VAL* %128, i32 0, i32 1, !dbg !534
  %133 = getelementptr inbounds [3 x i32], [3 x i32]* %9, i64 0, i64 0, !dbg !536
  %134 = load i32, i32* %133, align 4, !dbg !536
  store i32 %134, i32* %132, align 4, !dbg !534
  %135 = getelementptr inbounds %struct.GEMM_STRUCT_VAL, %struct.GEMM_STRUCT_VAL* %128, i32 0, i32 2, !dbg !534
  %136 = getelementptr inbounds [3 x i32], [3 x i32]* %12, i64 0, i64 0, !dbg !537
  %137 = load i32, i32* %136, align 4, !dbg !537
  store i32 %137, i32* %135, align 4, !dbg !534
  %138 = getelementptr inbounds %struct.GEMM_STRUCT_VAL, %struct.GEMM_STRUCT_VAL* %128, i64 1, !dbg !533
  %139 = getelementptr inbounds %struct.GEMM_STRUCT_VAL, %struct.GEMM_STRUCT_VAL* %138, i32 0, i32 0, !dbg !538
  %140 = getelementptr inbounds [3 x i32], [3 x i32]* %6, i64 0, i64 0, !dbg !539
  %141 = load i32, i32* %140, align 4, !dbg !539
  store i32 %141, i32* %139, align 4, !dbg !538
  %142 = getelementptr inbounds %struct.GEMM_STRUCT_VAL, %struct.GEMM_STRUCT_VAL* %138, i32 0, i32 1, !dbg !538
  %143 = getelementptr inbounds [3 x i32], [3 x i32]* %10, i64 0, i64 0, !dbg !540
  %144 = load i32, i32* %143, align 4, !dbg !540
  store i32 %144, i32* %142, align 4, !dbg !538
  %145 = getelementptr inbounds %struct.GEMM_STRUCT_VAL, %struct.GEMM_STRUCT_VAL* %138, i32 0, i32 2, !dbg !538
  %146 = getelementptr inbounds [3 x i32], [3 x i32]* %12, i64 0, i64 1, !dbg !541
  %147 = load i32, i32* %146, align 4, !dbg !541
  store i32 %147, i32* %145, align 4, !dbg !538
  %148 = getelementptr inbounds %struct.GEMM_STRUCT_VAL, %struct.GEMM_STRUCT_VAL* %138, i64 1, !dbg !533
  %149 = getelementptr inbounds %struct.GEMM_STRUCT_VAL, %struct.GEMM_STRUCT_VAL* %148, i32 0, i32 0, !dbg !542
  %150 = getelementptr inbounds [3 x i32], [3 x i32]* %6, i64 0, i64 0, !dbg !543
  %151 = load i32, i32* %150, align 4, !dbg !543
  store i32 %151, i32* %149, align 4, !dbg !542
  %152 = getelementptr inbounds %struct.GEMM_STRUCT_VAL, %struct.GEMM_STRUCT_VAL* %148, i32 0, i32 1, !dbg !542
  %153 = getelementptr inbounds [3 x i32], [3 x i32]* %11, i64 0, i64 0, !dbg !544
  %154 = load i32, i32* %153, align 4, !dbg !544
  store i32 %154, i32* %152, align 4, !dbg !542
  %155 = getelementptr inbounds %struct.GEMM_STRUCT_VAL, %struct.GEMM_STRUCT_VAL* %148, i32 0, i32 2, !dbg !542
  %156 = getelementptr inbounds [3 x i32], [3 x i32]* %12, i64 0, i64 2, !dbg !545
  %157 = load i32, i32* %156, align 4, !dbg !545
  store i32 %157, i32* %155, align 4, !dbg !542
  %158 = getelementptr inbounds %struct.GEMM_STRUCT_VAL, %struct.GEMM_STRUCT_VAL* %148, i64 1, !dbg !533
  %159 = getelementptr inbounds %struct.GEMM_STRUCT_VAL, %struct.GEMM_STRUCT_VAL* %158, i32 0, i32 0, !dbg !546
  %160 = getelementptr inbounds [3 x i32], [3 x i32]* %7, i64 0, i64 0, !dbg !547
  %161 = load i32, i32* %160, align 4, !dbg !547
  store i32 %161, i32* %159, align 4, !dbg !546
  %162 = getelementptr inbounds %struct.GEMM_STRUCT_VAL, %struct.GEMM_STRUCT_VAL* %158, i32 0, i32 1, !dbg !546
  %163 = getelementptr inbounds [3 x i32], [3 x i32]* %9, i64 0, i64 0, !dbg !548
  %164 = load i32, i32* %163, align 4, !dbg !548
  store i32 %164, i32* %162, align 4, !dbg !546
  %165 = getelementptr inbounds %struct.GEMM_STRUCT_VAL, %struct.GEMM_STRUCT_VAL* %158, i32 0, i32 2, !dbg !546
  %166 = getelementptr inbounds [3 x i32], [3 x i32]* %13, i64 0, i64 0, !dbg !549
  %167 = load i32, i32* %166, align 4, !dbg !549
  store i32 %167, i32* %165, align 4, !dbg !546
  %168 = getelementptr inbounds %struct.GEMM_STRUCT_VAL, %struct.GEMM_STRUCT_VAL* %158, i64 1, !dbg !533
  %169 = getelementptr inbounds %struct.GEMM_STRUCT_VAL, %struct.GEMM_STRUCT_VAL* %168, i32 0, i32 0, !dbg !550
  %170 = getelementptr inbounds [3 x i32], [3 x i32]* %7, i64 0, i64 0, !dbg !551
  %171 = load i32, i32* %170, align 4, !dbg !551
  store i32 %171, i32* %169, align 4, !dbg !550
  %172 = getelementptr inbounds %struct.GEMM_STRUCT_VAL, %struct.GEMM_STRUCT_VAL* %168, i32 0, i32 1, !dbg !550
  %173 = getelementptr inbounds [3 x i32], [3 x i32]* %10, i64 0, i64 0, !dbg !552
  %174 = load i32, i32* %173, align 4, !dbg !552
  store i32 %174, i32* %172, align 4, !dbg !550
  %175 = getelementptr inbounds %struct.GEMM_STRUCT_VAL, %struct.GEMM_STRUCT_VAL* %168, i32 0, i32 2, !dbg !550
  %176 = getelementptr inbounds [3 x i32], [3 x i32]* %13, i64 0, i64 1, !dbg !553
  %177 = load i32, i32* %176, align 4, !dbg !553
  store i32 %177, i32* %175, align 4, !dbg !550
  %178 = getelementptr inbounds %struct.GEMM_STRUCT_VAL, %struct.GEMM_STRUCT_VAL* %168, i64 1, !dbg !533
  %179 = getelementptr inbounds %struct.GEMM_STRUCT_VAL, %struct.GEMM_STRUCT_VAL* %178, i32 0, i32 0, !dbg !554
  %180 = getelementptr inbounds [3 x i32], [3 x i32]* %7, i64 0, i64 0, !dbg !555
  %181 = load i32, i32* %180, align 4, !dbg !555
  store i32 %181, i32* %179, align 4, !dbg !554
  %182 = getelementptr inbounds %struct.GEMM_STRUCT_VAL, %struct.GEMM_STRUCT_VAL* %178, i32 0, i32 1, !dbg !554
  %183 = getelementptr inbounds [3 x i32], [3 x i32]* %11, i64 0, i64 0, !dbg !556
  %184 = load i32, i32* %183, align 4, !dbg !556
  store i32 %184, i32* %182, align 4, !dbg !554
  %185 = getelementptr inbounds %struct.GEMM_STRUCT_VAL, %struct.GEMM_STRUCT_VAL* %178, i32 0, i32 2, !dbg !554
  %186 = getelementptr inbounds [3 x i32], [3 x i32]* %13, i64 0, i64 2, !dbg !557
  %187 = load i32, i32* %186, align 4, !dbg !557
  store i32 %187, i32* %185, align 4, !dbg !554
  %188 = getelementptr inbounds %struct.GEMM_STRUCT_VAL, %struct.GEMM_STRUCT_VAL* %178, i64 1, !dbg !533
  %189 = getelementptr inbounds %struct.GEMM_STRUCT_VAL, %struct.GEMM_STRUCT_VAL* %188, i32 0, i32 0, !dbg !558
  %190 = getelementptr inbounds [3 x i32], [3 x i32]* %8, i64 0, i64 0, !dbg !559
  %191 = load i32, i32* %190, align 4, !dbg !559
  store i32 %191, i32* %189, align 4, !dbg !558
  %192 = getelementptr inbounds %struct.GEMM_STRUCT_VAL, %struct.GEMM_STRUCT_VAL* %188, i32 0, i32 1, !dbg !558
  %193 = getelementptr inbounds [3 x i32], [3 x i32]* %9, i64 0, i64 0, !dbg !560
  %194 = load i32, i32* %193, align 4, !dbg !560
  store i32 %194, i32* %192, align 4, !dbg !558
  %195 = getelementptr inbounds %struct.GEMM_STRUCT_VAL, %struct.GEMM_STRUCT_VAL* %188, i32 0, i32 2, !dbg !558
  %196 = getelementptr inbounds [3 x i32], [3 x i32]* %14, i64 0, i64 0, !dbg !561
  %197 = load i32, i32* %196, align 4, !dbg !561
  store i32 %197, i32* %195, align 4, !dbg !558
  %198 = getelementptr inbounds %struct.GEMM_STRUCT_VAL, %struct.GEMM_STRUCT_VAL* %188, i64 1, !dbg !533
  %199 = getelementptr inbounds %struct.GEMM_STRUCT_VAL, %struct.GEMM_STRUCT_VAL* %198, i32 0, i32 0, !dbg !562
  %200 = getelementptr inbounds [3 x i32], [3 x i32]* %8, i64 0, i64 0, !dbg !563
  %201 = load i32, i32* %200, align 4, !dbg !563
  store i32 %201, i32* %199, align 4, !dbg !562
  %202 = getelementptr inbounds %struct.GEMM_STRUCT_VAL, %struct.GEMM_STRUCT_VAL* %198, i32 0, i32 1, !dbg !562
  %203 = getelementptr inbounds [3 x i32], [3 x i32]* %10, i64 0, i64 0, !dbg !564
  %204 = load i32, i32* %203, align 4, !dbg !564
  store i32 %204, i32* %202, align 4, !dbg !562
  %205 = getelementptr inbounds %struct.GEMM_STRUCT_VAL, %struct.GEMM_STRUCT_VAL* %198, i32 0, i32 2, !dbg !562
  %206 = getelementptr inbounds [3 x i32], [3 x i32]* %14, i64 0, i64 1, !dbg !565
  %207 = load i32, i32* %206, align 4, !dbg !565
  store i32 %207, i32* %205, align 4, !dbg !562
  %208 = getelementptr inbounds %struct.GEMM_STRUCT_VAL, %struct.GEMM_STRUCT_VAL* %198, i64 1, !dbg !533
  %209 = getelementptr inbounds %struct.GEMM_STRUCT_VAL, %struct.GEMM_STRUCT_VAL* %208, i32 0, i32 0, !dbg !566
  %210 = getelementptr inbounds [3 x i32], [3 x i32]* %8, i64 0, i64 0, !dbg !567
  %211 = load i32, i32* %210, align 4, !dbg !567
  store i32 %211, i32* %209, align 4, !dbg !566
  %212 = getelementptr inbounds %struct.GEMM_STRUCT_VAL, %struct.GEMM_STRUCT_VAL* %208, i32 0, i32 1, !dbg !566
  %213 = getelementptr inbounds [3 x i32], [3 x i32]* %11, i64 0, i64 0, !dbg !568
  %214 = load i32, i32* %213, align 4, !dbg !568
  store i32 %214, i32* %212, align 4, !dbg !566
  %215 = getelementptr inbounds %struct.GEMM_STRUCT_VAL, %struct.GEMM_STRUCT_VAL* %208, i32 0, i32 2, !dbg !566
  %216 = getelementptr inbounds [3 x i32], [3 x i32]* %14, i64 0, i64 2, !dbg !569
  %217 = load i32, i32* %216, align 4, !dbg !569
  store i32 %217, i32* %215, align 4, !dbg !566
  call void @llvm.dbg.declare(metadata [9 x %struct.INSTR]* %23, metadata !570, metadata !DIExpression()), !dbg !572
  %218 = getelementptr inbounds [9 x %struct.INSTR], [9 x %struct.INSTR]* %23, i64 0, i64 0, !dbg !573
  %219 = getelementptr inbounds %struct.INSTR, %struct.INSTR* %218, i32 0, i32 0, !dbg !574
  store i32 0, i32* %219, align 8, !dbg !574
  %220 = getelementptr inbounds %struct.INSTR, %struct.INSTR* %218, i32 0, i32 1, !dbg !574
  store i32 2, i32* %220, align 4, !dbg !574
  %221 = getelementptr inbounds %struct.INSTR, %struct.INSTR* %218, i32 0, i32 2, !dbg !574
  store i32 0, i32* %221, align 8, !dbg !574
  %222 = getelementptr inbounds %struct.INSTR, %struct.INSTR* %218, i32 0, i32 3, !dbg !574
  %223 = getelementptr inbounds [9 x %struct.GEMM_STRUCT_REF], [9 x %struct.GEMM_STRUCT_REF]* %21, i64 0, i64 0, !dbg !575
  %224 = bitcast %struct.GEMM_STRUCT_REF* %222 to i8*, !dbg !575
  %225 = bitcast %struct.GEMM_STRUCT_REF* %223 to i8*, !dbg !575
  %226 = call i8* @memcpy(i8* %224, i8* %225, i64 24), !dbg !575
  %227 = getelementptr inbounds %struct.INSTR, %struct.INSTR* %218, i64 1, !dbg !573
  %228 = getelementptr inbounds %struct.INSTR, %struct.INSTR* %227, i32 0, i32 0, !dbg !576
  store i32 1, i32* %228, align 8, !dbg !576
  %229 = getelementptr inbounds %struct.INSTR, %struct.INSTR* %227, i32 0, i32 1, !dbg !576
  store i32 2, i32* %229, align 4, !dbg !576
  %230 = getelementptr inbounds %struct.INSTR, %struct.INSTR* %227, i32 0, i32 2, !dbg !576
  store i32 0, i32* %230, align 8, !dbg !576
  %231 = getelementptr inbounds %struct.INSTR, %struct.INSTR* %227, i32 0, i32 3, !dbg !576
  %232 = getelementptr inbounds [9 x %struct.GEMM_STRUCT_REF], [9 x %struct.GEMM_STRUCT_REF]* %21, i64 0, i64 1, !dbg !577
  %233 = bitcast %struct.GEMM_STRUCT_REF* %231 to i8*, !dbg !577
  %234 = bitcast %struct.GEMM_STRUCT_REF* %232 to i8*, !dbg !577
  %235 = call i8* @memcpy(i8* %233, i8* %234, i64 24), !dbg !577
  %236 = getelementptr inbounds %struct.INSTR, %struct.INSTR* %227, i64 1, !dbg !573
  %237 = getelementptr inbounds %struct.INSTR, %struct.INSTR* %236, i32 0, i32 0, !dbg !578
  store i32 2, i32* %237, align 8, !dbg !578
  %238 = getelementptr inbounds %struct.INSTR, %struct.INSTR* %236, i32 0, i32 1, !dbg !578
  store i32 2, i32* %238, align 4, !dbg !578
  %239 = getelementptr inbounds %struct.INSTR, %struct.INSTR* %236, i32 0, i32 2, !dbg !578
  store i32 0, i32* %239, align 8, !dbg !578
  %240 = getelementptr inbounds %struct.INSTR, %struct.INSTR* %236, i32 0, i32 3, !dbg !578
  %241 = getelementptr inbounds [9 x %struct.GEMM_STRUCT_REF], [9 x %struct.GEMM_STRUCT_REF]* %21, i64 0, i64 2, !dbg !579
  %242 = bitcast %struct.GEMM_STRUCT_REF* %240 to i8*, !dbg !579
  %243 = bitcast %struct.GEMM_STRUCT_REF* %241 to i8*, !dbg !579
  %244 = call i8* @memcpy(i8* %242, i8* %243, i64 24), !dbg !579
  %245 = getelementptr inbounds %struct.INSTR, %struct.INSTR* %236, i64 1, !dbg !573
  %246 = getelementptr inbounds %struct.INSTR, %struct.INSTR* %245, i32 0, i32 0, !dbg !580
  store i32 3, i32* %246, align 8, !dbg !580
  %247 = getelementptr inbounds %struct.INSTR, %struct.INSTR* %245, i32 0, i32 1, !dbg !580
  store i32 2, i32* %247, align 4, !dbg !580
  %248 = getelementptr inbounds %struct.INSTR, %struct.INSTR* %245, i32 0, i32 2, !dbg !580
  store i32 0, i32* %248, align 8, !dbg !580
  %249 = getelementptr inbounds %struct.INSTR, %struct.INSTR* %245, i32 0, i32 3, !dbg !580
  %250 = getelementptr inbounds [9 x %struct.GEMM_STRUCT_REF], [9 x %struct.GEMM_STRUCT_REF]* %21, i64 0, i64 3, !dbg !581
  %251 = bitcast %struct.GEMM_STRUCT_REF* %249 to i8*, !dbg !581
  %252 = bitcast %struct.GEMM_STRUCT_REF* %250 to i8*, !dbg !581
  %253 = call i8* @memcpy(i8* %251, i8* %252, i64 24), !dbg !581
  %254 = getelementptr inbounds %struct.INSTR, %struct.INSTR* %245, i64 1, !dbg !573
  %255 = getelementptr inbounds %struct.INSTR, %struct.INSTR* %254, i32 0, i32 0, !dbg !582
  store i32 4, i32* %255, align 8, !dbg !582
  %256 = getelementptr inbounds %struct.INSTR, %struct.INSTR* %254, i32 0, i32 1, !dbg !582
  store i32 2, i32* %256, align 4, !dbg !582
  %257 = getelementptr inbounds %struct.INSTR, %struct.INSTR* %254, i32 0, i32 2, !dbg !582
  store i32 0, i32* %257, align 8, !dbg !582
  %258 = getelementptr inbounds %struct.INSTR, %struct.INSTR* %254, i32 0, i32 3, !dbg !582
  %259 = getelementptr inbounds [9 x %struct.GEMM_STRUCT_REF], [9 x %struct.GEMM_STRUCT_REF]* %21, i64 0, i64 4, !dbg !583
  %260 = bitcast %struct.GEMM_STRUCT_REF* %258 to i8*, !dbg !583
  %261 = bitcast %struct.GEMM_STRUCT_REF* %259 to i8*, !dbg !583
  %262 = call i8* @memcpy(i8* %260, i8* %261, i64 24), !dbg !583
  %263 = getelementptr inbounds %struct.INSTR, %struct.INSTR* %254, i64 1, !dbg !573
  %264 = getelementptr inbounds %struct.INSTR, %struct.INSTR* %263, i32 0, i32 0, !dbg !584
  store i32 5, i32* %264, align 8, !dbg !584
  %265 = getelementptr inbounds %struct.INSTR, %struct.INSTR* %263, i32 0, i32 1, !dbg !584
  store i32 2, i32* %265, align 4, !dbg !584
  %266 = getelementptr inbounds %struct.INSTR, %struct.INSTR* %263, i32 0, i32 2, !dbg !584
  store i32 0, i32* %266, align 8, !dbg !584
  %267 = getelementptr inbounds %struct.INSTR, %struct.INSTR* %263, i32 0, i32 3, !dbg !584
  %268 = getelementptr inbounds [9 x %struct.GEMM_STRUCT_REF], [9 x %struct.GEMM_STRUCT_REF]* %21, i64 0, i64 5, !dbg !585
  %269 = bitcast %struct.GEMM_STRUCT_REF* %267 to i8*, !dbg !585
  %270 = bitcast %struct.GEMM_STRUCT_REF* %268 to i8*, !dbg !585
  %271 = call i8* @memcpy(i8* %269, i8* %270, i64 24), !dbg !585
  %272 = getelementptr inbounds %struct.INSTR, %struct.INSTR* %263, i64 1, !dbg !573
  %273 = getelementptr inbounds %struct.INSTR, %struct.INSTR* %272, i32 0, i32 0, !dbg !586
  store i32 6, i32* %273, align 8, !dbg !586
  %274 = getelementptr inbounds %struct.INSTR, %struct.INSTR* %272, i32 0, i32 1, !dbg !586
  store i32 2, i32* %274, align 4, !dbg !586
  %275 = getelementptr inbounds %struct.INSTR, %struct.INSTR* %272, i32 0, i32 2, !dbg !586
  store i32 0, i32* %275, align 8, !dbg !586
  %276 = getelementptr inbounds %struct.INSTR, %struct.INSTR* %272, i32 0, i32 3, !dbg !586
  %277 = getelementptr inbounds [9 x %struct.GEMM_STRUCT_REF], [9 x %struct.GEMM_STRUCT_REF]* %21, i64 0, i64 6, !dbg !587
  %278 = bitcast %struct.GEMM_STRUCT_REF* %276 to i8*, !dbg !587
  %279 = bitcast %struct.GEMM_STRUCT_REF* %277 to i8*, !dbg !587
  %280 = call i8* @memcpy(i8* %278, i8* %279, i64 24), !dbg !587
  %281 = getelementptr inbounds %struct.INSTR, %struct.INSTR* %272, i64 1, !dbg !573
  %282 = getelementptr inbounds %struct.INSTR, %struct.INSTR* %281, i32 0, i32 0, !dbg !588
  store i32 7, i32* %282, align 8, !dbg !588
  %283 = getelementptr inbounds %struct.INSTR, %struct.INSTR* %281, i32 0, i32 1, !dbg !588
  store i32 2, i32* %283, align 4, !dbg !588
  %284 = getelementptr inbounds %struct.INSTR, %struct.INSTR* %281, i32 0, i32 2, !dbg !588
  store i32 0, i32* %284, align 8, !dbg !588
  %285 = getelementptr inbounds %struct.INSTR, %struct.INSTR* %281, i32 0, i32 3, !dbg !588
  %286 = getelementptr inbounds [9 x %struct.GEMM_STRUCT_REF], [9 x %struct.GEMM_STRUCT_REF]* %21, i64 0, i64 7, !dbg !589
  %287 = bitcast %struct.GEMM_STRUCT_REF* %285 to i8*, !dbg !589
  %288 = bitcast %struct.GEMM_STRUCT_REF* %286 to i8*, !dbg !589
  %289 = call i8* @memcpy(i8* %287, i8* %288, i64 24), !dbg !589
  %290 = getelementptr inbounds %struct.INSTR, %struct.INSTR* %281, i64 1, !dbg !573
  %291 = getelementptr inbounds %struct.INSTR, %struct.INSTR* %290, i32 0, i32 0, !dbg !590
  store i32 8, i32* %291, align 8, !dbg !590
  %292 = getelementptr inbounds %struct.INSTR, %struct.INSTR* %290, i32 0, i32 1, !dbg !590
  store i32 2, i32* %292, align 4, !dbg !590
  %293 = getelementptr inbounds %struct.INSTR, %struct.INSTR* %290, i32 0, i32 2, !dbg !590
  store i32 0, i32* %293, align 8, !dbg !590
  %294 = getelementptr inbounds %struct.INSTR, %struct.INSTR* %290, i32 0, i32 3, !dbg !590
  %295 = getelementptr inbounds [9 x %struct.GEMM_STRUCT_REF], [9 x %struct.GEMM_STRUCT_REF]* %21, i64 0, i64 8, !dbg !591
  %296 = bitcast %struct.GEMM_STRUCT_REF* %294 to i8*, !dbg !591
  %297 = bitcast %struct.GEMM_STRUCT_REF* %295 to i8*, !dbg !591
  %298 = call i8* @memcpy(i8* %296, i8* %297, i64 24), !dbg !591
  call void @llvm.dbg.declare(metadata [9 x %struct.INSTR_VAL]* %24, metadata !592, metadata !DIExpression()), !dbg !594
  %299 = getelementptr inbounds [9 x %struct.INSTR_VAL], [9 x %struct.INSTR_VAL]* %24, i64 0, i64 0, !dbg !595
  %300 = getelementptr inbounds %struct.INSTR_VAL, %struct.INSTR_VAL* %299, i32 0, i32 0, !dbg !596
  store i32 0, i32* %300, align 8, !dbg !596
  %301 = getelementptr inbounds %struct.INSTR_VAL, %struct.INSTR_VAL* %299, i32 0, i32 1, !dbg !596
  store i32 2, i32* %301, align 4, !dbg !596
  %302 = getelementptr inbounds %struct.INSTR_VAL, %struct.INSTR_VAL* %299, i32 0, i32 2, !dbg !596
  store i32 0, i32* %302, align 8, !dbg !596
  %303 = getelementptr inbounds %struct.INSTR_VAL, %struct.INSTR_VAL* %299, i32 0, i32 3, !dbg !596
  %304 = getelementptr inbounds [9 x %struct.GEMM_STRUCT_VAL], [9 x %struct.GEMM_STRUCT_VAL]* %22, i64 0, i64 0, !dbg !597
  %305 = bitcast %struct.GEMM_STRUCT_VAL* %303 to i8*, !dbg !597
  %306 = bitcast %struct.GEMM_STRUCT_VAL* %304 to i8*, !dbg !597
  %307 = call i8* @memcpy(i8* %305, i8* %306, i64 12), !dbg !597
  %308 = getelementptr inbounds %struct.INSTR_VAL, %struct.INSTR_VAL* %299, i64 1, !dbg !595
  %309 = getelementptr inbounds %struct.INSTR_VAL, %struct.INSTR_VAL* %308, i32 0, i32 0, !dbg !598
  store i32 1, i32* %309, align 8, !dbg !598
  %310 = getelementptr inbounds %struct.INSTR_VAL, %struct.INSTR_VAL* %308, i32 0, i32 1, !dbg !598
  store i32 2, i32* %310, align 4, !dbg !598
  %311 = getelementptr inbounds %struct.INSTR_VAL, %struct.INSTR_VAL* %308, i32 0, i32 2, !dbg !598
  store i32 0, i32* %311, align 8, !dbg !598
  %312 = getelementptr inbounds %struct.INSTR_VAL, %struct.INSTR_VAL* %308, i32 0, i32 3, !dbg !598
  %313 = getelementptr inbounds [9 x %struct.GEMM_STRUCT_VAL], [9 x %struct.GEMM_STRUCT_VAL]* %22, i64 0, i64 1, !dbg !599
  %314 = bitcast %struct.GEMM_STRUCT_VAL* %312 to i8*, !dbg !599
  %315 = bitcast %struct.GEMM_STRUCT_VAL* %313 to i8*, !dbg !599
  %316 = call i8* @memcpy(i8* %314, i8* %315, i64 12), !dbg !599
  %317 = getelementptr inbounds %struct.INSTR_VAL, %struct.INSTR_VAL* %308, i64 1, !dbg !595
  %318 = getelementptr inbounds %struct.INSTR_VAL, %struct.INSTR_VAL* %317, i32 0, i32 0, !dbg !600
  store i32 2, i32* %318, align 8, !dbg !600
  %319 = getelementptr inbounds %struct.INSTR_VAL, %struct.INSTR_VAL* %317, i32 0, i32 1, !dbg !600
  store i32 2, i32* %319, align 4, !dbg !600
  %320 = getelementptr inbounds %struct.INSTR_VAL, %struct.INSTR_VAL* %317, i32 0, i32 2, !dbg !600
  store i32 0, i32* %320, align 8, !dbg !600
  %321 = getelementptr inbounds %struct.INSTR_VAL, %struct.INSTR_VAL* %317, i32 0, i32 3, !dbg !600
  %322 = getelementptr inbounds [9 x %struct.GEMM_STRUCT_VAL], [9 x %struct.GEMM_STRUCT_VAL]* %22, i64 0, i64 2, !dbg !601
  %323 = bitcast %struct.GEMM_STRUCT_VAL* %321 to i8*, !dbg !601
  %324 = bitcast %struct.GEMM_STRUCT_VAL* %322 to i8*, !dbg !601
  %325 = call i8* @memcpy(i8* %323, i8* %324, i64 12), !dbg !601
  %326 = getelementptr inbounds %struct.INSTR_VAL, %struct.INSTR_VAL* %317, i64 1, !dbg !595
  %327 = getelementptr inbounds %struct.INSTR_VAL, %struct.INSTR_VAL* %326, i32 0, i32 0, !dbg !602
  store i32 3, i32* %327, align 8, !dbg !602
  %328 = getelementptr inbounds %struct.INSTR_VAL, %struct.INSTR_VAL* %326, i32 0, i32 1, !dbg !602
  store i32 2, i32* %328, align 4, !dbg !602
  %329 = getelementptr inbounds %struct.INSTR_VAL, %struct.INSTR_VAL* %326, i32 0, i32 2, !dbg !602
  store i32 0, i32* %329, align 8, !dbg !602
  %330 = getelementptr inbounds %struct.INSTR_VAL, %struct.INSTR_VAL* %326, i32 0, i32 3, !dbg !602
  %331 = getelementptr inbounds [9 x %struct.GEMM_STRUCT_VAL], [9 x %struct.GEMM_STRUCT_VAL]* %22, i64 0, i64 3, !dbg !603
  %332 = bitcast %struct.GEMM_STRUCT_VAL* %330 to i8*, !dbg !603
  %333 = bitcast %struct.GEMM_STRUCT_VAL* %331 to i8*, !dbg !603
  %334 = call i8* @memcpy(i8* %332, i8* %333, i64 12), !dbg !603
  %335 = getelementptr inbounds %struct.INSTR_VAL, %struct.INSTR_VAL* %326, i64 1, !dbg !595
  %336 = getelementptr inbounds %struct.INSTR_VAL, %struct.INSTR_VAL* %335, i32 0, i32 0, !dbg !604
  store i32 4, i32* %336, align 8, !dbg !604
  %337 = getelementptr inbounds %struct.INSTR_VAL, %struct.INSTR_VAL* %335, i32 0, i32 1, !dbg !604
  store i32 2, i32* %337, align 4, !dbg !604
  %338 = getelementptr inbounds %struct.INSTR_VAL, %struct.INSTR_VAL* %335, i32 0, i32 2, !dbg !604
  store i32 0, i32* %338, align 8, !dbg !604
  %339 = getelementptr inbounds %struct.INSTR_VAL, %struct.INSTR_VAL* %335, i32 0, i32 3, !dbg !604
  %340 = getelementptr inbounds [9 x %struct.GEMM_STRUCT_VAL], [9 x %struct.GEMM_STRUCT_VAL]* %22, i64 0, i64 4, !dbg !605
  %341 = bitcast %struct.GEMM_STRUCT_VAL* %339 to i8*, !dbg !605
  %342 = bitcast %struct.GEMM_STRUCT_VAL* %340 to i8*, !dbg !605
  %343 = call i8* @memcpy(i8* %341, i8* %342, i64 12), !dbg !605
  %344 = getelementptr inbounds %struct.INSTR_VAL, %struct.INSTR_VAL* %335, i64 1, !dbg !595
  %345 = getelementptr inbounds %struct.INSTR_VAL, %struct.INSTR_VAL* %344, i32 0, i32 0, !dbg !606
  store i32 5, i32* %345, align 8, !dbg !606
  %346 = getelementptr inbounds %struct.INSTR_VAL, %struct.INSTR_VAL* %344, i32 0, i32 1, !dbg !606
  store i32 2, i32* %346, align 4, !dbg !606
  %347 = getelementptr inbounds %struct.INSTR_VAL, %struct.INSTR_VAL* %344, i32 0, i32 2, !dbg !606
  store i32 0, i32* %347, align 8, !dbg !606
  %348 = getelementptr inbounds %struct.INSTR_VAL, %struct.INSTR_VAL* %344, i32 0, i32 3, !dbg !606
  %349 = getelementptr inbounds [9 x %struct.GEMM_STRUCT_VAL], [9 x %struct.GEMM_STRUCT_VAL]* %22, i64 0, i64 5, !dbg !607
  %350 = bitcast %struct.GEMM_STRUCT_VAL* %348 to i8*, !dbg !607
  %351 = bitcast %struct.GEMM_STRUCT_VAL* %349 to i8*, !dbg !607
  %352 = call i8* @memcpy(i8* %350, i8* %351, i64 12), !dbg !607
  %353 = getelementptr inbounds %struct.INSTR_VAL, %struct.INSTR_VAL* %344, i64 1, !dbg !595
  %354 = getelementptr inbounds %struct.INSTR_VAL, %struct.INSTR_VAL* %353, i32 0, i32 0, !dbg !608
  store i32 6, i32* %354, align 8, !dbg !608
  %355 = getelementptr inbounds %struct.INSTR_VAL, %struct.INSTR_VAL* %353, i32 0, i32 1, !dbg !608
  store i32 2, i32* %355, align 4, !dbg !608
  %356 = getelementptr inbounds %struct.INSTR_VAL, %struct.INSTR_VAL* %353, i32 0, i32 2, !dbg !608
  store i32 0, i32* %356, align 8, !dbg !608
  %357 = getelementptr inbounds %struct.INSTR_VAL, %struct.INSTR_VAL* %353, i32 0, i32 3, !dbg !608
  %358 = getelementptr inbounds [9 x %struct.GEMM_STRUCT_VAL], [9 x %struct.GEMM_STRUCT_VAL]* %22, i64 0, i64 6, !dbg !609
  %359 = bitcast %struct.GEMM_STRUCT_VAL* %357 to i8*, !dbg !609
  %360 = bitcast %struct.GEMM_STRUCT_VAL* %358 to i8*, !dbg !609
  %361 = call i8* @memcpy(i8* %359, i8* %360, i64 12), !dbg !609
  %362 = getelementptr inbounds %struct.INSTR_VAL, %struct.INSTR_VAL* %353, i64 1, !dbg !595
  %363 = getelementptr inbounds %struct.INSTR_VAL, %struct.INSTR_VAL* %362, i32 0, i32 0, !dbg !610
  store i32 7, i32* %363, align 8, !dbg !610
  %364 = getelementptr inbounds %struct.INSTR_VAL, %struct.INSTR_VAL* %362, i32 0, i32 1, !dbg !610
  store i32 2, i32* %364, align 4, !dbg !610
  %365 = getelementptr inbounds %struct.INSTR_VAL, %struct.INSTR_VAL* %362, i32 0, i32 2, !dbg !610
  store i32 0, i32* %365, align 8, !dbg !610
  %366 = getelementptr inbounds %struct.INSTR_VAL, %struct.INSTR_VAL* %362, i32 0, i32 3, !dbg !610
  %367 = getelementptr inbounds [9 x %struct.GEMM_STRUCT_VAL], [9 x %struct.GEMM_STRUCT_VAL]* %22, i64 0, i64 7, !dbg !611
  %368 = bitcast %struct.GEMM_STRUCT_VAL* %366 to i8*, !dbg !611
  %369 = bitcast %struct.GEMM_STRUCT_VAL* %367 to i8*, !dbg !611
  %370 = call i8* @memcpy(i8* %368, i8* %369, i64 12), !dbg !611
  %371 = getelementptr inbounds %struct.INSTR_VAL, %struct.INSTR_VAL* %362, i64 1, !dbg !595
  %372 = getelementptr inbounds %struct.INSTR_VAL, %struct.INSTR_VAL* %371, i32 0, i32 0, !dbg !612
  store i32 8, i32* %372, align 8, !dbg !612
  %373 = getelementptr inbounds %struct.INSTR_VAL, %struct.INSTR_VAL* %371, i32 0, i32 1, !dbg !612
  store i32 2, i32* %373, align 4, !dbg !612
  %374 = getelementptr inbounds %struct.INSTR_VAL, %struct.INSTR_VAL* %371, i32 0, i32 2, !dbg !612
  store i32 0, i32* %374, align 8, !dbg !612
  %375 = getelementptr inbounds %struct.INSTR_VAL, %struct.INSTR_VAL* %371, i32 0, i32 3, !dbg !612
  %376 = getelementptr inbounds [9 x %struct.GEMM_STRUCT_VAL], [9 x %struct.GEMM_STRUCT_VAL]* %22, i64 0, i64 8, !dbg !613
  %377 = bitcast %struct.GEMM_STRUCT_VAL* %375 to i8*, !dbg !613
  %378 = bitcast %struct.GEMM_STRUCT_VAL* %376 to i8*, !dbg !613
  %379 = call i8* @memcpy(i8* %377, i8* %378, i64 12), !dbg !613
  %380 = call i32* @_Z6mulMatPA3_jS0_S0_([3 x i32]* getelementptr inbounds ([3 x [3 x i32]], [3 x [3 x i32]]* @inp_mem, i64 0, i64 0), [3 x i32]* getelementptr inbounds ([3 x [3 x i32]], [3 x [3 x i32]]* @wgt_mem, i64 0, i64 0), [3 x i32]* getelementptr inbounds ([3 x [3 x i32]], [3 x [3 x i32]]* @acc_mem, i64 0, i64 0)), !dbg !614
  store i32* %380, i32** @acc_mem_gemm, align 8, !dbg !615
  %381 = load i32, i32* %17, align 4, !dbg !616
  %382 = icmp eq i32 %381, 0, !dbg !618
  %383 = load i32, i32* %18, align 4, !dbg !619
  %384 = icmp uge i32 %383, 0, !dbg !620
  %or.cond = and i1 %382, %384, !dbg !621
  %385 = load i32, i32* %18, align 4, !dbg !622
  %386 = icmp ule i32 %385, 3, !dbg !623
  %or.cond3 = and i1 %or.cond, %386, !dbg !621
  br i1 %or.cond3, label %387, label %401, !dbg !621

387:                                              ; preds = %2
  call void @llvm.dbg.declare(metadata i32* %25, metadata !624, metadata !DIExpression()), !dbg !627
  store i32 0, i32* %25, align 4, !dbg !627
  br label %388, !dbg !628

388:                                              ; preds = %391, %387
  %389 = load i32, i32* %25, align 4, !dbg !629
  %390 = icmp slt i32 %389, 9, !dbg !631
  br i1 %390, label %391, label %401, !dbg !632

391:                                              ; preds = %388
  %392 = load i32, i32* %25, align 4, !dbg !633
  %393 = sext i32 %392 to i64, !dbg !635
  %394 = getelementptr inbounds [9 x %struct.INSTR], [9 x %struct.INSTR]* %23, i64 0, i64 %393, !dbg !635
  %395 = bitcast %struct.INSTR* %26 to i8*, !dbg !635
  %396 = bitcast %struct.INSTR* %394 to i8*, !dbg !635
  %397 = call i8* @memcpy(i8* %395, i8* %396, i64 40), !dbg !635
  %398 = call i32* @_Z13micro_decoder5INSTR(%struct.INSTR* byval(%struct.INSTR) align 8 %26), !dbg !636
  store i32* %398, i32** %15, align 8, !dbg !637
  %399 = load i32, i32* %25, align 4, !dbg !638
  %400 = add nsw i32 %399, 1, !dbg !638
  store i32 %400, i32* %25, align 4, !dbg !638
  br label %388, !dbg !639, !llvm.loop !640

401:                                              ; preds = %388, %2
  ret i32 0, !dbg !642
}

; Function Attrs: argmemonly nounwind
declare void @llvm.memcpy.p0i8.p0i8.i64(i8* nocapture writeonly, i8* nocapture readonly, i64, i1 immarg) #3

declare dso_local void @klee_make_symbolic(i8*, i64, i8*) #4

; Function Attrs: noinline nounwind uwtable
define dso_local i8* @memcpy(i8*, i8*, i64) #0 !dbg !643 {
  %4 = alloca i8*, align 8
  %5 = alloca i8*, align 8
  %6 = alloca i64, align 8
  %7 = alloca i8*, align 8
  %8 = alloca i8*, align 8
  store i8* %0, i8** %4, align 8
  call void @llvm.dbg.declare(metadata i8** %4, metadata !645, metadata !DIExpression()), !dbg !646
  store i8* %1, i8** %5, align 8
  call void @llvm.dbg.declare(metadata i8** %5, metadata !647, metadata !DIExpression()), !dbg !648
  store i64 %2, i64* %6, align 8
  call void @llvm.dbg.declare(metadata i64* %6, metadata !649, metadata !DIExpression()), !dbg !650
  call void @llvm.dbg.declare(metadata i8** %7, metadata !651, metadata !DIExpression()), !dbg !652
  %9 = load i8*, i8** %4, align 8, !dbg !653
  store i8* %9, i8** %7, align 8, !dbg !652
  call void @llvm.dbg.declare(metadata i8** %8, metadata !654, metadata !DIExpression()), !dbg !655
  %10 = load i8*, i8** %5, align 8, !dbg !656
  store i8* %10, i8** %8, align 8, !dbg !655
  br label %11, !dbg !657

11:                                               ; preds = %15, %3
  %12 = load i64, i64* %6, align 8, !dbg !658
  %13 = add i64 %12, -1, !dbg !658
  store i64 %13, i64* %6, align 8, !dbg !658
  %14 = icmp ugt i64 %12, 0, !dbg !659
  br i1 %14, label %15, label %21, !dbg !657

15:                                               ; preds = %11
  %16 = load i8*, i8** %8, align 8, !dbg !660
  %17 = getelementptr inbounds i8, i8* %16, i32 1, !dbg !660
  store i8* %17, i8** %8, align 8, !dbg !660
  %18 = load i8, i8* %16, align 1, !dbg !661
  %19 = load i8*, i8** %7, align 8, !dbg !662
  %20 = getelementptr inbounds i8, i8* %19, i32 1, !dbg !662
  store i8* %20, i8** %7, align 8, !dbg !662
  store i8 %18, i8* %19, align 1, !dbg !663
  br label %11, !dbg !657, !llvm.loop !664

21:                                               ; preds = %11
  %22 = load i8*, i8** %4, align 8, !dbg !665
  ret i8* %22, !dbg !666
}

attributes #0 = { noinline nounwind uwtable "correctly-rounded-divide-sqrt-fp-math"="false" "disable-tail-calls"="false" "less-precise-fpmad"="false" "min-legal-vector-width"="0" "no-frame-pointer-elim"="true" "no-frame-pointer-elim-non-leaf" "no-infs-fp-math"="false" "no-jump-tables"="false" "no-nans-fp-math"="false" "no-signed-zeros-fp-math"="false" "no-trapping-math"="false" "stack-protector-buffer-size"="8" "target-cpu"="x86-64" "target-features"="+cx8,+fxsr,+mmx,+sse,+sse2,+x87" "unsafe-fp-math"="false" "use-soft-float"="false" }
attributes #1 = { nounwind readnone speculatable }
attributes #2 = { noinline norecurse uwtable "correctly-rounded-divide-sqrt-fp-math"="false" "disable-tail-calls"="false" "less-precise-fpmad"="false" "min-legal-vector-width"="0" "no-frame-pointer-elim"="true" "no-frame-pointer-elim-non-leaf" "no-infs-fp-math"="false" "no-jump-tables"="false" "no-nans-fp-math"="false" "no-signed-zeros-fp-math"="false" "no-trapping-math"="false" "stack-protector-buffer-size"="8" "target-cpu"="x86-64" "target-features"="+cx8,+fxsr,+mmx,+sse,+sse2,+x87" "unsafe-fp-math"="false" "use-soft-float"="false" }
attributes #3 = { argmemonly nounwind }
attributes #4 = { "correctly-rounded-divide-sqrt-fp-math"="false" "disable-tail-calls"="false" "less-precise-fpmad"="false" "no-frame-pointer-elim"="true" "no-frame-pointer-elim-non-leaf" "no-infs-fp-math"="false" "no-nans-fp-math"="false" "no-signed-zeros-fp-math"="false" "no-trapping-math"="false" "stack-protector-buffer-size"="8" "target-cpu"="x86-64" "target-features"="+cx8,+fxsr,+mmx,+sse,+sse2,+x87" "unsafe-fp-math"="false" "use-soft-float"="false" }

!llvm.dbg.cu = !{!2, !122}
!llvm.module.flags = !{!124, !125, !126}
!llvm.ident = !{!127, !127}

!0 = !DIGlobalVariableExpression(var: !1, expr: !DIExpression())
!1 = distinct !DIGlobalVariable(name: "res_index", scope: !2, file: !3, line: 8, type: !38, isLocal: false, isDefinition: true)
!2 = distinct !DICompileUnit(language: DW_LANG_C_plus_plus, file: !3, producer: "clang version 9.0.0-2~ubuntu18.04.2 (tags/RELEASE_900/final)", isOptimized: false, runtimeVersion: 0, emissionKind: FullDebug, enums: !4, globals: !5, imports: !28, nameTableKind: None)
!3 = !DIFile(filename: "gemm.cpp", directory: "/home/klee/klee_src/examples/isra")
!4 = !{}
!5 = !{!0, !6, !12, !17, !19, !21, !23, !25}
!6 = !DIGlobalVariableExpression(var: !7, expr: !DIExpression())
!7 = distinct !DIGlobalVariable(name: "result", scope: !2, file: !3, line: 9, type: !8, isLocal: false, isDefinition: true)
!8 = !DICompositeType(tag: DW_TAG_array_type, baseType: !9, size: 288, elements: !10)
!9 = !DIBasicType(name: "unsigned int", size: 32, encoding: DW_ATE_unsigned)
!10 = !{!11}
!11 = !DISubrange(count: 9)
!12 = !DIGlobalVariableExpression(var: !13, expr: !DIExpression())
!13 = distinct !DIGlobalVariable(name: "inp_mem", scope: !2, file: !3, line: 11, type: !14, isLocal: false, isDefinition: true)
!14 = !DICompositeType(tag: DW_TAG_array_type, baseType: !9, size: 288, elements: !15)
!15 = !{!16, !16}
!16 = !DISubrange(count: 3)
!17 = !DIGlobalVariableExpression(var: !18, expr: !DIExpression())
!18 = distinct !DIGlobalVariable(name: "wgt_mem", scope: !2, file: !3, line: 12, type: !14, isLocal: false, isDefinition: true)
!19 = !DIGlobalVariableExpression(var: !20, expr: !DIExpression())
!20 = distinct !DIGlobalVariable(name: "acc_mem", scope: !2, file: !3, line: 13, type: !14, isLocal: false, isDefinition: true)
!21 = !DIGlobalVariableExpression(var: !22, expr: !DIExpression())
!22 = distinct !DIGlobalVariable(name: "wgt_mem_prime", scope: !2, file: !3, line: 14, type: !14, isLocal: false, isDefinition: true)
!23 = !DIGlobalVariableExpression(var: !24, expr: !DIExpression())
!24 = distinct !DIGlobalVariable(name: "acc_mem_flat", scope: !2, file: !3, line: 15, type: !8, isLocal: false, isDefinition: true)
!25 = !DIGlobalVariableExpression(var: !26, expr: !DIExpression())
!26 = distinct !DIGlobalVariable(name: "acc_mem_gemm", scope: !2, file: !3, line: 16, type: !27, isLocal: false, isDefinition: true)
!27 = !DIDerivedType(tag: DW_TAG_pointer_type, baseType: !9, size: 64)
!28 = !{!29, !43, !47, !53, !57, !61, !71, !75, !77, !79, !83, !87, !91, !95, !99, !101, !103, !105, !109, !113, !117, !119, !121}
!29 = !DIImportedEntity(tag: DW_TAG_imported_declaration, scope: !30, entity: !31, file: !42, line: 75)
!30 = !DINamespace(name: "std", scope: null)
!31 = !DISubprogram(name: "memchr", scope: !32, file: !32, line: 90, type: !33, flags: DIFlagPrototyped, spFlags: 0)
!32 = !DIFile(filename: "/usr/include/string.h", directory: "")
!33 = !DISubroutineType(types: !34)
!34 = !{!35, !36, !38, !39}
!35 = !DIDerivedType(tag: DW_TAG_pointer_type, baseType: null, size: 64)
!36 = !DIDerivedType(tag: DW_TAG_pointer_type, baseType: !37, size: 64)
!37 = !DIDerivedType(tag: DW_TAG_const_type, baseType: null)
!38 = !DIBasicType(name: "int", size: 32, encoding: DW_ATE_signed)
!39 = !DIDerivedType(tag: DW_TAG_typedef, name: "size_t", file: !40, line: 46, baseType: !41)
!40 = !DIFile(filename: "/usr/lib/llvm-9/lib/clang/9.0.0/include/stddef.h", directory: "")
!41 = !DIBasicType(name: "long unsigned int", size: 64, encoding: DW_ATE_unsigned)
!42 = !DIFile(filename: "/usr/bin/../lib/gcc/x86_64-linux-gnu/7.5.0/../../../../include/c++/7.5.0/cstring", directory: "")
!43 = !DIImportedEntity(tag: DW_TAG_imported_declaration, scope: !30, entity: !44, file: !42, line: 76)
!44 = !DISubprogram(name: "memcmp", scope: !32, file: !32, line: 63, type: !45, flags: DIFlagPrototyped, spFlags: 0)
!45 = !DISubroutineType(types: !46)
!46 = !{!38, !36, !36, !39}
!47 = !DIImportedEntity(tag: DW_TAG_imported_declaration, scope: !30, entity: !48, file: !42, line: 77)
!48 = !DISubprogram(name: "memcpy", scope: !32, file: !32, line: 42, type: !49, flags: DIFlagPrototyped, spFlags: 0)
!49 = !DISubroutineType(types: !50)
!50 = !{!35, !51, !52, !39}
!51 = !DIDerivedType(tag: DW_TAG_restrict_type, baseType: !35)
!52 = !DIDerivedType(tag: DW_TAG_restrict_type, baseType: !36)
!53 = !DIImportedEntity(tag: DW_TAG_imported_declaration, scope: !30, entity: !54, file: !42, line: 78)
!54 = !DISubprogram(name: "memmove", scope: !32, file: !32, line: 46, type: !55, flags: DIFlagPrototyped, spFlags: 0)
!55 = !DISubroutineType(types: !56)
!56 = !{!35, !35, !36, !39}
!57 = !DIImportedEntity(tag: DW_TAG_imported_declaration, scope: !30, entity: !58, file: !42, line: 79)
!58 = !DISubprogram(name: "memset", scope: !32, file: !32, line: 60, type: !59, flags: DIFlagPrototyped, spFlags: 0)
!59 = !DISubroutineType(types: !60)
!60 = !{!35, !35, !38, !39}
!61 = !DIImportedEntity(tag: DW_TAG_imported_declaration, scope: !30, entity: !62, file: !42, line: 80)
!62 = !DISubprogram(name: "strcat", scope: !32, file: !32, line: 129, type: !63, flags: DIFlagPrototyped, spFlags: 0)
!63 = !DISubroutineType(types: !64)
!64 = !{!65, !67, !68}
!65 = !DIDerivedType(tag: DW_TAG_pointer_type, baseType: !66, size: 64)
!66 = !DIBasicType(name: "char", size: 8, encoding: DW_ATE_signed_char)
!67 = !DIDerivedType(tag: DW_TAG_restrict_type, baseType: !65)
!68 = !DIDerivedType(tag: DW_TAG_restrict_type, baseType: !69)
!69 = !DIDerivedType(tag: DW_TAG_pointer_type, baseType: !70, size: 64)
!70 = !DIDerivedType(tag: DW_TAG_const_type, baseType: !66)
!71 = !DIImportedEntity(tag: DW_TAG_imported_declaration, scope: !30, entity: !72, file: !42, line: 81)
!72 = !DISubprogram(name: "strcmp", scope: !32, file: !32, line: 136, type: !73, flags: DIFlagPrototyped, spFlags: 0)
!73 = !DISubroutineType(types: !74)
!74 = !{!38, !69, !69}
!75 = !DIImportedEntity(tag: DW_TAG_imported_declaration, scope: !30, entity: !76, file: !42, line: 82)
!76 = !DISubprogram(name: "strcoll", scope: !32, file: !32, line: 143, type: !73, flags: DIFlagPrototyped, spFlags: 0)
!77 = !DIImportedEntity(tag: DW_TAG_imported_declaration, scope: !30, entity: !78, file: !42, line: 83)
!78 = !DISubprogram(name: "strcpy", scope: !32, file: !32, line: 121, type: !63, flags: DIFlagPrototyped, spFlags: 0)
!79 = !DIImportedEntity(tag: DW_TAG_imported_declaration, scope: !30, entity: !80, file: !42, line: 84)
!80 = !DISubprogram(name: "strcspn", scope: !32, file: !32, line: 272, type: !81, flags: DIFlagPrototyped, spFlags: 0)
!81 = !DISubroutineType(types: !82)
!82 = !{!39, !69, !69}
!83 = !DIImportedEntity(tag: DW_TAG_imported_declaration, scope: !30, entity: !84, file: !42, line: 85)
!84 = !DISubprogram(name: "strerror", scope: !32, file: !32, line: 396, type: !85, flags: DIFlagPrototyped, spFlags: 0)
!85 = !DISubroutineType(types: !86)
!86 = !{!65, !38}
!87 = !DIImportedEntity(tag: DW_TAG_imported_declaration, scope: !30, entity: !88, file: !42, line: 86)
!88 = !DISubprogram(name: "strlen", scope: !32, file: !32, line: 384, type: !89, flags: DIFlagPrototyped, spFlags: 0)
!89 = !DISubroutineType(types: !90)
!90 = !{!39, !69}
!91 = !DIImportedEntity(tag: DW_TAG_imported_declaration, scope: !30, entity: !92, file: !42, line: 87)
!92 = !DISubprogram(name: "strncat", scope: !32, file: !32, line: 132, type: !93, flags: DIFlagPrototyped, spFlags: 0)
!93 = !DISubroutineType(types: !94)
!94 = !{!65, !67, !68, !39}
!95 = !DIImportedEntity(tag: DW_TAG_imported_declaration, scope: !30, entity: !96, file: !42, line: 88)
!96 = !DISubprogram(name: "strncmp", scope: !32, file: !32, line: 139, type: !97, flags: DIFlagPrototyped, spFlags: 0)
!97 = !DISubroutineType(types: !98)
!98 = !{!38, !69, !69, !39}
!99 = !DIImportedEntity(tag: DW_TAG_imported_declaration, scope: !30, entity: !100, file: !42, line: 89)
!100 = !DISubprogram(name: "strncpy", scope: !32, file: !32, line: 124, type: !93, flags: DIFlagPrototyped, spFlags: 0)
!101 = !DIImportedEntity(tag: DW_TAG_imported_declaration, scope: !30, entity: !102, file: !42, line: 90)
!102 = !DISubprogram(name: "strspn", scope: !32, file: !32, line: 276, type: !81, flags: DIFlagPrototyped, spFlags: 0)
!103 = !DIImportedEntity(tag: DW_TAG_imported_declaration, scope: !30, entity: !104, file: !42, line: 91)
!104 = !DISubprogram(name: "strtok", scope: !32, file: !32, line: 335, type: !63, flags: DIFlagPrototyped, spFlags: 0)
!105 = !DIImportedEntity(tag: DW_TAG_imported_declaration, scope: !30, entity: !106, file: !42, line: 92)
!106 = !DISubprogram(name: "strxfrm", scope: !32, file: !32, line: 146, type: !107, flags: DIFlagPrototyped, spFlags: 0)
!107 = !DISubroutineType(types: !108)
!108 = !{!39, !67, !68, !39}
!109 = !DIImportedEntity(tag: DW_TAG_imported_declaration, scope: !30, entity: !110, file: !42, line: 93)
!110 = !DISubprogram(name: "strchr", scope: !32, file: !32, line: 225, type: !111, flags: DIFlagPrototyped, spFlags: 0)
!111 = !DISubroutineType(types: !112)
!112 = !{!65, !69, !38}
!113 = !DIImportedEntity(tag: DW_TAG_imported_declaration, scope: !30, entity: !114, file: !42, line: 94)
!114 = !DISubprogram(name: "strpbrk", scope: !32, file: !32, line: 302, type: !115, flags: DIFlagPrototyped, spFlags: 0)
!115 = !DISubroutineType(types: !116)
!116 = !{!65, !69, !69}
!117 = !DIImportedEntity(tag: DW_TAG_imported_declaration, scope: !30, entity: !118, file: !42, line: 95)
!118 = !DISubprogram(name: "strrchr", scope: !32, file: !32, line: 252, type: !111, flags: DIFlagPrototyped, spFlags: 0)
!119 = !DIImportedEntity(tag: DW_TAG_imported_declaration, scope: !30, entity: !120, file: !42, line: 96)
!120 = !DISubprogram(name: "strstr", scope: !32, file: !32, line: 329, type: !115, flags: DIFlagPrototyped, spFlags: 0)
!121 = !DIImportedEntity(tag: DW_TAG_imported_module, scope: !2, entity: !30, file: !3, line: 5)
!122 = distinct !DICompileUnit(language: DW_LANG_C99, file: !123, producer: "clang version 9.0.0-2~ubuntu18.04.2 (tags/RELEASE_900/final)", isOptimized: false, runtimeVersion: 0, emissionKind: FullDebug, enums: !4, nameTableKind: None)
!123 = !DIFile(filename: "/tmp/klee_src/runtime/Freestanding/memcpy.c", directory: "/tmp/klee_build90stp_z3/runtime/Freestanding")
!124 = !{i32 2, !"Dwarf Version", i32 4}
!125 = !{i32 2, !"Debug Info Version", i32 3}
!126 = !{i32 1, !"wchar_size", i32 4}
!127 = !{!"clang version 9.0.0-2~ubuntu18.04.2 (tags/RELEASE_900/final)"}
!128 = distinct !DISubprogram(name: "transpose", linkageName: "_Z9transposePA3_jS0_", scope: !3, file: !3, line: 42, type: !129, scopeLine: 43, flags: DIFlagPrototyped, spFlags: DISPFlagDefinition, unit: !2, retainedNodes: !4)
!129 = !DISubroutineType(types: !130)
!130 = !{null, !131, !131}
!131 = !DIDerivedType(tag: DW_TAG_pointer_type, baseType: !132, size: 64)
!132 = !DICompositeType(tag: DW_TAG_array_type, baseType: !9, size: 96, elements: !133)
!133 = !{!16}
!134 = !DILocalVariable(name: "wgt_mem", arg: 1, scope: !128, file: !3, line: 42, type: !131)
!135 = !DILocation(line: 42, column: 29, scope: !128)
!136 = !DILocalVariable(name: "wgt_mem_prime", arg: 2, scope: !128, file: !3, line: 42, type: !131)
!137 = !DILocation(line: 42, column: 58, scope: !128)
!138 = !DILocalVariable(name: "i", scope: !128, file: !3, line: 44, type: !38)
!139 = !DILocation(line: 44, column: 9, scope: !128)
!140 = !DILocalVariable(name: "j", scope: !128, file: !3, line: 44, type: !38)
!141 = !DILocation(line: 44, column: 12, scope: !128)
!142 = !DILocation(line: 45, column: 12, scope: !143)
!143 = distinct !DILexicalBlock(scope: !128, file: !3, line: 45, column: 5)
!144 = !DILocation(line: 45, column: 10, scope: !143)
!145 = !DILocation(line: 45, column: 17, scope: !146)
!146 = distinct !DILexicalBlock(scope: !143, file: !3, line: 45, column: 5)
!147 = !DILocation(line: 45, column: 19, scope: !146)
!148 = !DILocation(line: 45, column: 5, scope: !143)
!149 = !DILocation(line: 46, column: 16, scope: !150)
!150 = distinct !DILexicalBlock(scope: !146, file: !3, line: 46, column: 9)
!151 = !DILocation(line: 46, column: 14, scope: !150)
!152 = !DILocation(line: 46, column: 21, scope: !153)
!153 = distinct !DILexicalBlock(scope: !150, file: !3, line: 46, column: 9)
!154 = !DILocation(line: 46, column: 23, scope: !153)
!155 = !DILocation(line: 46, column: 9, scope: !150)
!156 = !DILocation(line: 47, column: 35, scope: !153)
!157 = !DILocation(line: 47, column: 43, scope: !153)
!158 = !DILocation(line: 47, column: 46, scope: !153)
!159 = !DILocation(line: 47, column: 13, scope: !153)
!160 = !DILocation(line: 47, column: 27, scope: !153)
!161 = !DILocation(line: 47, column: 30, scope: !153)
!162 = !DILocation(line: 47, column: 33, scope: !153)
!163 = !DILocation(line: 46, column: 31, scope: !153)
!164 = !DILocation(line: 46, column: 9, scope: !153)
!165 = distinct !{!165, !155, !166}
!166 = !DILocation(line: 47, column: 47, scope: !150)
!167 = !DILocation(line: 45, column: 27, scope: !146)
!168 = !DILocation(line: 45, column: 5, scope: !146)
!169 = distinct !{!169, !148, !170}
!170 = !DILocation(line: 47, column: 47, scope: !143)
!171 = !DILocation(line: 48, column: 1, scope: !128)
!172 = distinct !DISubprogram(name: "matrixMultiply", linkageName: "_Z14matrixMultiplyPjS_", scope: !3, file: !3, line: 50, type: !173, scopeLine: 51, flags: DIFlagPrototyped, spFlags: DISPFlagDefinition, unit: !2, retainedNodes: !4)
!173 = !DISubroutineType(types: !174)
!174 = !{!27, !27, !27}
!175 = !DILocalVariable(name: "mat1", arg: 1, scope: !172, file: !3, line: 50, type: !27)
!176 = !DILocation(line: 50, column: 43, scope: !172)
!177 = !DILocalVariable(name: "mat2", arg: 2, scope: !172, file: !3, line: 50, type: !27)
!178 = !DILocation(line: 50, column: 64, scope: !172)
!179 = !DILocalVariable(name: "res", scope: !172, file: !3, line: 52, type: !9)
!180 = !DILocation(line: 52, column: 18, scope: !172)
!181 = !DILocalVariable(name: "i", scope: !182, file: !3, line: 53, type: !38)
!182 = distinct !DILexicalBlock(scope: !172, file: !3, line: 53, column: 5)
!183 = !DILocation(line: 53, column: 13, scope: !182)
!184 = !DILocation(line: 53, column: 9, scope: !182)
!185 = !DILocation(line: 53, column: 20, scope: !186)
!186 = distinct !DILexicalBlock(scope: !182, file: !3, line: 53, column: 5)
!187 = !DILocation(line: 53, column: 22, scope: !186)
!188 = !DILocation(line: 53, column: 5, scope: !182)
!189 = !DILocation(line: 55, column: 16, scope: !190)
!190 = distinct !DILexicalBlock(scope: !186, file: !3, line: 54, column: 5)
!191 = !DILocation(line: 55, column: 21, scope: !190)
!192 = !DILocation(line: 55, column: 26, scope: !190)
!193 = !DILocation(line: 55, column: 31, scope: !190)
!194 = !DILocation(line: 55, column: 24, scope: !190)
!195 = !DILocation(line: 55, column: 13, scope: !190)
!196 = !DILocation(line: 53, column: 28, scope: !186)
!197 = !DILocation(line: 53, column: 5, scope: !186)
!198 = distinct !{!198, !188, !199}
!199 = !DILocation(line: 56, column: 5, scope: !182)
!200 = !DILocation(line: 57, column: 25, scope: !172)
!201 = !DILocation(line: 57, column: 12, scope: !172)
!202 = !DILocation(line: 57, column: 5, scope: !172)
!203 = !DILocation(line: 57, column: 23, scope: !172)
!204 = !DILocation(line: 58, column: 14, scope: !172)
!205 = !DILocation(line: 59, column: 5, scope: !172)
!206 = distinct !DISubprogram(name: "mulMat", linkageName: "_Z6mulMatPA3_jS0_S0_", scope: !3, file: !3, line: 62, type: !207, scopeLine: 62, flags: DIFlagPrototyped, spFlags: DISPFlagDefinition, unit: !2, retainedNodes: !4)
!207 = !DISubroutineType(types: !208)
!208 = !{!27, !131, !131, !131}
!209 = !DILocalVariable(name: "mat1", arg: 1, scope: !206, file: !3, line: 62, type: !131)
!210 = !DILocation(line: 62, column: 35, scope: !206)
!211 = !DILocalVariable(name: "mat2", arg: 2, scope: !206, file: !3, line: 62, type: !131)
!212 = !DILocation(line: 62, column: 61, scope: !206)
!213 = !DILocalVariable(name: "res", arg: 3, scope: !206, file: !3, line: 62, type: !131)
!214 = !DILocation(line: 62, column: 87, scope: !206)
!215 = !DILocalVariable(name: "i", scope: !216, file: !3, line: 63, type: !38)
!216 = distinct !DILexicalBlock(scope: !206, file: !3, line: 63, column: 5)
!217 = !DILocation(line: 63, column: 14, scope: !216)
!218 = !DILocation(line: 63, column: 10, scope: !216)
!219 = !DILocation(line: 63, column: 21, scope: !220)
!220 = distinct !DILexicalBlock(scope: !216, file: !3, line: 63, column: 5)
!221 = !DILocation(line: 63, column: 23, scope: !220)
!222 = !DILocation(line: 63, column: 5, scope: !216)
!223 = !DILocalVariable(name: "j", scope: !224, file: !3, line: 64, type: !38)
!224 = distinct !DILexicalBlock(scope: !225, file: !3, line: 64, column: 9)
!225 = distinct !DILexicalBlock(scope: !220, file: !3, line: 63, column: 35)
!226 = !DILocation(line: 64, column: 18, scope: !224)
!227 = !DILocation(line: 64, column: 14, scope: !224)
!228 = !DILocation(line: 64, column: 25, scope: !229)
!229 = distinct !DILexicalBlock(scope: !224, file: !3, line: 64, column: 9)
!230 = !DILocation(line: 64, column: 27, scope: !229)
!231 = !DILocation(line: 64, column: 9, scope: !224)
!232 = !DILocalVariable(name: "k", scope: !233, file: !3, line: 65, type: !38)
!233 = distinct !DILexicalBlock(scope: !234, file: !3, line: 65, column: 13)
!234 = distinct !DILexicalBlock(scope: !229, file: !3, line: 64, column: 39)
!235 = !DILocation(line: 65, column: 22, scope: !233)
!236 = !DILocation(line: 65, column: 18, scope: !233)
!237 = !DILocation(line: 65, column: 29, scope: !238)
!238 = distinct !DILexicalBlock(scope: !233, file: !3, line: 65, column: 13)
!239 = !DILocation(line: 65, column: 31, scope: !238)
!240 = !DILocation(line: 65, column: 13, scope: !233)
!241 = !DILocation(line: 66, column: 42, scope: !242)
!242 = distinct !DILexicalBlock(scope: !238, file: !3, line: 65, column: 43)
!243 = !DILocation(line: 66, column: 34, scope: !242)
!244 = !DILocation(line: 66, column: 45, scope: !242)
!245 = !DILocation(line: 66, column: 58, scope: !242)
!246 = !DILocation(line: 66, column: 50, scope: !242)
!247 = !DILocation(line: 66, column: 61, scope: !242)
!248 = !DILocation(line: 66, column: 48, scope: !242)
!249 = !DILocation(line: 66, column: 25, scope: !242)
!250 = !DILocation(line: 66, column: 17, scope: !242)
!251 = !DILocation(line: 66, column: 28, scope: !242)
!252 = !DILocation(line: 66, column: 31, scope: !242)
!253 = !DILocation(line: 65, column: 39, scope: !238)
!254 = !DILocation(line: 65, column: 13, scope: !238)
!255 = distinct !{!255, !240, !256}
!256 = !DILocation(line: 67, column: 13, scope: !233)
!257 = !DILocation(line: 64, column: 35, scope: !229)
!258 = !DILocation(line: 64, column: 9, scope: !229)
!259 = distinct !{!259, !231, !260}
!260 = !DILocation(line: 68, column: 9, scope: !224)
!261 = !DILocation(line: 63, column: 31, scope: !220)
!262 = !DILocation(line: 63, column: 5, scope: !220)
!263 = distinct !{!263, !222, !264}
!264 = !DILocation(line: 69, column: 5, scope: !216)
!265 = !DILocalVariable(name: "i", scope: !266, file: !3, line: 70, type: !38)
!266 = distinct !DILexicalBlock(scope: !206, file: !3, line: 70, column: 5)
!267 = !DILocation(line: 70, column: 13, scope: !266)
!268 = !DILocation(line: 70, column: 9, scope: !266)
!269 = !DILocation(line: 70, column: 18, scope: !270)
!270 = distinct !DILexicalBlock(scope: !266, file: !3, line: 70, column: 5)
!271 = !DILocation(line: 70, column: 19, scope: !270)
!272 = !DILocation(line: 70, column: 5, scope: !266)
!273 = !DILocalVariable(name: "j", scope: !274, file: !3, line: 71, type: !38)
!274 = distinct !DILexicalBlock(scope: !275, file: !3, line: 71, column: 9)
!275 = distinct !DILexicalBlock(scope: !270, file: !3, line: 70, column: 28)
!276 = !DILocation(line: 71, column: 17, scope: !274)
!277 = !DILocation(line: 71, column: 13, scope: !274)
!278 = !DILocation(line: 71, column: 21, scope: !279)
!279 = distinct !DILexicalBlock(scope: !274, file: !3, line: 71, column: 9)
!280 = !DILocation(line: 71, column: 22, scope: !279)
!281 = !DILocation(line: 0, scope: !270)
!282 = !DILocation(line: 71, column: 9, scope: !274)
!283 = !DILocation(line: 72, column: 37, scope: !284)
!284 = distinct !DILexicalBlock(scope: !279, file: !3, line: 71, column: 31)
!285 = !DILocation(line: 72, column: 48, scope: !284)
!286 = !DILocation(line: 72, column: 26, scope: !284)
!287 = !DILocation(line: 72, column: 27, scope: !284)
!288 = !DILocation(line: 72, column: 32, scope: !284)
!289 = !DILocation(line: 72, column: 31, scope: !284)
!290 = !DILocation(line: 72, column: 13, scope: !284)
!291 = !DILocation(line: 72, column: 35, scope: !284)
!292 = !DILocation(line: 71, column: 28, scope: !279)
!293 = !DILocation(line: 71, column: 9, scope: !279)
!294 = distinct !{!294, !282, !295}
!295 = !DILocation(line: 73, column: 9, scope: !274)
!296 = !DILocation(line: 70, column: 25, scope: !270)
!297 = !DILocation(line: 70, column: 5, scope: !270)
!298 = distinct !{!298, !272, !299}
!299 = !DILocation(line: 74, column: 5, scope: !266)
!300 = !DILocation(line: 75, column: 5, scope: !206)
!301 = distinct !DISubprogram(name: "micro_decoder", linkageName: "_Z13micro_decoder5INSTR", scope: !3, file: !3, line: 78, type: !302, scopeLine: 79, flags: DIFlagPrototyped, spFlags: DISPFlagDefinition, unit: !2, retainedNodes: !4)
!302 = !DISubroutineType(types: !303)
!303 = !{!27, !304}
!304 = distinct !DICompositeType(tag: DW_TAG_structure_type, name: "INSTR", file: !305, line: 17, size: 320, flags: DIFlagTypePassByValue, elements: !306, identifier: "_ZTS5INSTR")
!305 = !DIFile(filename: "./gemm_var.h", directory: "/home/klee/klee_src/examples/isra")
!306 = !{!307, !308, !309, !310}
!307 = !DIDerivedType(tag: DW_TAG_member, name: "ID", scope: !304, file: !305, line: 18, baseType: !9, size: 32)
!308 = !DIDerivedType(tag: DW_TAG_member, name: "OPCODE", scope: !304, file: !305, line: 19, baseType: !9, size: 32, offset: 32)
!309 = !DIDerivedType(tag: DW_TAG_member, name: "OPTYPE", scope: !304, file: !305, line: 20, baseType: !9, size: 32, offset: 64)
!310 = !DIDerivedType(tag: DW_TAG_member, name: "OPERANDS", scope: !304, file: !305, line: 21, baseType: !311, size: 192, offset: 128)
!311 = distinct !DICompositeType(tag: DW_TAG_structure_type, name: "GEMM_STRUCT_REF", file: !305, line: 5, size: 192, flags: DIFlagTypePassByValue, elements: !312, identifier: "_ZTS15GEMM_STRUCT_REF")
!312 = !{!313, !314, !315}
!313 = !DIDerivedType(tag: DW_TAG_member, name: "inp_mem", scope: !311, file: !305, line: 6, baseType: !27, size: 64)
!314 = !DIDerivedType(tag: DW_TAG_member, name: "wgt_mem", scope: !311, file: !305, line: 7, baseType: !27, size: 64, offset: 64)
!315 = !DIDerivedType(tag: DW_TAG_member, name: "acc_mem", scope: !311, file: !305, line: 8, baseType: !27, size: 64, offset: 128)
!316 = !DILocalVariable(name: "instr", arg: 1, scope: !301, file: !3, line: 78, type: !304)
!317 = !DILocation(line: 78, column: 35, scope: !301)
!318 = !DILocalVariable(name: "inp", scope: !301, file: !3, line: 80, type: !132)
!319 = !DILocation(line: 80, column: 18, scope: !301)
!320 = !DILocalVariable(name: "wgt", scope: !301, file: !3, line: 80, type: !132)
!321 = !DILocation(line: 80, column: 26, scope: !301)
!322 = !DILocalVariable(name: "i", scope: !323, file: !3, line: 81, type: !38)
!323 = distinct !DILexicalBlock(scope: !301, file: !3, line: 81, column: 5)
!324 = !DILocation(line: 81, column: 14, scope: !323)
!325 = !DILocation(line: 81, column: 10, scope: !323)
!326 = !DILocation(line: 81, column: 18, scope: !327)
!327 = distinct !DILexicalBlock(scope: !323, file: !3, line: 81, column: 5)
!328 = !DILocation(line: 81, column: 19, scope: !327)
!329 = !DILocation(line: 81, column: 5, scope: !323)
!330 = !DILocation(line: 82, column: 26, scope: !331)
!331 = distinct !DILexicalBlock(scope: !327, file: !3, line: 81, column: 26)
!332 = !DILocation(line: 82, column: 35, scope: !331)
!333 = !DILocation(line: 82, column: 43, scope: !331)
!334 = !DILocation(line: 82, column: 42, scope: !331)
!335 = !DILocation(line: 82, column: 18, scope: !331)
!336 = !DILocation(line: 82, column: 13, scope: !331)
!337 = !DILocation(line: 82, column: 9, scope: !331)
!338 = !DILocation(line: 82, column: 16, scope: !331)
!339 = !DILocation(line: 81, column: 23, scope: !327)
!340 = !DILocation(line: 81, column: 5, scope: !327)
!341 = distinct !{!341, !329, !342}
!342 = !DILocation(line: 83, column: 5, scope: !323)
!343 = !DILocalVariable(name: "i", scope: !344, file: !3, line: 84, type: !38)
!344 = distinct !DILexicalBlock(scope: !301, file: !3, line: 84, column: 5)
!345 = !DILocation(line: 84, column: 14, scope: !344)
!346 = !DILocation(line: 84, column: 10, scope: !344)
!347 = !DILocation(line: 84, column: 18, scope: !348)
!348 = distinct !DILexicalBlock(scope: !344, file: !3, line: 84, column: 5)
!349 = !DILocation(line: 84, column: 19, scope: !348)
!350 = !DILocation(line: 84, column: 5, scope: !344)
!351 = !DILocation(line: 85, column: 26, scope: !352)
!352 = distinct !DILexicalBlock(scope: !348, file: !3, line: 84, column: 26)
!353 = !DILocation(line: 85, column: 35, scope: !352)
!354 = !DILocation(line: 85, column: 43, scope: !352)
!355 = !DILocation(line: 85, column: 42, scope: !352)
!356 = !DILocation(line: 85, column: 18, scope: !352)
!357 = !DILocation(line: 85, column: 13, scope: !352)
!358 = !DILocation(line: 85, column: 9, scope: !352)
!359 = !DILocation(line: 85, column: 16, scope: !352)
!360 = !DILocation(line: 84, column: 23, scope: !348)
!361 = !DILocation(line: 84, column: 5, scope: !348)
!362 = distinct !{!362, !350, !363}
!363 = !DILocation(line: 86, column: 5, scope: !344)
!364 = !DILocalVariable(name: "arr", scope: !301, file: !3, line: 87, type: !27)
!365 = !DILocation(line: 87, column: 20, scope: !301)
!366 = !DILocation(line: 87, column: 41, scope: !301)
!367 = !DILocation(line: 87, column: 45, scope: !301)
!368 = !DILocation(line: 87, column: 26, scope: !301)
!369 = !DILocation(line: 88, column: 12, scope: !301)
!370 = !DILocation(line: 88, column: 5, scope: !301)
!371 = distinct !DISubprogram(name: "micro_decoder_val", linkageName: "_Z17micro_decoder_val9INSTR_VAL", scope: !3, file: !3, line: 91, type: !372, scopeLine: 92, flags: DIFlagPrototyped, spFlags: DISPFlagDefinition, unit: !2, retainedNodes: !4)
!372 = !DISubroutineType(types: !373)
!373 = !{!27, !374}
!374 = distinct !DICompositeType(tag: DW_TAG_structure_type, name: "INSTR_VAL", file: !305, line: 24, size: 192, flags: DIFlagTypePassByValue, elements: !375, identifier: "_ZTS9INSTR_VAL")
!375 = !{!376, !377, !378, !379}
!376 = !DIDerivedType(tag: DW_TAG_member, name: "ID", scope: !374, file: !305, line: 25, baseType: !9, size: 32)
!377 = !DIDerivedType(tag: DW_TAG_member, name: "OPCODE", scope: !374, file: !305, line: 26, baseType: !9, size: 32, offset: 32)
!378 = !DIDerivedType(tag: DW_TAG_member, name: "OPTYPE", scope: !374, file: !305, line: 27, baseType: !9, size: 32, offset: 64)
!379 = !DIDerivedType(tag: DW_TAG_member, name: "OPERANDS", scope: !374, file: !305, line: 28, baseType: !380, size: 96, offset: 96)
!380 = distinct !DICompositeType(tag: DW_TAG_structure_type, name: "GEMM_STRUCT_VAL", file: !305, line: 11, size: 96, flags: DIFlagTypePassByValue, elements: !381, identifier: "_ZTS15GEMM_STRUCT_VAL")
!381 = !{!382, !383, !384}
!382 = !DIDerivedType(tag: DW_TAG_member, name: "inp_mem", scope: !380, file: !305, line: 12, baseType: !9, size: 32)
!383 = !DIDerivedType(tag: DW_TAG_member, name: "wgt_mem", scope: !380, file: !305, line: 13, baseType: !9, size: 32, offset: 32)
!384 = !DIDerivedType(tag: DW_TAG_member, name: "acc_mem", scope: !380, file: !305, line: 14, baseType: !9, size: 32, offset: 64)
!385 = !DILocalVariable(name: "instr", arg: 1, scope: !371, file: !3, line: 91, type: !374)
!386 = !DILocation(line: 91, column: 43, scope: !371)
!387 = !DILocalVariable(name: "inp", scope: !371, file: !3, line: 93, type: !132)
!388 = !DILocation(line: 93, column: 18, scope: !371)
!389 = !DILocalVariable(name: "wgt", scope: !371, file: !3, line: 93, type: !132)
!390 = !DILocation(line: 93, column: 26, scope: !371)
!391 = !DILocalVariable(name: "i", scope: !392, file: !3, line: 94, type: !38)
!392 = distinct !DILexicalBlock(scope: !371, file: !3, line: 94, column: 5)
!393 = !DILocation(line: 94, column: 14, scope: !392)
!394 = !DILocation(line: 94, column: 10, scope: !392)
!395 = !DILocation(line: 94, column: 18, scope: !396)
!396 = distinct !DILexicalBlock(scope: !392, file: !3, line: 94, column: 5)
!397 = !DILocation(line: 94, column: 19, scope: !396)
!398 = !DILocation(line: 94, column: 5, scope: !392)
!399 = !DILocation(line: 95, column: 24, scope: !400)
!400 = distinct !DILexicalBlock(scope: !396, file: !3, line: 94, column: 26)
!401 = !DILocation(line: 95, column: 33, scope: !400)
!402 = !DILocation(line: 95, column: 41, scope: !400)
!403 = !DILocation(line: 95, column: 40, scope: !400)
!404 = !DILocation(line: 95, column: 13, scope: !400)
!405 = !DILocation(line: 95, column: 9, scope: !400)
!406 = !DILocation(line: 95, column: 16, scope: !400)
!407 = !DILocation(line: 94, column: 23, scope: !396)
!408 = !DILocation(line: 94, column: 5, scope: !396)
!409 = distinct !{!409, !398, !410}
!410 = !DILocation(line: 96, column: 5, scope: !392)
!411 = !DILocalVariable(name: "i", scope: !412, file: !3, line: 97, type: !38)
!412 = distinct !DILexicalBlock(scope: !371, file: !3, line: 97, column: 5)
!413 = !DILocation(line: 97, column: 14, scope: !412)
!414 = !DILocation(line: 97, column: 10, scope: !412)
!415 = !DILocation(line: 97, column: 18, scope: !416)
!416 = distinct !DILexicalBlock(scope: !412, file: !3, line: 97, column: 5)
!417 = !DILocation(line: 97, column: 19, scope: !416)
!418 = !DILocation(line: 97, column: 5, scope: !412)
!419 = !DILocation(line: 98, column: 24, scope: !420)
!420 = distinct !DILexicalBlock(scope: !416, file: !3, line: 97, column: 26)
!421 = !DILocation(line: 98, column: 33, scope: !420)
!422 = !DILocation(line: 98, column: 13, scope: !420)
!423 = !DILocation(line: 98, column: 9, scope: !420)
!424 = !DILocation(line: 98, column: 16, scope: !420)
!425 = !DILocation(line: 97, column: 23, scope: !416)
!426 = !DILocation(line: 97, column: 5, scope: !416)
!427 = distinct !{!427, !418, !428}
!428 = !DILocation(line: 99, column: 5, scope: !412)
!429 = !DILocalVariable(name: "arr", scope: !371, file: !3, line: 100, type: !27)
!430 = !DILocation(line: 100, column: 20, scope: !371)
!431 = !DILocation(line: 100, column: 41, scope: !371)
!432 = !DILocation(line: 100, column: 45, scope: !371)
!433 = !DILocation(line: 100, column: 26, scope: !371)
!434 = !DILocation(line: 101, column: 12, scope: !371)
!435 = !DILocation(line: 101, column: 5, scope: !371)
!436 = distinct !DISubprogram(name: "main", scope: !3, file: !3, line: 108, type: !437, scopeLine: 108, flags: DIFlagPrototyped, spFlags: DISPFlagDefinition, unit: !2, retainedNodes: !4)
!437 = !DISubroutineType(types: !438)
!438 = !{!38, !38, !439}
!439 = !DIDerivedType(tag: DW_TAG_pointer_type, baseType: !69, size: 64)
!440 = !DILocalVariable(name: "argc", arg: 1, scope: !436, file: !3, line: 108, type: !38)
!441 = !DILocation(line: 108, column: 14, scope: !436)
!442 = !DILocalVariable(name: "argv", arg: 2, scope: !436, file: !3, line: 108, type: !439)
!443 = !DILocation(line: 108, column: 32, scope: !436)
!444 = !DILocalVariable(name: "inp_mem_row0", scope: !436, file: !3, line: 110, type: !132)
!445 = !DILocation(line: 110, column: 18, scope: !436)
!446 = !DILocalVariable(name: "inp_mem_row1", scope: !436, file: !3, line: 110, type: !132)
!447 = !DILocation(line: 110, column: 37, scope: !436)
!448 = !DILocalVariable(name: "inp_mem_row2", scope: !436, file: !3, line: 110, type: !132)
!449 = !DILocation(line: 110, column: 56, scope: !436)
!450 = !DILocalVariable(name: "wgt_mem_row0", scope: !436, file: !3, line: 111, type: !132)
!451 = !DILocation(line: 111, column: 18, scope: !436)
!452 = !DILocalVariable(name: "wgt_mem_row1", scope: !436, file: !3, line: 111, type: !132)
!453 = !DILocation(line: 111, column: 37, scope: !436)
!454 = !DILocalVariable(name: "wgt_mem_row2", scope: !436, file: !3, line: 111, type: !132)
!455 = !DILocation(line: 111, column: 56, scope: !436)
!456 = !DILocalVariable(name: "acc_mem_row0", scope: !436, file: !3, line: 112, type: !132)
!457 = !DILocation(line: 112, column: 18, scope: !436)
!458 = !DILocalVariable(name: "acc_mem_row1", scope: !436, file: !3, line: 112, type: !132)
!459 = !DILocation(line: 112, column: 37, scope: !436)
!460 = !DILocalVariable(name: "acc_mem_row2", scope: !436, file: !3, line: 112, type: !132)
!461 = !DILocation(line: 112, column: 56, scope: !436)
!462 = !DILocalVariable(name: "acc_mem_ref", scope: !436, file: !3, line: 113, type: !27)
!463 = !DILocation(line: 113, column: 20, scope: !436)
!464 = !DILocalVariable(name: "acc_mem_val", scope: !436, file: !3, line: 114, type: !27)
!465 = !DILocation(line: 114, column: 20, scope: !436)
!466 = !DILocalVariable(name: "opcode", scope: !436, file: !3, line: 115, type: !9)
!467 = !DILocation(line: 115, column: 18, scope: !436)
!468 = !DILocalVariable(name: "op_type", scope: !436, file: !3, line: 115, type: !9)
!469 = !DILocation(line: 115, column: 25, scope: !436)
!470 = !DILocation(line: 116, column: 5, scope: !436)
!471 = !DILocation(line: 118, column: 5, scope: !436)
!472 = !DILocation(line: 119, column: 5, scope: !436)
!473 = !DILocation(line: 120, column: 5, scope: !436)
!474 = !DILocation(line: 121, column: 5, scope: !436)
!475 = !DILocation(line: 122, column: 5, scope: !436)
!476 = !DILocation(line: 123, column: 5, scope: !436)
!477 = !DILocation(line: 124, column: 5, scope: !436)
!478 = !DILocation(line: 125, column: 5, scope: !436)
!479 = !DILocation(line: 126, column: 5, scope: !436)
!480 = !DILocation(line: 127, column: 24, scope: !436)
!481 = !DILocation(line: 127, column: 5, scope: !436)
!482 = !DILocation(line: 128, column: 24, scope: !436)
!483 = !DILocation(line: 128, column: 5, scope: !436)
!484 = !DILocalVariable(name: "gemm_instr", scope: !436, file: !3, line: 130, type: !311)
!485 = !DILocation(line: 130, column: 21, scope: !436)
!486 = !DILocalVariable(name: "instruction", scope: !436, file: !3, line: 131, type: !304)
!487 = !DILocation(line: 131, column: 11, scope: !436)
!488 = !DILocation(line: 131, column: 25, scope: !436)
!489 = !DILocation(line: 131, column: 32, scope: !436)
!490 = !DILocalVariable(name: "gemm_uop", scope: !436, file: !3, line: 134, type: !491)
!491 = !DICompositeType(tag: DW_TAG_array_type, baseType: !311, size: 1728, elements: !10)
!492 = !DILocation(line: 134, column: 21, scope: !436)
!493 = !DILocation(line: 134, column: 35, scope: !436)
!494 = !DILocation(line: 134, column: 36, scope: !436)
!495 = !DILocation(line: 134, column: 38, scope: !436)
!496 = !DILocation(line: 134, column: 55, scope: !436)
!497 = !DILocation(line: 134, column: 72, scope: !436)
!498 = !DILocation(line: 134, column: 89, scope: !436)
!499 = !DILocation(line: 134, column: 91, scope: !436)
!500 = !DILocation(line: 134, column: 108, scope: !436)
!501 = !DILocation(line: 134, column: 125, scope: !436)
!502 = !DILocation(line: 135, column: 36, scope: !436)
!503 = !DILocation(line: 135, column: 38, scope: !436)
!504 = !DILocation(line: 135, column: 55, scope: !436)
!505 = !DILocation(line: 135, column: 72, scope: !436)
!506 = !DILocation(line: 135, column: 89, scope: !436)
!507 = !DILocation(line: 135, column: 91, scope: !436)
!508 = !DILocation(line: 135, column: 108, scope: !436)
!509 = !DILocation(line: 135, column: 125, scope: !436)
!510 = !DILocation(line: 136, column: 36, scope: !436)
!511 = !DILocation(line: 136, column: 38, scope: !436)
!512 = !DILocation(line: 136, column: 55, scope: !436)
!513 = !DILocation(line: 136, column: 72, scope: !436)
!514 = !DILocation(line: 136, column: 89, scope: !436)
!515 = !DILocation(line: 136, column: 91, scope: !436)
!516 = !DILocation(line: 136, column: 108, scope: !436)
!517 = !DILocation(line: 136, column: 125, scope: !436)
!518 = !DILocation(line: 137, column: 36, scope: !436)
!519 = !DILocation(line: 137, column: 38, scope: !436)
!520 = !DILocation(line: 137, column: 55, scope: !436)
!521 = !DILocation(line: 137, column: 72, scope: !436)
!522 = !DILocation(line: 137, column: 89, scope: !436)
!523 = !DILocation(line: 137, column: 91, scope: !436)
!524 = !DILocation(line: 137, column: 108, scope: !436)
!525 = !DILocation(line: 137, column: 125, scope: !436)
!526 = !DILocation(line: 138, column: 36, scope: !436)
!527 = !DILocation(line: 138, column: 38, scope: !436)
!528 = !DILocation(line: 138, column: 55, scope: !436)
!529 = !DILocation(line: 138, column: 72, scope: !436)
!530 = !DILocalVariable(name: "gemm", scope: !436, file: !3, line: 141, type: !531)
!531 = !DICompositeType(tag: DW_TAG_array_type, baseType: !380, size: 864, elements: !10)
!532 = !DILocation(line: 141, column: 21, scope: !436)
!533 = !DILocation(line: 141, column: 31, scope: !436)
!534 = !DILocation(line: 141, column: 32, scope: !436)
!535 = !DILocation(line: 141, column: 33, scope: !436)
!536 = !DILocation(line: 141, column: 49, scope: !436)
!537 = !DILocation(line: 141, column: 65, scope: !436)
!538 = !DILocation(line: 141, column: 82, scope: !436)
!539 = !DILocation(line: 141, column: 83, scope: !436)
!540 = !DILocation(line: 141, column: 99, scope: !436)
!541 = !DILocation(line: 141, column: 115, scope: !436)
!542 = !DILocation(line: 142, column: 32, scope: !436)
!543 = !DILocation(line: 142, column: 33, scope: !436)
!544 = !DILocation(line: 142, column: 49, scope: !436)
!545 = !DILocation(line: 142, column: 65, scope: !436)
!546 = !DILocation(line: 142, column: 82, scope: !436)
!547 = !DILocation(line: 142, column: 83, scope: !436)
!548 = !DILocation(line: 142, column: 99, scope: !436)
!549 = !DILocation(line: 142, column: 115, scope: !436)
!550 = !DILocation(line: 143, column: 32, scope: !436)
!551 = !DILocation(line: 143, column: 33, scope: !436)
!552 = !DILocation(line: 143, column: 49, scope: !436)
!553 = !DILocation(line: 143, column: 65, scope: !436)
!554 = !DILocation(line: 143, column: 82, scope: !436)
!555 = !DILocation(line: 143, column: 83, scope: !436)
!556 = !DILocation(line: 143, column: 99, scope: !436)
!557 = !DILocation(line: 143, column: 115, scope: !436)
!558 = !DILocation(line: 144, column: 32, scope: !436)
!559 = !DILocation(line: 144, column: 33, scope: !436)
!560 = !DILocation(line: 144, column: 49, scope: !436)
!561 = !DILocation(line: 144, column: 65, scope: !436)
!562 = !DILocation(line: 144, column: 82, scope: !436)
!563 = !DILocation(line: 144, column: 83, scope: !436)
!564 = !DILocation(line: 144, column: 99, scope: !436)
!565 = !DILocation(line: 144, column: 115, scope: !436)
!566 = !DILocation(line: 145, column: 32, scope: !436)
!567 = !DILocation(line: 145, column: 33, scope: !436)
!568 = !DILocation(line: 145, column: 49, scope: !436)
!569 = !DILocation(line: 145, column: 65, scope: !436)
!570 = !DILocalVariable(name: "microop", scope: !436, file: !3, line: 149, type: !571)
!571 = !DICompositeType(tag: DW_TAG_array_type, baseType: !304, size: 2880, elements: !10)
!572 = !DILocation(line: 149, column: 11, scope: !436)
!573 = !DILocation(line: 149, column: 24, scope: !436)
!574 = !DILocation(line: 149, column: 25, scope: !436)
!575 = !DILocation(line: 149, column: 32, scope: !436)
!576 = !DILocation(line: 149, column: 45, scope: !436)
!577 = !DILocation(line: 149, column: 52, scope: !436)
!578 = !DILocation(line: 149, column: 65, scope: !436)
!579 = !DILocation(line: 149, column: 72, scope: !436)
!580 = !DILocation(line: 149, column: 85, scope: !436)
!581 = !DILocation(line: 149, column: 92, scope: !436)
!582 = !DILocation(line: 150, column: 25, scope: !436)
!583 = !DILocation(line: 150, column: 32, scope: !436)
!584 = !DILocation(line: 150, column: 46, scope: !436)
!585 = !DILocation(line: 150, column: 53, scope: !436)
!586 = !DILocation(line: 150, column: 66, scope: !436)
!587 = !DILocation(line: 150, column: 73, scope: !436)
!588 = !DILocation(line: 150, column: 86, scope: !436)
!589 = !DILocation(line: 150, column: 93, scope: !436)
!590 = !DILocation(line: 150, column: 106, scope: !436)
!591 = !DILocation(line: 150, column: 113, scope: !436)
!592 = !DILocalVariable(name: "microop_val", scope: !436, file: !3, line: 152, type: !593)
!593 = !DICompositeType(tag: DW_TAG_array_type, baseType: !374, size: 1728, elements: !10)
!594 = !DILocation(line: 152, column: 15, scope: !436)
!595 = !DILocation(line: 152, column: 32, scope: !436)
!596 = !DILocation(line: 152, column: 33, scope: !436)
!597 = !DILocation(line: 152, column: 40, scope: !436)
!598 = !DILocation(line: 152, column: 49, scope: !436)
!599 = !DILocation(line: 152, column: 56, scope: !436)
!600 = !DILocation(line: 152, column: 65, scope: !436)
!601 = !DILocation(line: 152, column: 72, scope: !436)
!602 = !DILocation(line: 152, column: 81, scope: !436)
!603 = !DILocation(line: 152, column: 88, scope: !436)
!604 = !DILocation(line: 153, column: 33, scope: !436)
!605 = !DILocation(line: 153, column: 40, scope: !436)
!606 = !DILocation(line: 153, column: 50, scope: !436)
!607 = !DILocation(line: 153, column: 57, scope: !436)
!608 = !DILocation(line: 153, column: 66, scope: !436)
!609 = !DILocation(line: 153, column: 73, scope: !436)
!610 = !DILocation(line: 153, column: 82, scope: !436)
!611 = !DILocation(line: 153, column: 89, scope: !436)
!612 = !DILocation(line: 153, column: 98, scope: !436)
!613 = !DILocation(line: 153, column: 105, scope: !436)
!614 = !DILocation(line: 155, column: 20, scope: !436)
!615 = !DILocation(line: 155, column: 18, scope: !436)
!616 = !DILocation(line: 157, column: 10, scope: !617)
!617 = distinct !DILexicalBlock(scope: !436, file: !3, line: 157, column: 9)
!618 = !DILocation(line: 157, column: 17, scope: !617)
!619 = !DILocation(line: 157, column: 27, scope: !617)
!620 = !DILocation(line: 157, column: 35, scope: !617)
!621 = !DILocation(line: 157, column: 22, scope: !617)
!622 = !DILocation(line: 157, column: 45, scope: !617)
!623 = !DILocation(line: 157, column: 52, scope: !617)
!624 = !DILocalVariable(name: "i", scope: !625, file: !3, line: 158, type: !38)
!625 = distinct !DILexicalBlock(scope: !626, file: !3, line: 158, column: 9)
!626 = distinct !DILexicalBlock(scope: !617, file: !3, line: 157, column: 58)
!627 = !DILocation(line: 158, column: 18, scope: !625)
!628 = !DILocation(line: 158, column: 14, scope: !625)
!629 = !DILocation(line: 158, column: 22, scope: !630)
!630 = distinct !DILexicalBlock(scope: !625, file: !3, line: 158, column: 9)
!631 = !DILocation(line: 158, column: 23, scope: !630)
!632 = !DILocation(line: 158, column: 9, scope: !625)
!633 = !DILocation(line: 159, column: 45, scope: !634)
!634 = distinct !DILexicalBlock(scope: !630, file: !3, line: 158, column: 30)
!635 = !DILocation(line: 159, column: 37, scope: !634)
!636 = !DILocation(line: 159, column: 23, scope: !634)
!637 = !DILocation(line: 159, column: 21, scope: !634)
!638 = !DILocation(line: 158, column: 27, scope: !630)
!639 = !DILocation(line: 158, column: 9, scope: !630)
!640 = distinct !{!640, !632, !641}
!641 = !DILocation(line: 161, column: 5, scope: !625)
!642 = !DILocation(line: 177, column: 5, scope: !436)
!643 = distinct !DISubprogram(name: "memcpy", scope: !644, file: !644, line: 12, type: !55, scopeLine: 12, flags: DIFlagPrototyped, spFlags: DISPFlagDefinition, unit: !122, retainedNodes: !4)
!644 = !DIFile(filename: "klee_src/runtime/Freestanding/memcpy.c", directory: "/tmp")
!645 = !DILocalVariable(name: "destaddr", arg: 1, scope: !643, file: !644, line: 12, type: !35)
!646 = !DILocation(line: 12, column: 20, scope: !643)
!647 = !DILocalVariable(name: "srcaddr", arg: 2, scope: !643, file: !644, line: 12, type: !36)
!648 = !DILocation(line: 12, column: 42, scope: !643)
!649 = !DILocalVariable(name: "len", arg: 3, scope: !643, file: !644, line: 12, type: !39)
!650 = !DILocation(line: 12, column: 58, scope: !643)
!651 = !DILocalVariable(name: "dest", scope: !643, file: !644, line: 13, type: !65)
!652 = !DILocation(line: 13, column: 9, scope: !643)
!653 = !DILocation(line: 13, column: 16, scope: !643)
!654 = !DILocalVariable(name: "src", scope: !643, file: !644, line: 14, type: !69)
!655 = !DILocation(line: 14, column: 15, scope: !643)
!656 = !DILocation(line: 14, column: 21, scope: !643)
!657 = !DILocation(line: 16, column: 3, scope: !643)
!658 = !DILocation(line: 16, column: 13, scope: !643)
!659 = !DILocation(line: 16, column: 16, scope: !643)
!660 = !DILocation(line: 17, column: 19, scope: !643)
!661 = !DILocation(line: 17, column: 15, scope: !643)
!662 = !DILocation(line: 17, column: 10, scope: !643)
!663 = !DILocation(line: 17, column: 13, scope: !643)
!664 = distinct !{!664, !657, !660}
!665 = !DILocation(line: 18, column: 10, scope: !643)
!666 = !DILocation(line: 18, column: 3, scope: !643)
