; ModuleID = 'gemm.bc'
source_filename = "gemm.cpp"
target datalayout = "e-m:e-i64:64-f80:128-n8:16:32:64-S128"
target triple = "x86_64-unknown-linux-gnu"

%"class.std::ios_base::Init" = type { i8 }
%struct.GEMM_STRUCT_REF = type { i32*, i32*, i32* }
%struct.INSTR = type { i32, i32, i32, %struct.GEMM_STRUCT_REF }
%struct.INSTR_VAL = type { i32, i32, i32, %struct.GEMM_STRUCT_VAL }
%struct.GEMM_STRUCT_VAL = type { i32, i32, i32 }

@_ZStL8__ioinit = internal global %"class.std::ios_base::Init" zeroinitializer, align 1, !dbg !0
@res_index = dso_local global i32 0, align 4, !dbg !19
@result = dso_local global [10 x i32] zeroinitializer, align 16, !dbg !25
@product = dso_local global [3 x [3 x i32]] zeroinitializer, align 16, !dbg !31
@arr_val = dso_local global i32* null, align 8, !dbg !36
@inp_mem = dso_local global [3 x [3 x i32]] [[3 x i32] [i32 1, i32 2, i32 3], [3 x i32] [i32 1, i32 2, i32 3], [3 x i32] [i32 1, i32 2, i32 3]], align 16, !dbg !39
@wgt_mem = dso_local global [3 x [3 x i32]] [[3 x i32] [i32 4, i32 5, i32 6], [3 x i32] [i32 4, i32 5, i32 6], [3 x i32] [i32 4, i32 5, i32 6]], align 16, !dbg !42
@acc_mem = dso_local global [3 x [3 x i32]] zeroinitializer, align 16, !dbg !44
@wgt_mem_prime = dso_local global [3 x [3 x i32]] zeroinitializer, align 16, !dbg !46
@acc_mem_flat = dso_local global [9 x i32] zeroinitializer, align 16, !dbg !48
@acc_mem_base_flat = dso_local global [9 x i32] zeroinitializer, align 16, !dbg !53
@.str = private unnamed_addr constant [8 x i8] c"op_type\00", align 1
@.str.1 = private unnamed_addr constant [7 x i8] c"opcode\00", align 1
@__const.main.gemm_base = private unnamed_addr constant %struct.GEMM_STRUCT_REF { i32* getelementptr inbounds ([3 x [3 x i32]], [3 x [3 x i32]]* @inp_mem, i32 0, i32 0, i32 0), i32* getelementptr inbounds ([3 x [3 x i32]], [3 x [3 x i32]]* @wgt_mem, i32 0, i32 0, i32 0), i32* getelementptr inbounds ([3 x [3 x i32]], [3 x [3 x i32]]* @acc_mem, i32 0, i32 0, i32 0) }, align 8
@llvm.global_ctors = appending global [1 x { i32, void ()*, i8* }] [{ i32, void ()*, i8* } { i32 65535, void ()* @_GLOBAL__sub_I_gemm.cpp, i8* null }]
@__dso_handle = hidden global i8* null, align 8, !dbg !1014

; Function Attrs: noinline uwtable
define internal void @__cxx_global_var_init() #0 section ".text.startup" !dbg !1027 {
entry:
  call void @_ZNSt8ios_base4InitC1Ev(%"class.std::ios_base::Init"* @_ZStL8__ioinit), !dbg !1028
  %0 = call i32 @__cxa_atexit(void (i8*)* bitcast (void (%"class.std::ios_base::Init"*)* @_ZNSt8ios_base4InitD1Ev to void (i8*)*), i8* getelementptr inbounds (%"class.std::ios_base::Init", %"class.std::ios_base::Init"* @_ZStL8__ioinit, i32 0, i32 0), i8* bitcast (i8** @__dso_handle to i8*)) #3, !dbg !1028
  ret void, !dbg !1028
}

declare dso_local void @_ZNSt8ios_base4InitC1Ev(%"class.std::ios_base::Init"*) unnamed_addr #1

; Function Attrs: nounwind
declare dso_local void @_ZNSt8ios_base4InitD1Ev(%"class.std::ios_base::Init"*) unnamed_addr #2

; Function Attrs: nounwind
declare dso_local i32 @__cxa_atexit(void (i8*)*, i8*, i8*) #3

; Function Attrs: noinline nounwind uwtable
define dso_local void @_Z9transposePA3_jS0_([3 x i32]* %wgt_mem, [3 x i32]* %wgt_mem_prime) #4 !dbg !1029 {
entry:
  %wgt_mem.addr = alloca [3 x i32]*, align 8
  %wgt_mem_prime.addr = alloca [3 x i32]*, align 8
  %i = alloca i32, align 4
  %j = alloca i32, align 4
  store [3 x i32]* %wgt_mem, [3 x i32]** %wgt_mem.addr, align 8
  call void @llvm.dbg.declare(metadata [3 x i32]** %wgt_mem.addr, metadata !1035, metadata !DIExpression()), !dbg !1036
  store [3 x i32]* %wgt_mem_prime, [3 x i32]** %wgt_mem_prime.addr, align 8
  call void @llvm.dbg.declare(metadata [3 x i32]** %wgt_mem_prime.addr, metadata !1037, metadata !DIExpression()), !dbg !1038
  call void @llvm.dbg.declare(metadata i32* %i, metadata !1039, metadata !DIExpression()), !dbg !1040
  call void @llvm.dbg.declare(metadata i32* %j, metadata !1041, metadata !DIExpression()), !dbg !1042
  store i32 0, i32* %i, align 4, !dbg !1043
  br label %for.cond, !dbg !1045

for.cond:                                         ; preds = %for.inc10, %entry
  %0 = load i32, i32* %i, align 4, !dbg !1046
  %cmp = icmp slt i32 %0, 3, !dbg !1048
  br i1 %cmp, label %for.body, label %for.end12, !dbg !1049

for.body:                                         ; preds = %for.cond
  store i32 0, i32* %j, align 4, !dbg !1050
  br label %for.cond1, !dbg !1052

for.cond1:                                        ; preds = %for.body3, %for.body
  %1 = load i32, i32* %j, align 4, !dbg !1053
  %cmp2 = icmp slt i32 %1, 3, !dbg !1055
  br i1 %cmp2, label %for.body3, label %for.inc10, !dbg !1056

for.body3:                                        ; preds = %for.cond1
  %2 = load [3 x i32]*, [3 x i32]** %wgt_mem.addr, align 8, !dbg !1057
  %3 = load i32, i32* %j, align 4, !dbg !1058
  %idxprom = sext i32 %3 to i64, !dbg !1057
  %arrayidx = getelementptr inbounds [3 x i32], [3 x i32]* %2, i64 %idxprom, !dbg !1057
  %4 = load i32, i32* %i, align 4, !dbg !1059
  %idxprom4 = sext i32 %4 to i64, !dbg !1057
  %arrayidx5 = getelementptr inbounds [3 x i32], [3 x i32]* %arrayidx, i64 0, i64 %idxprom4, !dbg !1057
  %5 = load i32, i32* %arrayidx5, align 4, !dbg !1057
  %6 = load [3 x i32]*, [3 x i32]** %wgt_mem_prime.addr, align 8, !dbg !1060
  %7 = load i32, i32* %i, align 4, !dbg !1061
  %idxprom6 = sext i32 %7 to i64, !dbg !1060
  %arrayidx7 = getelementptr inbounds [3 x i32], [3 x i32]* %6, i64 %idxprom6, !dbg !1060
  %8 = load i32, i32* %j, align 4, !dbg !1062
  %idxprom8 = sext i32 %8 to i64, !dbg !1060
  %arrayidx9 = getelementptr inbounds [3 x i32], [3 x i32]* %arrayidx7, i64 0, i64 %idxprom8, !dbg !1060
  store i32 %5, i32* %arrayidx9, align 4, !dbg !1063
  %9 = load i32, i32* %j, align 4, !dbg !1064
  %inc = add nsw i32 %9, 1, !dbg !1064
  store i32 %inc, i32* %j, align 4, !dbg !1064
  br label %for.cond1, !dbg !1065, !llvm.loop !1066

for.inc10:                                        ; preds = %for.cond1
  %10 = load i32, i32* %i, align 4, !dbg !1068
  %inc11 = add nsw i32 %10, 1, !dbg !1068
  store i32 %inc11, i32* %i, align 4, !dbg !1068
  br label %for.cond, !dbg !1069, !llvm.loop !1070

for.end12:                                        ; preds = %for.cond
  ret void, !dbg !1072
}

; Function Attrs: nounwind readnone speculatable
declare void @llvm.dbg.declare(metadata, metadata, metadata) #5

; Function Attrs: noinline nounwind uwtable
define dso_local i32* @_Z14matrixMultiplyPKjS0_(i32* %mat1, i32* %mat2) #4 !dbg !1073 {
entry:
  %mat1.addr = alloca i32*, align 8
  %mat2.addr = alloca i32*, align 8
  %res = alloca i32, align 4
  %i = alloca i32, align 4
  store i32* %mat1, i32** %mat1.addr, align 8
  call void @llvm.dbg.declare(metadata i32** %mat1.addr, metadata !1078, metadata !DIExpression()), !dbg !1079
  store i32* %mat2, i32** %mat2.addr, align 8
  call void @llvm.dbg.declare(metadata i32** %mat2.addr, metadata !1080, metadata !DIExpression()), !dbg !1081
  call void @llvm.dbg.declare(metadata i32* %res, metadata !1082, metadata !DIExpression()), !dbg !1083
  store i32 0, i32* %res, align 4, !dbg !1083
  call void @llvm.dbg.declare(metadata i32* %i, metadata !1084, metadata !DIExpression()), !dbg !1086
  store i32 0, i32* %i, align 4, !dbg !1086
  br label %for.cond, !dbg !1087

for.cond:                                         ; preds = %for.body, %entry
  %0 = load i32, i32* %i, align 4, !dbg !1088
  %cmp = icmp slt i32 %0, 3, !dbg !1090
  br i1 %cmp, label %for.body, label %for.end, !dbg !1091

for.body:                                         ; preds = %for.cond
  %1 = load i32*, i32** %mat1.addr, align 8, !dbg !1092
  %2 = load i32, i32* %i, align 4, !dbg !1094
  %idxprom = sext i32 %2 to i64, !dbg !1092
  %arrayidx = getelementptr inbounds i32, i32* %1, i64 %idxprom, !dbg !1092
  %3 = load i32, i32* %arrayidx, align 4, !dbg !1092
  %4 = load i32*, i32** %mat2.addr, align 8, !dbg !1095
  %5 = load i32, i32* %i, align 4, !dbg !1096
  %idxprom1 = sext i32 %5 to i64, !dbg !1095
  %arrayidx2 = getelementptr inbounds i32, i32* %4, i64 %idxprom1, !dbg !1095
  %6 = load i32, i32* %arrayidx2, align 4, !dbg !1095
  %mul = mul i32 %3, %6, !dbg !1097
  %7 = load i32, i32* %res, align 4, !dbg !1098
  %add = add i32 %7, %mul, !dbg !1098
  store i32 %add, i32* %res, align 4, !dbg !1098
  %8 = load i32, i32* %i, align 4, !dbg !1099
  %inc = add nsw i32 %8, 1, !dbg !1099
  store i32 %inc, i32* %i, align 4, !dbg !1099
  br label %for.cond, !dbg !1100, !llvm.loop !1101

for.end:                                          ; preds = %for.cond
  %9 = load i32, i32* %res, align 4, !dbg !1103
  %10 = load i32, i32* @res_index, align 4, !dbg !1104
  %idxprom3 = sext i32 %10 to i64, !dbg !1105
  %arrayidx4 = getelementptr inbounds [10 x i32], [10 x i32]* @result, i64 0, i64 %idxprom3, !dbg !1105
  store i32 %9, i32* %arrayidx4, align 4, !dbg !1106
  %11 = load i32, i32* @res_index, align 4, !dbg !1107
  %inc5 = add nsw i32 %11, 1, !dbg !1107
  store i32 %inc5, i32* @res_index, align 4, !dbg !1107
  ret i32* getelementptr inbounds ([10 x i32], [10 x i32]* @result, i64 0, i64 0), !dbg !1108
}

; Function Attrs: noinline nounwind uwtable
define dso_local i32* @_Z9base_gemm5INSTR(%struct.INSTR* byval(%struct.INSTR) align 8 %myinsn) #4 !dbg !1109 {
entry:
  %row = alloca i32, align 4
  %col = alloca i32, align 4
  %i = alloca i32, align 4
  %sum = alloca i32, align 4
  %i26 = alloca i32, align 4
  %j = alloca i32, align 4
  call void @llvm.dbg.declare(metadata %struct.INSTR* %myinsn, metadata !1124, metadata !DIExpression()), !dbg !1125
  call void @llvm.dbg.declare(metadata i32* %row, metadata !1126, metadata !DIExpression()), !dbg !1127
  call void @llvm.dbg.declare(metadata i32* %col, metadata !1128, metadata !DIExpression()), !dbg !1129
  call void @llvm.dbg.declare(metadata i32* %i, metadata !1130, metadata !DIExpression()), !dbg !1131
  call void @llvm.dbg.declare(metadata i32* %sum, metadata !1132, metadata !DIExpression()), !dbg !1133
  %OPCODE = getelementptr inbounds %struct.INSTR, %struct.INSTR* %myinsn, i32 0, i32 1, !dbg !1134
  %0 = load i32, i32* %OPCODE, align 4, !dbg !1134
  %cmp = icmp eq i32 %0, 2, !dbg !1136
  br i1 %cmp, label %if.then, label %if.end, !dbg !1137

if.then:                                          ; preds = %entry
  store i32 0, i32* %row, align 4, !dbg !1138
  br label %for.cond, !dbg !1141

for.cond:                                         ; preds = %for.inc23, %if.then
  %1 = load i32, i32* %row, align 4, !dbg !1142
  %cmp1 = icmp ult i32 %1, 3, !dbg !1144
  br i1 %cmp1, label %for.body, label %for.end25, !dbg !1145

for.body:                                         ; preds = %for.cond
  store i32 0, i32* %col, align 4, !dbg !1146
  br label %for.cond2, !dbg !1149

for.cond2:                                        ; preds = %for.end, %for.body
  %2 = load i32, i32* %col, align 4, !dbg !1150
  %cmp3 = icmp ult i32 %2, 3, !dbg !1152
  br i1 %cmp3, label %for.body4, label %for.inc23, !dbg !1153

for.body4:                                        ; preds = %for.cond2
  store i32 0, i32* %sum, align 4, !dbg !1154
  store i32 0, i32* %i, align 4, !dbg !1156
  br label %for.cond5, !dbg !1158

for.cond5:                                        ; preds = %for.body7, %for.body4
  %3 = load i32, i32* %i, align 4, !dbg !1159
  %cmp6 = icmp ult i32 %3, 3, !dbg !1161
  br i1 %cmp6, label %for.body7, label %for.end, !dbg !1162

for.body7:                                        ; preds = %for.cond5
  %4 = load i32, i32* %row, align 4, !dbg !1163
  %idx.ext = zext i32 %4 to i64, !dbg !1165
  %add.ptr = getelementptr inbounds [3 x i32], [3 x i32]* getelementptr inbounds ([3 x [3 x i32]], [3 x [3 x i32]]* @inp_mem, i64 0, i64 0), i64 %idx.ext, !dbg !1165
  %arraydecay = getelementptr inbounds [3 x i32], [3 x i32]* %add.ptr, i64 0, i64 0, !dbg !1166
  %5 = load i32, i32* %i, align 4, !dbg !1167
  %idx.ext8 = zext i32 %5 to i64, !dbg !1168
  %add.ptr9 = getelementptr inbounds i32, i32* %arraydecay, i64 %idx.ext8, !dbg !1168
  %6 = load i32, i32* %add.ptr9, align 4, !dbg !1169
  %7 = load i32, i32* %i, align 4, !dbg !1170
  %idx.ext10 = zext i32 %7 to i64, !dbg !1171
  %add.ptr11 = getelementptr inbounds [3 x i32], [3 x i32]* getelementptr inbounds ([3 x [3 x i32]], [3 x [3 x i32]]* @wgt_mem, i64 0, i64 0), i64 %idx.ext10, !dbg !1171
  %arraydecay12 = getelementptr inbounds [3 x i32], [3 x i32]* %add.ptr11, i64 0, i64 0, !dbg !1172
  %8 = load i32, i32* %col, align 4, !dbg !1173
  %idx.ext13 = zext i32 %8 to i64, !dbg !1174
  %add.ptr14 = getelementptr inbounds i32, i32* %arraydecay12, i64 %idx.ext13, !dbg !1174
  %9 = load i32, i32* %add.ptr14, align 4, !dbg !1175
  %mul = mul i32 %6, %9, !dbg !1176
  %10 = load i32, i32* %sum, align 4, !dbg !1177
  %add = add i32 %10, %mul, !dbg !1177
  store i32 %add, i32* %sum, align 4, !dbg !1177
  %11 = load i32, i32* %i, align 4, !dbg !1178
  %inc = add i32 %11, 1, !dbg !1178
  store i32 %inc, i32* %i, align 4, !dbg !1178
  br label %for.cond5, !dbg !1179, !llvm.loop !1180

for.end:                                          ; preds = %for.cond5
  %12 = load i32, i32* %sum, align 4, !dbg !1182
  %13 = load i32, i32* %row, align 4, !dbg !1183
  %idx.ext15 = zext i32 %13 to i64, !dbg !1184
  %add.ptr16 = getelementptr inbounds [3 x i32], [3 x i32]* getelementptr inbounds ([3 x [3 x i32]], [3 x [3 x i32]]* @product, i64 0, i64 0), i64 %idx.ext15, !dbg !1184
  %arraydecay17 = getelementptr inbounds [3 x i32], [3 x i32]* %add.ptr16, i64 0, i64 0, !dbg !1185
  %14 = load i32, i32* %col, align 4, !dbg !1186
  %idx.ext18 = zext i32 %14 to i64, !dbg !1187
  %add.ptr19 = getelementptr inbounds i32, i32* %arraydecay17, i64 %idx.ext18, !dbg !1187
  store i32 %12, i32* %add.ptr19, align 4, !dbg !1188
  %15 = load i32, i32* %col, align 4, !dbg !1189
  %inc21 = add i32 %15, 1, !dbg !1189
  store i32 %inc21, i32* %col, align 4, !dbg !1189
  br label %for.cond2, !dbg !1190, !llvm.loop !1191

for.inc23:                                        ; preds = %for.cond2
  %16 = load i32, i32* %row, align 4, !dbg !1193
  %inc24 = add i32 %16, 1, !dbg !1193
  store i32 %inc24, i32* %row, align 4, !dbg !1193
  br label %for.cond, !dbg !1194, !llvm.loop !1195

for.end25:                                        ; preds = %for.cond
  call void @llvm.dbg.declare(metadata i32* %i26, metadata !1197, metadata !DIExpression()), !dbg !1199
  store i32 0, i32* %i26, align 4, !dbg !1199
  br label %for.cond27, !dbg !1200

for.cond27:                                       ; preds = %for.inc42, %for.end25
  %17 = load i32, i32* %i26, align 4, !dbg !1201
  %cmp28 = icmp slt i32 %17, 3, !dbg !1203
  br i1 %cmp28, label %for.body29, label %if.end, !dbg !1204

for.body29:                                       ; preds = %for.cond27
  call void @llvm.dbg.declare(metadata i32* %j, metadata !1205, metadata !DIExpression()), !dbg !1208
  store i32 0, i32* %j, align 4, !dbg !1208
  br label %for.cond30, !dbg !1209

for.cond30:                                       ; preds = %for.body32, %for.body29
  %18 = load i32, i32* %j, align 4, !dbg !1210
  %cmp31 = icmp slt i32 %18, 3, !dbg !1212
  %19 = load i32, i32* %i26, align 4, !dbg !1213
  br i1 %cmp31, label %for.body32, label %for.inc42, !dbg !1214

for.body32:                                       ; preds = %for.cond30
  %idxprom = sext i32 %19 to i64, !dbg !1215
  %arrayidx = getelementptr inbounds [3 x [3 x i32]], [3 x [3 x i32]]* @product, i64 0, i64 %idxprom, !dbg !1215
  %20 = load i32, i32* %j, align 4, !dbg !1217
  %idxprom33 = sext i32 %20 to i64, !dbg !1215
  %arrayidx34 = getelementptr inbounds [3 x i32], [3 x i32]* %arrayidx, i64 0, i64 %idxprom33, !dbg !1215
  %21 = load i32, i32* %arrayidx34, align 4, !dbg !1215
  %22 = load i32, i32* %i26, align 4, !dbg !1218
  %mul35 = mul nsw i32 %22, 3, !dbg !1219
  %23 = load i32, i32* %j, align 4, !dbg !1220
  %add36 = add nsw i32 %mul35, %23, !dbg !1221
  %idxprom37 = sext i32 %add36 to i64, !dbg !1222
  %arrayidx38 = getelementptr inbounds [9 x i32], [9 x i32]* @acc_mem_base_flat, i64 0, i64 %idxprom37, !dbg !1222
  store i32 %21, i32* %arrayidx38, align 4, !dbg !1223
  %24 = load i32, i32* %j, align 4, !dbg !1224
  %inc40 = add nsw i32 %24, 1, !dbg !1224
  store i32 %inc40, i32* %j, align 4, !dbg !1224
  br label %for.cond30, !dbg !1225, !llvm.loop !1226

for.inc42:                                        ; preds = %for.cond30
  %inc43 = add nsw i32 %19, 1, !dbg !1228
  store i32 %inc43, i32* %i26, align 4, !dbg !1228
  br label %for.cond27, !dbg !1229, !llvm.loop !1230

if.end:                                           ; preds = %for.cond27, %entry
  ret i32* getelementptr inbounds ([9 x i32], [9 x i32]* @acc_mem_base_flat, i64 0, i64 0), !dbg !1232
}

; Function Attrs: noinline nounwind uwtable
define dso_local i32* @_Z6mulMatPA3_jS0_S0_([3 x i32]* %mat1, [3 x i32]* %mat2, [3 x i32]* %res) #4 !dbg !1233 {
entry:
  %mat1.addr = alloca [3 x i32]*, align 8
  %mat2.addr = alloca [3 x i32]*, align 8
  %res.addr = alloca [3 x i32]*, align 8
  %i = alloca i32, align 4
  %j = alloca i32, align 4
  %k = alloca i32, align 4
  %i23 = alloca i32, align 4
  %j27 = alloca i32, align 4
  store [3 x i32]* %mat1, [3 x i32]** %mat1.addr, align 8
  call void @llvm.dbg.declare(metadata [3 x i32]** %mat1.addr, metadata !1236, metadata !DIExpression()), !dbg !1237
  store [3 x i32]* %mat2, [3 x i32]** %mat2.addr, align 8
  call void @llvm.dbg.declare(metadata [3 x i32]** %mat2.addr, metadata !1238, metadata !DIExpression()), !dbg !1239
  store [3 x i32]* %res, [3 x i32]** %res.addr, align 8
  call void @llvm.dbg.declare(metadata [3 x i32]** %res.addr, metadata !1240, metadata !DIExpression()), !dbg !1241
  call void @llvm.dbg.declare(metadata i32* %i, metadata !1242, metadata !DIExpression()), !dbg !1244
  store i32 0, i32* %i, align 4, !dbg !1244
  br label %for.cond, !dbg !1245

for.cond:                                         ; preds = %for.inc20, %entry
  %0 = load i32, i32* %i, align 4, !dbg !1246
  %cmp = icmp slt i32 %0, 3, !dbg !1248
  br i1 %cmp, label %for.body, label %for.end22, !dbg !1249

for.body:                                         ; preds = %for.cond
  call void @llvm.dbg.declare(metadata i32* %j, metadata !1250, metadata !DIExpression()), !dbg !1253
  store i32 0, i32* %j, align 4, !dbg !1253
  br label %for.cond1, !dbg !1254

for.cond1:                                        ; preds = %for.inc17, %for.body
  %1 = load i32, i32* %j, align 4, !dbg !1255
  %cmp2 = icmp slt i32 %1, 3, !dbg !1257
  br i1 %cmp2, label %for.body3, label %for.inc20, !dbg !1258

for.body3:                                        ; preds = %for.cond1
  call void @llvm.dbg.declare(metadata i32* %k, metadata !1259, metadata !DIExpression()), !dbg !1262
  store i32 0, i32* %k, align 4, !dbg !1262
  br label %for.cond4, !dbg !1263

for.cond4:                                        ; preds = %for.body6, %for.body3
  %2 = load i32, i32* %k, align 4, !dbg !1264
  %cmp5 = icmp slt i32 %2, 3, !dbg !1266
  br i1 %cmp5, label %for.body6, label %for.inc17, !dbg !1267

for.body6:                                        ; preds = %for.cond4
  %3 = load i32, i32* %i, align 4, !dbg !1268
  %idxprom = sext i32 %3 to i64, !dbg !1270
  %arrayidx = getelementptr inbounds [3 x [3 x i32]], [3 x [3 x i32]]* @inp_mem, i64 0, i64 %idxprom, !dbg !1270
  %4 = load i32, i32* %k, align 4, !dbg !1271
  %idxprom7 = sext i32 %4 to i64, !dbg !1270
  %arrayidx8 = getelementptr inbounds [3 x i32], [3 x i32]* %arrayidx, i64 0, i64 %idxprom7, !dbg !1270
  %5 = load i32, i32* %arrayidx8, align 4, !dbg !1270
  %6 = load i32, i32* %k, align 4, !dbg !1272
  %idxprom9 = sext i32 %6 to i64, !dbg !1273
  %arrayidx10 = getelementptr inbounds [3 x [3 x i32]], [3 x [3 x i32]]* @wgt_mem, i64 0, i64 %idxprom9, !dbg !1273
  %7 = load i32, i32* %j, align 4, !dbg !1274
  %idxprom11 = sext i32 %7 to i64, !dbg !1273
  %arrayidx12 = getelementptr inbounds [3 x i32], [3 x i32]* %arrayidx10, i64 0, i64 %idxprom11, !dbg !1273
  %8 = load i32, i32* %arrayidx12, align 4, !dbg !1273
  %mul = mul i32 %5, %8, !dbg !1275
  %9 = load i32, i32* %i, align 4, !dbg !1276
  %idxprom13 = sext i32 %9 to i64, !dbg !1277
  %arrayidx14 = getelementptr inbounds [3 x [3 x i32]], [3 x [3 x i32]]* @acc_mem, i64 0, i64 %idxprom13, !dbg !1277
  %10 = load i32, i32* %j, align 4, !dbg !1278
  %idxprom15 = sext i32 %10 to i64, !dbg !1277
  %arrayidx16 = getelementptr inbounds [3 x i32], [3 x i32]* %arrayidx14, i64 0, i64 %idxprom15, !dbg !1277
  %11 = load i32, i32* %arrayidx16, align 4, !dbg !1279
  %add = add i32 %11, %mul, !dbg !1279
  store i32 %add, i32* %arrayidx16, align 4, !dbg !1279
  %12 = load i32, i32* %k, align 4, !dbg !1280
  %inc = add nsw i32 %12, 1, !dbg !1280
  store i32 %inc, i32* %k, align 4, !dbg !1280
  br label %for.cond4, !dbg !1281, !llvm.loop !1282

for.inc17:                                        ; preds = %for.cond4
  %13 = load i32, i32* %j, align 4, !dbg !1284
  %inc18 = add nsw i32 %13, 1, !dbg !1284
  store i32 %inc18, i32* %j, align 4, !dbg !1284
  br label %for.cond1, !dbg !1285, !llvm.loop !1286

for.inc20:                                        ; preds = %for.cond1
  %14 = load i32, i32* %i, align 4, !dbg !1288
  %inc21 = add nsw i32 %14, 1, !dbg !1288
  store i32 %inc21, i32* %i, align 4, !dbg !1288
  br label %for.cond, !dbg !1289, !llvm.loop !1290

for.end22:                                        ; preds = %for.cond
  call void @llvm.dbg.declare(metadata i32* %i23, metadata !1292, metadata !DIExpression()), !dbg !1294
  store i32 0, i32* %i23, align 4, !dbg !1294
  br label %for.cond24, !dbg !1295

for.cond24:                                       ; preds = %for.inc42, %for.end22
  %15 = load i32, i32* %i23, align 4, !dbg !1296
  %cmp25 = icmp slt i32 %15, 3, !dbg !1298
  br i1 %cmp25, label %for.body26, label %for.end44, !dbg !1299

for.body26:                                       ; preds = %for.cond24
  call void @llvm.dbg.declare(metadata i32* %j27, metadata !1300, metadata !DIExpression()), !dbg !1303
  store i32 0, i32* %j27, align 4, !dbg !1303
  br label %for.cond28, !dbg !1304

for.cond28:                                       ; preds = %for.body30, %for.body26
  %16 = load i32, i32* %j27, align 4, !dbg !1305
  %cmp29 = icmp slt i32 %16, 3, !dbg !1307
  %17 = load i32, i32* %i23, align 4, !dbg !1308
  br i1 %cmp29, label %for.body30, label %for.inc42, !dbg !1309

for.body30:                                       ; preds = %for.cond28
  %idxprom31 = sext i32 %17 to i64, !dbg !1310
  %arrayidx32 = getelementptr inbounds [3 x [3 x i32]], [3 x [3 x i32]]* @acc_mem, i64 0, i64 %idxprom31, !dbg !1310
  %18 = load i32, i32* %j27, align 4, !dbg !1312
  %idxprom33 = sext i32 %18 to i64, !dbg !1310
  %arrayidx34 = getelementptr inbounds [3 x i32], [3 x i32]* %arrayidx32, i64 0, i64 %idxprom33, !dbg !1310
  %19 = load i32, i32* %arrayidx34, align 4, !dbg !1310
  %20 = load i32, i32* %i23, align 4, !dbg !1313
  %mul35 = mul nsw i32 %20, 3, !dbg !1314
  %21 = load i32, i32* %j27, align 4, !dbg !1315
  %add36 = add nsw i32 %mul35, %21, !dbg !1316
  %idxprom37 = sext i32 %add36 to i64, !dbg !1317
  %arrayidx38 = getelementptr inbounds [9 x i32], [9 x i32]* @acc_mem_flat, i64 0, i64 %idxprom37, !dbg !1317
  store i32 %19, i32* %arrayidx38, align 4, !dbg !1318
  %22 = load i32, i32* %j27, align 4, !dbg !1319
  %inc40 = add nsw i32 %22, 1, !dbg !1319
  store i32 %inc40, i32* %j27, align 4, !dbg !1319
  br label %for.cond28, !dbg !1320, !llvm.loop !1321

for.inc42:                                        ; preds = %for.cond28
  %inc43 = add nsw i32 %17, 1, !dbg !1323
  store i32 %inc43, i32* %i23, align 4, !dbg !1323
  br label %for.cond24, !dbg !1324, !llvm.loop !1325

for.end44:                                        ; preds = %for.cond24
  ret i32* getelementptr inbounds ([9 x i32], [9 x i32]* @acc_mem_flat, i64 0, i64 0), !dbg !1327
}

; Function Attrs: noinline nounwind uwtable
define dso_local i32* @_Z13micro_decoder5INSTR(%struct.INSTR* byval(%struct.INSTR) align 8 %instr) #4 !dbg !1328 {
entry:
  %arr_ref = alloca i32*, align 8
  %inp = alloca [3 x i32], align 4
  %wgt = alloca [3 x i32], align 4
  %i = alloca i32, align 4
  %i2 = alloca i32, align 4
  call void @llvm.dbg.declare(metadata %struct.INSTR* %instr, metadata !1329, metadata !DIExpression()), !dbg !1330
  call void @llvm.dbg.declare(metadata i32** %arr_ref, metadata !1331, metadata !DIExpression()), !dbg !1332
  store i32* null, i32** %arr_ref, align 8, !dbg !1332
  call void @llvm.dbg.declare(metadata [3 x i32]* %inp, metadata !1333, metadata !DIExpression()), !dbg !1334
  call void @llvm.dbg.declare(metadata [3 x i32]* %wgt, metadata !1335, metadata !DIExpression()), !dbg !1336
  %OPCODE = getelementptr inbounds %struct.INSTR, %struct.INSTR* %instr, i32 0, i32 1, !dbg !1337
  %0 = load i32, i32* %OPCODE, align 4, !dbg !1337
  %cmp = icmp eq i32 %0, 2, !dbg !1339
  br i1 %cmp, label %if.then, label %if.end, !dbg !1340

if.then:                                          ; preds = %entry
  call void @llvm.dbg.declare(metadata i32* %i, metadata !1341, metadata !DIExpression()), !dbg !1344
  store i32 0, i32* %i, align 4, !dbg !1344
  br label %for.cond, !dbg !1345

for.cond:                                         ; preds = %for.body, %if.then
  %1 = load i32, i32* %i, align 4, !dbg !1346
  %cmp1 = icmp slt i32 %1, 3, !dbg !1348
  br i1 %cmp1, label %for.body, label %for.end, !dbg !1349

for.body:                                         ; preds = %for.cond
  %OPERANDS = getelementptr inbounds %struct.INSTR, %struct.INSTR* %instr, i32 0, i32 3, !dbg !1350
  %inp_mem = getelementptr inbounds %struct.GEMM_STRUCT_REF, %struct.GEMM_STRUCT_REF* %OPERANDS, i32 0, i32 0, !dbg !1352
  %2 = load i32*, i32** %inp_mem, align 8, !dbg !1352
  %3 = load i32, i32* %i, align 4, !dbg !1353
  %idx.ext = sext i32 %3 to i64, !dbg !1354
  %add.ptr = getelementptr inbounds i32, i32* %2, i64 %idx.ext, !dbg !1354
  %4 = load i32, i32* %add.ptr, align 4, !dbg !1355
  %5 = load i32, i32* %i, align 4, !dbg !1356
  %idxprom = sext i32 %5 to i64, !dbg !1357
  %arrayidx = getelementptr inbounds [3 x i32], [3 x i32]* %inp, i64 0, i64 %idxprom, !dbg !1357
  store i32 %4, i32* %arrayidx, align 4, !dbg !1358
  %6 = load i32, i32* %i, align 4, !dbg !1359
  %inc = add nsw i32 %6, 1, !dbg !1359
  store i32 %inc, i32* %i, align 4, !dbg !1359
  br label %for.cond, !dbg !1360, !llvm.loop !1361

for.end:                                          ; preds = %for.cond
  call void @llvm.dbg.declare(metadata i32* %i2, metadata !1363, metadata !DIExpression()), !dbg !1365
  store i32 0, i32* %i2, align 4, !dbg !1365
  br label %for.cond3, !dbg !1366

for.cond3:                                        ; preds = %for.body5, %for.end
  %7 = load i32, i32* %i2, align 4, !dbg !1367
  %cmp4 = icmp slt i32 %7, 3, !dbg !1369
  br i1 %cmp4, label %for.body5, label %for.end13, !dbg !1370

for.body5:                                        ; preds = %for.cond3
  %OPERANDS6 = getelementptr inbounds %struct.INSTR, %struct.INSTR* %instr, i32 0, i32 3, !dbg !1371
  %wgt_mem = getelementptr inbounds %struct.GEMM_STRUCT_REF, %struct.GEMM_STRUCT_REF* %OPERANDS6, i32 0, i32 1, !dbg !1373
  %8 = load i32*, i32** %wgt_mem, align 8, !dbg !1373
  %9 = load i32, i32* %i2, align 4, !dbg !1374
  %idx.ext7 = sext i32 %9 to i64, !dbg !1375
  %add.ptr8 = getelementptr inbounds i32, i32* %8, i64 %idx.ext7, !dbg !1375
  %10 = load i32, i32* %add.ptr8, align 4, !dbg !1376
  %11 = load i32, i32* %i2, align 4, !dbg !1377
  %idxprom9 = sext i32 %11 to i64, !dbg !1378
  %arrayidx10 = getelementptr inbounds [3 x i32], [3 x i32]* %wgt, i64 0, i64 %idxprom9, !dbg !1378
  store i32 %10, i32* %arrayidx10, align 4, !dbg !1379
  %12 = load i32, i32* %i2, align 4, !dbg !1380
  %inc12 = add nsw i32 %12, 1, !dbg !1380
  store i32 %inc12, i32* %i2, align 4, !dbg !1380
  br label %for.cond3, !dbg !1381, !llvm.loop !1382

for.end13:                                        ; preds = %for.cond3
  %arraydecay = getelementptr inbounds [3 x i32], [3 x i32]* %inp, i64 0, i64 0, !dbg !1384
  %arraydecay14 = getelementptr inbounds [3 x i32], [3 x i32]* %wgt, i64 0, i64 0, !dbg !1385
  %call = call i32* @_Z14matrixMultiplyPKjS0_(i32* %arraydecay, i32* %arraydecay14), !dbg !1386
  store i32* %call, i32** %arr_ref, align 8, !dbg !1387
  br label %if.end, !dbg !1388

if.end:                                           ; preds = %for.end13, %entry
  %13 = load i32*, i32** %arr_ref, align 8, !dbg !1389
  ret i32* %13, !dbg !1390
}

; Function Attrs: noinline nounwind uwtable
define dso_local i32* @_Z17micro_decoder_val9INSTR_VAL(%struct.INSTR_VAL* byval(%struct.INSTR_VAL) align 8 %instr) #4 !dbg !1391 {
entry:
  %arr_val = alloca i32*, align 8
  %inp = alloca [3 x i32], align 4
  %wgt = alloca [3 x i32], align 4
  %i = alloca i32, align 4
  %i2 = alloca i32, align 4
  call void @llvm.dbg.declare(metadata %struct.INSTR_VAL* %instr, metadata !1405, metadata !DIExpression()), !dbg !1406
  call void @llvm.dbg.declare(metadata i32** %arr_val, metadata !1407, metadata !DIExpression()), !dbg !1408
  store i32* null, i32** %arr_val, align 8, !dbg !1408
  call void @llvm.dbg.declare(metadata [3 x i32]* %inp, metadata !1409, metadata !DIExpression()), !dbg !1410
  call void @llvm.dbg.declare(metadata [3 x i32]* %wgt, metadata !1411, metadata !DIExpression()), !dbg !1412
  %OPCODE = getelementptr inbounds %struct.INSTR_VAL, %struct.INSTR_VAL* %instr, i32 0, i32 1, !dbg !1413
  %0 = load i32, i32* %OPCODE, align 4, !dbg !1413
  %cmp = icmp eq i32 %0, 2, !dbg !1415
  br i1 %cmp, label %if.then, label %if.end, !dbg !1416

if.then:                                          ; preds = %entry
  call void @llvm.dbg.declare(metadata i32* %i, metadata !1417, metadata !DIExpression()), !dbg !1420
  store i32 0, i32* %i, align 4, !dbg !1420
  br label %for.cond, !dbg !1421

for.cond:                                         ; preds = %for.body, %if.then
  %1 = load i32, i32* %i, align 4, !dbg !1422
  %cmp1 = icmp slt i32 %1, 3, !dbg !1424
  br i1 %cmp1, label %for.body, label %for.end, !dbg !1425

for.body:                                         ; preds = %for.cond
  %OPERANDS = getelementptr inbounds %struct.INSTR_VAL, %struct.INSTR_VAL* %instr, i32 0, i32 3, !dbg !1426
  %inp_mem = getelementptr inbounds %struct.GEMM_STRUCT_VAL, %struct.GEMM_STRUCT_VAL* %OPERANDS, i32 0, i32 0, !dbg !1428
  %2 = load i32, i32* %inp_mem, align 4, !dbg !1428
  %3 = load i32, i32* %i, align 4, !dbg !1429
  %add = add i32 %2, %3, !dbg !1430
  %4 = load i32, i32* %i, align 4, !dbg !1431
  %idxprom = sext i32 %4 to i64, !dbg !1432
  %arrayidx = getelementptr inbounds [3 x i32], [3 x i32]* %inp, i64 0, i64 %idxprom, !dbg !1432
  store i32 %add, i32* %arrayidx, align 4, !dbg !1433
  %5 = load i32, i32* %i, align 4, !dbg !1434
  %inc = add nsw i32 %5, 1, !dbg !1434
  store i32 %inc, i32* %i, align 4, !dbg !1434
  br label %for.cond, !dbg !1435, !llvm.loop !1436

for.end:                                          ; preds = %for.cond
  call void @llvm.dbg.declare(metadata i32* %i2, metadata !1438, metadata !DIExpression()), !dbg !1440
  store i32 0, i32* %i2, align 4, !dbg !1440
  br label %for.cond3, !dbg !1441

for.cond3:                                        ; preds = %for.body5, %for.end
  %6 = load i32, i32* %i2, align 4, !dbg !1442
  %cmp4 = icmp slt i32 %6, 3, !dbg !1444
  br i1 %cmp4, label %for.body5, label %for.end11, !dbg !1445

for.body5:                                        ; preds = %for.cond3
  %OPERANDS6 = getelementptr inbounds %struct.INSTR_VAL, %struct.INSTR_VAL* %instr, i32 0, i32 3, !dbg !1446
  %wgt_mem = getelementptr inbounds %struct.GEMM_STRUCT_VAL, %struct.GEMM_STRUCT_VAL* %OPERANDS6, i32 0, i32 1, !dbg !1448
  %7 = load i32, i32* %wgt_mem, align 4, !dbg !1448
  %8 = load i32, i32* %i2, align 4, !dbg !1449
  %idxprom7 = sext i32 %8 to i64, !dbg !1450
  %arrayidx8 = getelementptr inbounds [3 x i32], [3 x i32]* %wgt, i64 0, i64 %idxprom7, !dbg !1450
  store i32 %7, i32* %arrayidx8, align 4, !dbg !1451
  %9 = load i32, i32* %i2, align 4, !dbg !1452
  %inc10 = add nsw i32 %9, 1, !dbg !1452
  store i32 %inc10, i32* %i2, align 4, !dbg !1452
  br label %for.cond3, !dbg !1453, !llvm.loop !1454

for.end11:                                        ; preds = %for.cond3
  %arraydecay = getelementptr inbounds [3 x i32], [3 x i32]* %inp, i64 0, i64 0, !dbg !1456
  %arraydecay12 = getelementptr inbounds [3 x i32], [3 x i32]* %wgt, i64 0, i64 0, !dbg !1457
  %call = call i32* @_Z14matrixMultiplyPKjS0_(i32* %arraydecay, i32* %arraydecay12), !dbg !1458
  store i32* %call, i32** %arr_val, align 8, !dbg !1459
  br label %if.end, !dbg !1460

if.end:                                           ; preds = %for.end11, %entry
  %10 = load i32*, i32** %arr_val, align 8, !dbg !1461
  ret i32* %10, !dbg !1462
}

; Function Attrs: noinline norecurse uwtable
define dso_local i32 @main(i32 %argc, i8** %argv) #6 !dbg !1463 {
entry:
  call void @klee.ctor_stub()
  %retval = alloca i32, align 4
  %argc.addr = alloca i32, align 4
  %argv.addr = alloca i8**, align 8
  %inp_mem_row0 = alloca [3 x i32], align 4
  %inp_mem_row1 = alloca [3 x i32], align 4
  %inp_mem_row2 = alloca [3 x i32], align 4
  %wgt_mem_row0 = alloca [3 x i32], align 4
  %wgt_mem_row1 = alloca [3 x i32], align 4
  %wgt_mem_row2 = alloca [3 x i32], align 4
  %acc_mem_row0 = alloca [3 x i32], align 4
  %acc_mem_row1 = alloca [3 x i32], align 4
  %acc_mem_row2 = alloca [3 x i32], align 4
  %acc_mem_ref = alloca i32*, align 8
  %acc_mem_val = alloca i32*, align 8
  %acc_mem_gemm = alloca i32*, align 8
  %opcode = alloca i32, align 4
  %op_type = alloca i32, align 4
  %acc_stage1 = alloca [9 x i32], align 16
  %acc_stage2 = alloca [9 x i32], align 16
  %acc_stage3 = alloca [9 x i32], align 16
  %gemm_base = alloca %struct.GEMM_STRUCT_REF, align 8
  %instruction = alloca %struct.INSTR, align 8
  %gemm_uop = alloca [9 x %struct.GEMM_STRUCT_REF], align 16
  %gemm = alloca [9 x %struct.GEMM_STRUCT_VAL], align 16
  %microop = alloca [9 x %struct.INSTR], align 16
  %microop_val = alloca [9 x %struct.INSTR_VAL], align 16
  %agg.tmp = alloca %struct.INSTR, align 8
  %i = alloca i32, align 4
  %i242 = alloca i32, align 4
  %agg.tmp246 = alloca %struct.INSTR, align 8
  %i257 = alloca i32, align 4
  %agg.tmp261 = alloca %struct.INSTR_VAL, align 8
  store i32 0, i32* %retval, align 4
  store i32 %argc, i32* %argc.addr, align 4
  call void @llvm.dbg.declare(metadata i32* %argc.addr, metadata !1466, metadata !DIExpression()), !dbg !1467
  store i8** %argv, i8*** %argv.addr, align 8
  call void @llvm.dbg.declare(metadata i8*** %argv.addr, metadata !1468, metadata !DIExpression()), !dbg !1469
  call void @llvm.dbg.declare(metadata [3 x i32]* %inp_mem_row0, metadata !1470, metadata !DIExpression()), !dbg !1471
  call void @llvm.dbg.declare(metadata [3 x i32]* %inp_mem_row1, metadata !1472, metadata !DIExpression()), !dbg !1473
  call void @llvm.dbg.declare(metadata [3 x i32]* %inp_mem_row2, metadata !1474, metadata !DIExpression()), !dbg !1475
  call void @llvm.dbg.declare(metadata [3 x i32]* %wgt_mem_row0, metadata !1476, metadata !DIExpression()), !dbg !1477
  call void @llvm.dbg.declare(metadata [3 x i32]* %wgt_mem_row1, metadata !1478, metadata !DIExpression()), !dbg !1479
  call void @llvm.dbg.declare(metadata [3 x i32]* %wgt_mem_row2, metadata !1480, metadata !DIExpression()), !dbg !1481
  call void @llvm.dbg.declare(metadata [3 x i32]* %acc_mem_row0, metadata !1482, metadata !DIExpression()), !dbg !1483
  call void @llvm.dbg.declare(metadata [3 x i32]* %acc_mem_row1, metadata !1484, metadata !DIExpression()), !dbg !1485
  call void @llvm.dbg.declare(metadata [3 x i32]* %acc_mem_row2, metadata !1486, metadata !DIExpression()), !dbg !1487
  call void @llvm.dbg.declare(metadata i32** %acc_mem_ref, metadata !1488, metadata !DIExpression()), !dbg !1489
  call void @llvm.dbg.declare(metadata i32** %acc_mem_val, metadata !1490, metadata !DIExpression()), !dbg !1491
  call void @llvm.dbg.declare(metadata i32** %acc_mem_gemm, metadata !1492, metadata !DIExpression()), !dbg !1493
  call void @llvm.dbg.declare(metadata i32* %opcode, metadata !1494, metadata !DIExpression()), !dbg !1495
  call void @llvm.dbg.declare(metadata i32* %op_type, metadata !1496, metadata !DIExpression()), !dbg !1497
  call void @llvm.dbg.declare(metadata [9 x i32]* %acc_stage1, metadata !1498, metadata !DIExpression()), !dbg !1499
  call void @llvm.dbg.declare(metadata [9 x i32]* %acc_stage2, metadata !1500, metadata !DIExpression()), !dbg !1501
  call void @llvm.dbg.declare(metadata [9 x i32]* %acc_stage3, metadata !1502, metadata !DIExpression()), !dbg !1503
  call void @_Z9transposePA3_jS0_([3 x i32]* getelementptr inbounds ([3 x [3 x i32]], [3 x [3 x i32]]* @wgt_mem, i64 0, i64 0), [3 x i32]* getelementptr inbounds ([3 x [3 x i32]], [3 x [3 x i32]]* @wgt_mem_prime, i64 0, i64 0)), !dbg !1504
  %arraydecay = getelementptr inbounds [3 x i32], [3 x i32]* %inp_mem_row0, i64 0, i64 0, !dbg !1505
  %0 = bitcast i32* %arraydecay to i8*, !dbg !1505
  %1 = call i8* @memcpy(i8* %0, i8* bitcast ([3 x [3 x i32]]* @inp_mem to i8*), i64 12), !dbg !1505
  %arraydecay1 = getelementptr inbounds [3 x i32], [3 x i32]* %inp_mem_row1, i64 0, i64 0, !dbg !1506
  %2 = bitcast i32* %arraydecay1 to i8*, !dbg !1506
  %3 = call i8* @memcpy(i8* %2, i8* bitcast (i32* getelementptr inbounds ([3 x [3 x i32]], [3 x [3 x i32]]* @inp_mem, i64 0, i64 1, i64 0) to i8*), i64 12), !dbg !1506
  %arraydecay2 = getelementptr inbounds [3 x i32], [3 x i32]* %inp_mem_row2, i64 0, i64 0, !dbg !1507
  %4 = bitcast i32* %arraydecay2 to i8*, !dbg !1507
  %5 = call i8* @memcpy(i8* %4, i8* bitcast (i32* getelementptr inbounds ([3 x [3 x i32]], [3 x [3 x i32]]* @inp_mem, i64 0, i64 2, i64 0) to i8*), i64 12), !dbg !1507
  %arraydecay3 = getelementptr inbounds [3 x i32], [3 x i32]* %wgt_mem_row0, i64 0, i64 0, !dbg !1508
  %6 = bitcast i32* %arraydecay3 to i8*, !dbg !1508
  %7 = call i8* @memcpy(i8* %6, i8* bitcast ([3 x [3 x i32]]* @wgt_mem_prime to i8*), i64 12), !dbg !1508
  %arraydecay4 = getelementptr inbounds [3 x i32], [3 x i32]* %wgt_mem_row1, i64 0, i64 0, !dbg !1509
  %8 = bitcast i32* %arraydecay4 to i8*, !dbg !1509
  %9 = call i8* @memcpy(i8* %8, i8* bitcast (i32* getelementptr inbounds ([3 x [3 x i32]], [3 x [3 x i32]]* @wgt_mem_prime, i64 0, i64 1, i64 0) to i8*), i64 12), !dbg !1509
  %arraydecay5 = getelementptr inbounds [3 x i32], [3 x i32]* %wgt_mem_row2, i64 0, i64 0, !dbg !1510
  %10 = bitcast i32* %arraydecay5 to i8*, !dbg !1510
  %11 = call i8* @memcpy(i8* %10, i8* bitcast (i32* getelementptr inbounds ([3 x [3 x i32]], [3 x [3 x i32]]* @wgt_mem_prime, i64 0, i64 2, i64 0) to i8*), i64 12), !dbg !1510
  %arraydecay6 = getelementptr inbounds [3 x i32], [3 x i32]* %acc_mem_row0, i64 0, i64 0, !dbg !1511
  %12 = bitcast i32* %arraydecay6 to i8*, !dbg !1511
  %13 = call i8* @memcpy(i8* %12, i8* bitcast ([3 x [3 x i32]]* @acc_mem to i8*), i64 12), !dbg !1511
  %arraydecay7 = getelementptr inbounds [3 x i32], [3 x i32]* %acc_mem_row1, i64 0, i64 0, !dbg !1512
  %14 = bitcast i32* %arraydecay7 to i8*, !dbg !1512
  %15 = call i8* @memcpy(i8* %14, i8* bitcast (i32* getelementptr inbounds ([3 x [3 x i32]], [3 x [3 x i32]]* @acc_mem, i64 0, i64 1, i64 0) to i8*), i64 12), !dbg !1512
  %arraydecay8 = getelementptr inbounds [3 x i32], [3 x i32]* %acc_mem_row2, i64 0, i64 0, !dbg !1513
  %16 = bitcast i32* %arraydecay8 to i8*, !dbg !1513
  %17 = call i8* @memcpy(i8* %16, i8* bitcast (i32* getelementptr inbounds ([3 x [3 x i32]], [3 x [3 x i32]]* @acc_mem, i64 0, i64 2, i64 0) to i8*), i64 12), !dbg !1513
  %18 = bitcast i32* %op_type to i8*, !dbg !1514
  call void @klee_make_symbolic(i8* %18, i64 4, i8* getelementptr inbounds ([8 x i8], [8 x i8]* @.str, i64 0, i64 0)), !dbg !1515
  %19 = bitcast i32* %opcode to i8*, !dbg !1516
  call void @klee_make_symbolic(i8* %19, i64 4, i8* getelementptr inbounds ([7 x i8], [7 x i8]* @.str.1, i64 0, i64 0)), !dbg !1517
  call void @llvm.dbg.declare(metadata %struct.GEMM_STRUCT_REF* %gemm_base, metadata !1518, metadata !DIExpression()), !dbg !1519
  %20 = bitcast %struct.GEMM_STRUCT_REF* %gemm_base to i8*, !dbg !1519
  %21 = call i8* @memcpy(i8* %20, i8* bitcast (%struct.GEMM_STRUCT_REF* @__const.main.gemm_base to i8*), i64 24), !dbg !1519
  call void @llvm.dbg.declare(metadata %struct.INSTR* %instruction, metadata !1520, metadata !DIExpression()), !dbg !1521
  %ID = getelementptr inbounds %struct.INSTR, %struct.INSTR* %instruction, i32 0, i32 0, !dbg !1522
  store i32 0, i32* %ID, align 8, !dbg !1522
  %OPCODE = getelementptr inbounds %struct.INSTR, %struct.INSTR* %instruction, i32 0, i32 1, !dbg !1522
  store i32 2, i32* %OPCODE, align 4, !dbg !1522
  %OPTYPE = getelementptr inbounds %struct.INSTR, %struct.INSTR* %instruction, i32 0, i32 2, !dbg !1522
  store i32 0, i32* %OPTYPE, align 8, !dbg !1522
  %OPERANDS = getelementptr inbounds %struct.INSTR, %struct.INSTR* %instruction, i32 0, i32 3, !dbg !1522
  %22 = bitcast %struct.GEMM_STRUCT_REF* %OPERANDS to i8*, !dbg !1523
  %23 = bitcast %struct.GEMM_STRUCT_REF* %gemm_base to i8*, !dbg !1523
  %24 = call i8* @memcpy(i8* %22, i8* %23, i64 24), !dbg !1523
  call void @llvm.dbg.declare(metadata [9 x %struct.GEMM_STRUCT_REF]* %gemm_uop, metadata !1524, metadata !DIExpression()), !dbg !1526
  %arrayinit.begin = getelementptr inbounds [9 x %struct.GEMM_STRUCT_REF], [9 x %struct.GEMM_STRUCT_REF]* %gemm_uop, i64 0, i64 0, !dbg !1527
  %inp_mem = getelementptr inbounds %struct.GEMM_STRUCT_REF, %struct.GEMM_STRUCT_REF* %arrayinit.begin, i32 0, i32 0, !dbg !1528
  %arrayidx = getelementptr inbounds [3 x i32], [3 x i32]* %inp_mem_row0, i64 0, i64 0, !dbg !1529
  store i32* %arrayidx, i32** %inp_mem, align 8, !dbg !1528
  %wgt_mem = getelementptr inbounds %struct.GEMM_STRUCT_REF, %struct.GEMM_STRUCT_REF* %arrayinit.begin, i32 0, i32 1, !dbg !1528
  %arrayidx9 = getelementptr inbounds [3 x i32], [3 x i32]* %wgt_mem_row0, i64 0, i64 0, !dbg !1530
  store i32* %arrayidx9, i32** %wgt_mem, align 8, !dbg !1528
  %acc_mem = getelementptr inbounds %struct.GEMM_STRUCT_REF, %struct.GEMM_STRUCT_REF* %arrayinit.begin, i32 0, i32 2, !dbg !1528
  %arrayidx10 = getelementptr inbounds [3 x i32], [3 x i32]* %acc_mem_row0, i64 0, i64 0, !dbg !1531
  store i32* %arrayidx10, i32** %acc_mem, align 8, !dbg !1528
  %arrayinit.element = getelementptr inbounds %struct.GEMM_STRUCT_REF, %struct.GEMM_STRUCT_REF* %arrayinit.begin, i64 1, !dbg !1527
  %inp_mem11 = getelementptr inbounds %struct.GEMM_STRUCT_REF, %struct.GEMM_STRUCT_REF* %arrayinit.element, i32 0, i32 0, !dbg !1532
  %arrayidx12 = getelementptr inbounds [3 x i32], [3 x i32]* %inp_mem_row0, i64 0, i64 0, !dbg !1533
  store i32* %arrayidx12, i32** %inp_mem11, align 8, !dbg !1532
  %wgt_mem13 = getelementptr inbounds %struct.GEMM_STRUCT_REF, %struct.GEMM_STRUCT_REF* %arrayinit.element, i32 0, i32 1, !dbg !1532
  %arrayidx14 = getelementptr inbounds [3 x i32], [3 x i32]* %wgt_mem_row1, i64 0, i64 0, !dbg !1534
  store i32* %arrayidx14, i32** %wgt_mem13, align 8, !dbg !1532
  %acc_mem15 = getelementptr inbounds %struct.GEMM_STRUCT_REF, %struct.GEMM_STRUCT_REF* %arrayinit.element, i32 0, i32 2, !dbg !1532
  %arrayidx16 = getelementptr inbounds [3 x i32], [3 x i32]* %acc_mem_row0, i64 0, i64 1, !dbg !1535
  store i32* %arrayidx16, i32** %acc_mem15, align 8, !dbg !1532
  %arrayinit.element17 = getelementptr inbounds %struct.GEMM_STRUCT_REF, %struct.GEMM_STRUCT_REF* %arrayinit.element, i64 1, !dbg !1527
  %inp_mem18 = getelementptr inbounds %struct.GEMM_STRUCT_REF, %struct.GEMM_STRUCT_REF* %arrayinit.element17, i32 0, i32 0, !dbg !1536
  %arrayidx19 = getelementptr inbounds [3 x i32], [3 x i32]* %inp_mem_row0, i64 0, i64 0, !dbg !1537
  store i32* %arrayidx19, i32** %inp_mem18, align 8, !dbg !1536
  %wgt_mem20 = getelementptr inbounds %struct.GEMM_STRUCT_REF, %struct.GEMM_STRUCT_REF* %arrayinit.element17, i32 0, i32 1, !dbg !1536
  %arrayidx21 = getelementptr inbounds [3 x i32], [3 x i32]* %wgt_mem_row2, i64 0, i64 0, !dbg !1538
  store i32* %arrayidx21, i32** %wgt_mem20, align 8, !dbg !1536
  %acc_mem22 = getelementptr inbounds %struct.GEMM_STRUCT_REF, %struct.GEMM_STRUCT_REF* %arrayinit.element17, i32 0, i32 2, !dbg !1536
  %arrayidx23 = getelementptr inbounds [3 x i32], [3 x i32]* %acc_mem_row0, i64 0, i64 2, !dbg !1539
  store i32* %arrayidx23, i32** %acc_mem22, align 8, !dbg !1536
  %arrayinit.element24 = getelementptr inbounds %struct.GEMM_STRUCT_REF, %struct.GEMM_STRUCT_REF* %arrayinit.element17, i64 1, !dbg !1527
  %inp_mem25 = getelementptr inbounds %struct.GEMM_STRUCT_REF, %struct.GEMM_STRUCT_REF* %arrayinit.element24, i32 0, i32 0, !dbg !1540
  %arrayidx26 = getelementptr inbounds [3 x i32], [3 x i32]* %inp_mem_row1, i64 0, i64 0, !dbg !1541
  store i32* %arrayidx26, i32** %inp_mem25, align 8, !dbg !1540
  %wgt_mem27 = getelementptr inbounds %struct.GEMM_STRUCT_REF, %struct.GEMM_STRUCT_REF* %arrayinit.element24, i32 0, i32 1, !dbg !1540
  %arrayidx28 = getelementptr inbounds [3 x i32], [3 x i32]* %wgt_mem_row0, i64 0, i64 0, !dbg !1542
  store i32* %arrayidx28, i32** %wgt_mem27, align 8, !dbg !1540
  %acc_mem29 = getelementptr inbounds %struct.GEMM_STRUCT_REF, %struct.GEMM_STRUCT_REF* %arrayinit.element24, i32 0, i32 2, !dbg !1540
  %arrayidx30 = getelementptr inbounds [3 x i32], [3 x i32]* %acc_mem_row1, i64 0, i64 0, !dbg !1543
  store i32* %arrayidx30, i32** %acc_mem29, align 8, !dbg !1540
  %arrayinit.element31 = getelementptr inbounds %struct.GEMM_STRUCT_REF, %struct.GEMM_STRUCT_REF* %arrayinit.element24, i64 1, !dbg !1527
  %inp_mem32 = getelementptr inbounds %struct.GEMM_STRUCT_REF, %struct.GEMM_STRUCT_REF* %arrayinit.element31, i32 0, i32 0, !dbg !1544
  %arrayidx33 = getelementptr inbounds [3 x i32], [3 x i32]* %inp_mem_row1, i64 0, i64 0, !dbg !1545
  store i32* %arrayidx33, i32** %inp_mem32, align 8, !dbg !1544
  %wgt_mem34 = getelementptr inbounds %struct.GEMM_STRUCT_REF, %struct.GEMM_STRUCT_REF* %arrayinit.element31, i32 0, i32 1, !dbg !1544
  %arrayidx35 = getelementptr inbounds [3 x i32], [3 x i32]* %wgt_mem_row1, i64 0, i64 0, !dbg !1546
  store i32* %arrayidx35, i32** %wgt_mem34, align 8, !dbg !1544
  %acc_mem36 = getelementptr inbounds %struct.GEMM_STRUCT_REF, %struct.GEMM_STRUCT_REF* %arrayinit.element31, i32 0, i32 2, !dbg !1544
  %arrayidx37 = getelementptr inbounds [3 x i32], [3 x i32]* %acc_mem_row1, i64 0, i64 1, !dbg !1547
  store i32* %arrayidx37, i32** %acc_mem36, align 8, !dbg !1544
  %arrayinit.element38 = getelementptr inbounds %struct.GEMM_STRUCT_REF, %struct.GEMM_STRUCT_REF* %arrayinit.element31, i64 1, !dbg !1527
  %inp_mem39 = getelementptr inbounds %struct.GEMM_STRUCT_REF, %struct.GEMM_STRUCT_REF* %arrayinit.element38, i32 0, i32 0, !dbg !1548
  %arrayidx40 = getelementptr inbounds [3 x i32], [3 x i32]* %inp_mem_row1, i64 0, i64 0, !dbg !1549
  store i32* %arrayidx40, i32** %inp_mem39, align 8, !dbg !1548
  %wgt_mem41 = getelementptr inbounds %struct.GEMM_STRUCT_REF, %struct.GEMM_STRUCT_REF* %arrayinit.element38, i32 0, i32 1, !dbg !1548
  %arrayidx42 = getelementptr inbounds [3 x i32], [3 x i32]* %wgt_mem_row2, i64 0, i64 0, !dbg !1550
  store i32* %arrayidx42, i32** %wgt_mem41, align 8, !dbg !1548
  %acc_mem43 = getelementptr inbounds %struct.GEMM_STRUCT_REF, %struct.GEMM_STRUCT_REF* %arrayinit.element38, i32 0, i32 2, !dbg !1548
  %arrayidx44 = getelementptr inbounds [3 x i32], [3 x i32]* %acc_mem_row1, i64 0, i64 2, !dbg !1551
  store i32* %arrayidx44, i32** %acc_mem43, align 8, !dbg !1548
  %arrayinit.element45 = getelementptr inbounds %struct.GEMM_STRUCT_REF, %struct.GEMM_STRUCT_REF* %arrayinit.element38, i64 1, !dbg !1527
  %inp_mem46 = getelementptr inbounds %struct.GEMM_STRUCT_REF, %struct.GEMM_STRUCT_REF* %arrayinit.element45, i32 0, i32 0, !dbg !1552
  %arrayidx47 = getelementptr inbounds [3 x i32], [3 x i32]* %inp_mem_row2, i64 0, i64 0, !dbg !1553
  store i32* %arrayidx47, i32** %inp_mem46, align 8, !dbg !1552
  %wgt_mem48 = getelementptr inbounds %struct.GEMM_STRUCT_REF, %struct.GEMM_STRUCT_REF* %arrayinit.element45, i32 0, i32 1, !dbg !1552
  %arrayidx49 = getelementptr inbounds [3 x i32], [3 x i32]* %wgt_mem_row0, i64 0, i64 0, !dbg !1554
  store i32* %arrayidx49, i32** %wgt_mem48, align 8, !dbg !1552
  %acc_mem50 = getelementptr inbounds %struct.GEMM_STRUCT_REF, %struct.GEMM_STRUCT_REF* %arrayinit.element45, i32 0, i32 2, !dbg !1552
  %arrayidx51 = getelementptr inbounds [3 x i32], [3 x i32]* %acc_mem_row2, i64 0, i64 0, !dbg !1555
  store i32* %arrayidx51, i32** %acc_mem50, align 8, !dbg !1552
  %arrayinit.element52 = getelementptr inbounds %struct.GEMM_STRUCT_REF, %struct.GEMM_STRUCT_REF* %arrayinit.element45, i64 1, !dbg !1527
  %inp_mem53 = getelementptr inbounds %struct.GEMM_STRUCT_REF, %struct.GEMM_STRUCT_REF* %arrayinit.element52, i32 0, i32 0, !dbg !1556
  %arrayidx54 = getelementptr inbounds [3 x i32], [3 x i32]* %inp_mem_row2, i64 0, i64 0, !dbg !1557
  store i32* %arrayidx54, i32** %inp_mem53, align 8, !dbg !1556
  %wgt_mem55 = getelementptr inbounds %struct.GEMM_STRUCT_REF, %struct.GEMM_STRUCT_REF* %arrayinit.element52, i32 0, i32 1, !dbg !1556
  %arrayidx56 = getelementptr inbounds [3 x i32], [3 x i32]* %wgt_mem_row1, i64 0, i64 0, !dbg !1558
  store i32* %arrayidx56, i32** %wgt_mem55, align 8, !dbg !1556
  %acc_mem57 = getelementptr inbounds %struct.GEMM_STRUCT_REF, %struct.GEMM_STRUCT_REF* %arrayinit.element52, i32 0, i32 2, !dbg !1556
  %arrayidx58 = getelementptr inbounds [3 x i32], [3 x i32]* %acc_mem_row2, i64 0, i64 1, !dbg !1559
  store i32* %arrayidx58, i32** %acc_mem57, align 8, !dbg !1556
  %arrayinit.element59 = getelementptr inbounds %struct.GEMM_STRUCT_REF, %struct.GEMM_STRUCT_REF* %arrayinit.element52, i64 1, !dbg !1527
  %inp_mem60 = getelementptr inbounds %struct.GEMM_STRUCT_REF, %struct.GEMM_STRUCT_REF* %arrayinit.element59, i32 0, i32 0, !dbg !1560
  %arrayidx61 = getelementptr inbounds [3 x i32], [3 x i32]* %inp_mem_row2, i64 0, i64 0, !dbg !1561
  store i32* %arrayidx61, i32** %inp_mem60, align 8, !dbg !1560
  %wgt_mem62 = getelementptr inbounds %struct.GEMM_STRUCT_REF, %struct.GEMM_STRUCT_REF* %arrayinit.element59, i32 0, i32 1, !dbg !1560
  %arrayidx63 = getelementptr inbounds [3 x i32], [3 x i32]* %wgt_mem_row2, i64 0, i64 0, !dbg !1562
  store i32* %arrayidx63, i32** %wgt_mem62, align 8, !dbg !1560
  %acc_mem64 = getelementptr inbounds %struct.GEMM_STRUCT_REF, %struct.GEMM_STRUCT_REF* %arrayinit.element59, i32 0, i32 2, !dbg !1560
  %arrayidx65 = getelementptr inbounds [3 x i32], [3 x i32]* %acc_mem_row2, i64 0, i64 2, !dbg !1563
  store i32* %arrayidx65, i32** %acc_mem64, align 8, !dbg !1560
  call void @llvm.dbg.declare(metadata [9 x %struct.GEMM_STRUCT_VAL]* %gemm, metadata !1564, metadata !DIExpression()), !dbg !1566
  %arrayinit.begin66 = getelementptr inbounds [9 x %struct.GEMM_STRUCT_VAL], [9 x %struct.GEMM_STRUCT_VAL]* %gemm, i64 0, i64 0, !dbg !1567
  %inp_mem67 = getelementptr inbounds %struct.GEMM_STRUCT_VAL, %struct.GEMM_STRUCT_VAL* %arrayinit.begin66, i32 0, i32 0, !dbg !1568
  %arrayidx68 = getelementptr inbounds [3 x i32], [3 x i32]* %inp_mem_row0, i64 0, i64 0, !dbg !1569
  %25 = load i32, i32* %arrayidx68, align 4, !dbg !1569
  store i32 %25, i32* %inp_mem67, align 4, !dbg !1568
  %wgt_mem69 = getelementptr inbounds %struct.GEMM_STRUCT_VAL, %struct.GEMM_STRUCT_VAL* %arrayinit.begin66, i32 0, i32 1, !dbg !1568
  %arrayidx70 = getelementptr inbounds [3 x i32], [3 x i32]* %wgt_mem_row0, i64 0, i64 0, !dbg !1570
  %26 = load i32, i32* %arrayidx70, align 4, !dbg !1570
  store i32 %26, i32* %wgt_mem69, align 4, !dbg !1568
  %acc_mem71 = getelementptr inbounds %struct.GEMM_STRUCT_VAL, %struct.GEMM_STRUCT_VAL* %arrayinit.begin66, i32 0, i32 2, !dbg !1568
  %arrayidx72 = getelementptr inbounds [3 x i32], [3 x i32]* %acc_mem_row0, i64 0, i64 0, !dbg !1571
  %27 = load i32, i32* %arrayidx72, align 4, !dbg !1571
  store i32 %27, i32* %acc_mem71, align 4, !dbg !1568
  %arrayinit.element73 = getelementptr inbounds %struct.GEMM_STRUCT_VAL, %struct.GEMM_STRUCT_VAL* %arrayinit.begin66, i64 1, !dbg !1567
  %inp_mem74 = getelementptr inbounds %struct.GEMM_STRUCT_VAL, %struct.GEMM_STRUCT_VAL* %arrayinit.element73, i32 0, i32 0, !dbg !1572
  %arrayidx75 = getelementptr inbounds [3 x i32], [3 x i32]* %inp_mem_row0, i64 0, i64 0, !dbg !1573
  %28 = load i32, i32* %arrayidx75, align 4, !dbg !1573
  store i32 %28, i32* %inp_mem74, align 4, !dbg !1572
  %wgt_mem76 = getelementptr inbounds %struct.GEMM_STRUCT_VAL, %struct.GEMM_STRUCT_VAL* %arrayinit.element73, i32 0, i32 1, !dbg !1572
  %arrayidx77 = getelementptr inbounds [3 x i32], [3 x i32]* %wgt_mem_row1, i64 0, i64 0, !dbg !1574
  %29 = load i32, i32* %arrayidx77, align 4, !dbg !1574
  store i32 %29, i32* %wgt_mem76, align 4, !dbg !1572
  %acc_mem78 = getelementptr inbounds %struct.GEMM_STRUCT_VAL, %struct.GEMM_STRUCT_VAL* %arrayinit.element73, i32 0, i32 2, !dbg !1572
  %arrayidx79 = getelementptr inbounds [3 x i32], [3 x i32]* %acc_mem_row0, i64 0, i64 1, !dbg !1575
  %30 = load i32, i32* %arrayidx79, align 4, !dbg !1575
  store i32 %30, i32* %acc_mem78, align 4, !dbg !1572
  %arrayinit.element80 = getelementptr inbounds %struct.GEMM_STRUCT_VAL, %struct.GEMM_STRUCT_VAL* %arrayinit.element73, i64 1, !dbg !1567
  %inp_mem81 = getelementptr inbounds %struct.GEMM_STRUCT_VAL, %struct.GEMM_STRUCT_VAL* %arrayinit.element80, i32 0, i32 0, !dbg !1576
  %arrayidx82 = getelementptr inbounds [3 x i32], [3 x i32]* %inp_mem_row0, i64 0, i64 0, !dbg !1577
  %31 = load i32, i32* %arrayidx82, align 4, !dbg !1577
  store i32 %31, i32* %inp_mem81, align 4, !dbg !1576
  %wgt_mem83 = getelementptr inbounds %struct.GEMM_STRUCT_VAL, %struct.GEMM_STRUCT_VAL* %arrayinit.element80, i32 0, i32 1, !dbg !1576
  %arrayidx84 = getelementptr inbounds [3 x i32], [3 x i32]* %wgt_mem_row2, i64 0, i64 0, !dbg !1578
  %32 = load i32, i32* %arrayidx84, align 4, !dbg !1578
  store i32 %32, i32* %wgt_mem83, align 4, !dbg !1576
  %acc_mem85 = getelementptr inbounds %struct.GEMM_STRUCT_VAL, %struct.GEMM_STRUCT_VAL* %arrayinit.element80, i32 0, i32 2, !dbg !1576
  %arrayidx86 = getelementptr inbounds [3 x i32], [3 x i32]* %acc_mem_row0, i64 0, i64 2, !dbg !1579
  %33 = load i32, i32* %arrayidx86, align 4, !dbg !1579
  store i32 %33, i32* %acc_mem85, align 4, !dbg !1576
  %arrayinit.element87 = getelementptr inbounds %struct.GEMM_STRUCT_VAL, %struct.GEMM_STRUCT_VAL* %arrayinit.element80, i64 1, !dbg !1567
  %inp_mem88 = getelementptr inbounds %struct.GEMM_STRUCT_VAL, %struct.GEMM_STRUCT_VAL* %arrayinit.element87, i32 0, i32 0, !dbg !1580
  %arrayidx89 = getelementptr inbounds [3 x i32], [3 x i32]* %inp_mem_row1, i64 0, i64 0, !dbg !1581
  %34 = load i32, i32* %arrayidx89, align 4, !dbg !1581
  store i32 %34, i32* %inp_mem88, align 4, !dbg !1580
  %wgt_mem90 = getelementptr inbounds %struct.GEMM_STRUCT_VAL, %struct.GEMM_STRUCT_VAL* %arrayinit.element87, i32 0, i32 1, !dbg !1580
  %arrayidx91 = getelementptr inbounds [3 x i32], [3 x i32]* %wgt_mem_row0, i64 0, i64 0, !dbg !1582
  %35 = load i32, i32* %arrayidx91, align 4, !dbg !1582
  store i32 %35, i32* %wgt_mem90, align 4, !dbg !1580
  %acc_mem92 = getelementptr inbounds %struct.GEMM_STRUCT_VAL, %struct.GEMM_STRUCT_VAL* %arrayinit.element87, i32 0, i32 2, !dbg !1580
  %arrayidx93 = getelementptr inbounds [3 x i32], [3 x i32]* %acc_mem_row1, i64 0, i64 0, !dbg !1583
  %36 = load i32, i32* %arrayidx93, align 4, !dbg !1583
  store i32 %36, i32* %acc_mem92, align 4, !dbg !1580
  %arrayinit.element94 = getelementptr inbounds %struct.GEMM_STRUCT_VAL, %struct.GEMM_STRUCT_VAL* %arrayinit.element87, i64 1, !dbg !1567
  %inp_mem95 = getelementptr inbounds %struct.GEMM_STRUCT_VAL, %struct.GEMM_STRUCT_VAL* %arrayinit.element94, i32 0, i32 0, !dbg !1584
  %arrayidx96 = getelementptr inbounds [3 x i32], [3 x i32]* %inp_mem_row1, i64 0, i64 0, !dbg !1585
  %37 = load i32, i32* %arrayidx96, align 4, !dbg !1585
  store i32 %37, i32* %inp_mem95, align 4, !dbg !1584
  %wgt_mem97 = getelementptr inbounds %struct.GEMM_STRUCT_VAL, %struct.GEMM_STRUCT_VAL* %arrayinit.element94, i32 0, i32 1, !dbg !1584
  %arrayidx98 = getelementptr inbounds [3 x i32], [3 x i32]* %wgt_mem_row1, i64 0, i64 0, !dbg !1586
  %38 = load i32, i32* %arrayidx98, align 4, !dbg !1586
  store i32 %38, i32* %wgt_mem97, align 4, !dbg !1584
  %acc_mem99 = getelementptr inbounds %struct.GEMM_STRUCT_VAL, %struct.GEMM_STRUCT_VAL* %arrayinit.element94, i32 0, i32 2, !dbg !1584
  %arrayidx100 = getelementptr inbounds [3 x i32], [3 x i32]* %acc_mem_row1, i64 0, i64 1, !dbg !1587
  %39 = load i32, i32* %arrayidx100, align 4, !dbg !1587
  store i32 %39, i32* %acc_mem99, align 4, !dbg !1584
  %arrayinit.element101 = getelementptr inbounds %struct.GEMM_STRUCT_VAL, %struct.GEMM_STRUCT_VAL* %arrayinit.element94, i64 1, !dbg !1567
  %inp_mem102 = getelementptr inbounds %struct.GEMM_STRUCT_VAL, %struct.GEMM_STRUCT_VAL* %arrayinit.element101, i32 0, i32 0, !dbg !1588
  %arrayidx103 = getelementptr inbounds [3 x i32], [3 x i32]* %inp_mem_row1, i64 0, i64 0, !dbg !1589
  %40 = load i32, i32* %arrayidx103, align 4, !dbg !1589
  store i32 %40, i32* %inp_mem102, align 4, !dbg !1588
  %wgt_mem104 = getelementptr inbounds %struct.GEMM_STRUCT_VAL, %struct.GEMM_STRUCT_VAL* %arrayinit.element101, i32 0, i32 1, !dbg !1588
  %arrayidx105 = getelementptr inbounds [3 x i32], [3 x i32]* %wgt_mem_row2, i64 0, i64 0, !dbg !1590
  %41 = load i32, i32* %arrayidx105, align 4, !dbg !1590
  store i32 %41, i32* %wgt_mem104, align 4, !dbg !1588
  %acc_mem106 = getelementptr inbounds %struct.GEMM_STRUCT_VAL, %struct.GEMM_STRUCT_VAL* %arrayinit.element101, i32 0, i32 2, !dbg !1588
  %arrayidx107 = getelementptr inbounds [3 x i32], [3 x i32]* %acc_mem_row1, i64 0, i64 2, !dbg !1591
  %42 = load i32, i32* %arrayidx107, align 4, !dbg !1591
  store i32 %42, i32* %acc_mem106, align 4, !dbg !1588
  %arrayinit.element108 = getelementptr inbounds %struct.GEMM_STRUCT_VAL, %struct.GEMM_STRUCT_VAL* %arrayinit.element101, i64 1, !dbg !1567
  %inp_mem109 = getelementptr inbounds %struct.GEMM_STRUCT_VAL, %struct.GEMM_STRUCT_VAL* %arrayinit.element108, i32 0, i32 0, !dbg !1592
  %arrayidx110 = getelementptr inbounds [3 x i32], [3 x i32]* %inp_mem_row2, i64 0, i64 0, !dbg !1593
  %43 = load i32, i32* %arrayidx110, align 4, !dbg !1593
  store i32 %43, i32* %inp_mem109, align 4, !dbg !1592
  %wgt_mem111 = getelementptr inbounds %struct.GEMM_STRUCT_VAL, %struct.GEMM_STRUCT_VAL* %arrayinit.element108, i32 0, i32 1, !dbg !1592
  %arrayidx112 = getelementptr inbounds [3 x i32], [3 x i32]* %wgt_mem_row0, i64 0, i64 0, !dbg !1594
  %44 = load i32, i32* %arrayidx112, align 4, !dbg !1594
  store i32 %44, i32* %wgt_mem111, align 4, !dbg !1592
  %acc_mem113 = getelementptr inbounds %struct.GEMM_STRUCT_VAL, %struct.GEMM_STRUCT_VAL* %arrayinit.element108, i32 0, i32 2, !dbg !1592
  %arrayidx114 = getelementptr inbounds [3 x i32], [3 x i32]* %acc_mem_row2, i64 0, i64 0, !dbg !1595
  %45 = load i32, i32* %arrayidx114, align 4, !dbg !1595
  store i32 %45, i32* %acc_mem113, align 4, !dbg !1592
  %arrayinit.element115 = getelementptr inbounds %struct.GEMM_STRUCT_VAL, %struct.GEMM_STRUCT_VAL* %arrayinit.element108, i64 1, !dbg !1567
  %inp_mem116 = getelementptr inbounds %struct.GEMM_STRUCT_VAL, %struct.GEMM_STRUCT_VAL* %arrayinit.element115, i32 0, i32 0, !dbg !1596
  %arrayidx117 = getelementptr inbounds [3 x i32], [3 x i32]* %inp_mem_row2, i64 0, i64 0, !dbg !1597
  %46 = load i32, i32* %arrayidx117, align 4, !dbg !1597
  store i32 %46, i32* %inp_mem116, align 4, !dbg !1596
  %wgt_mem118 = getelementptr inbounds %struct.GEMM_STRUCT_VAL, %struct.GEMM_STRUCT_VAL* %arrayinit.element115, i32 0, i32 1, !dbg !1596
  %arrayidx119 = getelementptr inbounds [3 x i32], [3 x i32]* %wgt_mem_row1, i64 0, i64 0, !dbg !1598
  %47 = load i32, i32* %arrayidx119, align 4, !dbg !1598
  store i32 %47, i32* %wgt_mem118, align 4, !dbg !1596
  %acc_mem120 = getelementptr inbounds %struct.GEMM_STRUCT_VAL, %struct.GEMM_STRUCT_VAL* %arrayinit.element115, i32 0, i32 2, !dbg !1596
  %arrayidx121 = getelementptr inbounds [3 x i32], [3 x i32]* %acc_mem_row2, i64 0, i64 1, !dbg !1599
  %48 = load i32, i32* %arrayidx121, align 4, !dbg !1599
  store i32 %48, i32* %acc_mem120, align 4, !dbg !1596
  %arrayinit.element122 = getelementptr inbounds %struct.GEMM_STRUCT_VAL, %struct.GEMM_STRUCT_VAL* %arrayinit.element115, i64 1, !dbg !1567
  %inp_mem123 = getelementptr inbounds %struct.GEMM_STRUCT_VAL, %struct.GEMM_STRUCT_VAL* %arrayinit.element122, i32 0, i32 0, !dbg !1600
  %arrayidx124 = getelementptr inbounds [3 x i32], [3 x i32]* %inp_mem_row2, i64 0, i64 0, !dbg !1601
  %49 = load i32, i32* %arrayidx124, align 4, !dbg !1601
  store i32 %49, i32* %inp_mem123, align 4, !dbg !1600
  %wgt_mem125 = getelementptr inbounds %struct.GEMM_STRUCT_VAL, %struct.GEMM_STRUCT_VAL* %arrayinit.element122, i32 0, i32 1, !dbg !1600
  %arrayidx126 = getelementptr inbounds [3 x i32], [3 x i32]* %wgt_mem_row2, i64 0, i64 0, !dbg !1602
  %50 = load i32, i32* %arrayidx126, align 4, !dbg !1602
  store i32 %50, i32* %wgt_mem125, align 4, !dbg !1600
  %acc_mem127 = getelementptr inbounds %struct.GEMM_STRUCT_VAL, %struct.GEMM_STRUCT_VAL* %arrayinit.element122, i32 0, i32 2, !dbg !1600
  %arrayidx128 = getelementptr inbounds [3 x i32], [3 x i32]* %acc_mem_row2, i64 0, i64 2, !dbg !1603
  %51 = load i32, i32* %arrayidx128, align 4, !dbg !1603
  store i32 %51, i32* %acc_mem127, align 4, !dbg !1600
  call void @llvm.dbg.declare(metadata [9 x %struct.INSTR]* %microop, metadata !1604, metadata !DIExpression()), !dbg !1606
  %arrayinit.begin129 = getelementptr inbounds [9 x %struct.INSTR], [9 x %struct.INSTR]* %microop, i64 0, i64 0, !dbg !1607
  %ID130 = getelementptr inbounds %struct.INSTR, %struct.INSTR* %arrayinit.begin129, i32 0, i32 0, !dbg !1608
  store i32 0, i32* %ID130, align 8, !dbg !1608
  %OPCODE131 = getelementptr inbounds %struct.INSTR, %struct.INSTR* %arrayinit.begin129, i32 0, i32 1, !dbg !1608
  store i32 2, i32* %OPCODE131, align 4, !dbg !1608
  %OPTYPE132 = getelementptr inbounds %struct.INSTR, %struct.INSTR* %arrayinit.begin129, i32 0, i32 2, !dbg !1608
  store i32 0, i32* %OPTYPE132, align 8, !dbg !1608
  %OPERANDS133 = getelementptr inbounds %struct.INSTR, %struct.INSTR* %arrayinit.begin129, i32 0, i32 3, !dbg !1608
  %arrayidx134 = getelementptr inbounds [9 x %struct.GEMM_STRUCT_REF], [9 x %struct.GEMM_STRUCT_REF]* %gemm_uop, i64 0, i64 0, !dbg !1609
  %52 = bitcast %struct.GEMM_STRUCT_REF* %OPERANDS133 to i8*, !dbg !1609
  %53 = bitcast %struct.GEMM_STRUCT_REF* %arrayidx134 to i8*, !dbg !1609
  %54 = call i8* @memcpy(i8* %52, i8* %53, i64 24), !dbg !1609
  %arrayinit.element135 = getelementptr inbounds %struct.INSTR, %struct.INSTR* %arrayinit.begin129, i64 1, !dbg !1607
  %ID136 = getelementptr inbounds %struct.INSTR, %struct.INSTR* %arrayinit.element135, i32 0, i32 0, !dbg !1610
  store i32 1, i32* %ID136, align 8, !dbg !1610
  %OPCODE137 = getelementptr inbounds %struct.INSTR, %struct.INSTR* %arrayinit.element135, i32 0, i32 1, !dbg !1610
  store i32 2, i32* %OPCODE137, align 4, !dbg !1610
  %OPTYPE138 = getelementptr inbounds %struct.INSTR, %struct.INSTR* %arrayinit.element135, i32 0, i32 2, !dbg !1610
  store i32 0, i32* %OPTYPE138, align 8, !dbg !1610
  %OPERANDS139 = getelementptr inbounds %struct.INSTR, %struct.INSTR* %arrayinit.element135, i32 0, i32 3, !dbg !1610
  %arrayidx140 = getelementptr inbounds [9 x %struct.GEMM_STRUCT_REF], [9 x %struct.GEMM_STRUCT_REF]* %gemm_uop, i64 0, i64 1, !dbg !1611
  %55 = bitcast %struct.GEMM_STRUCT_REF* %OPERANDS139 to i8*, !dbg !1611
  %56 = bitcast %struct.GEMM_STRUCT_REF* %arrayidx140 to i8*, !dbg !1611
  %57 = call i8* @memcpy(i8* %55, i8* %56, i64 24), !dbg !1611
  %arrayinit.element141 = getelementptr inbounds %struct.INSTR, %struct.INSTR* %arrayinit.element135, i64 1, !dbg !1607
  %ID142 = getelementptr inbounds %struct.INSTR, %struct.INSTR* %arrayinit.element141, i32 0, i32 0, !dbg !1612
  store i32 2, i32* %ID142, align 8, !dbg !1612
  %OPCODE143 = getelementptr inbounds %struct.INSTR, %struct.INSTR* %arrayinit.element141, i32 0, i32 1, !dbg !1612
  store i32 2, i32* %OPCODE143, align 4, !dbg !1612
  %OPTYPE144 = getelementptr inbounds %struct.INSTR, %struct.INSTR* %arrayinit.element141, i32 0, i32 2, !dbg !1612
  store i32 0, i32* %OPTYPE144, align 8, !dbg !1612
  %OPERANDS145 = getelementptr inbounds %struct.INSTR, %struct.INSTR* %arrayinit.element141, i32 0, i32 3, !dbg !1612
  %arrayidx146 = getelementptr inbounds [9 x %struct.GEMM_STRUCT_REF], [9 x %struct.GEMM_STRUCT_REF]* %gemm_uop, i64 0, i64 2, !dbg !1613
  %58 = bitcast %struct.GEMM_STRUCT_REF* %OPERANDS145 to i8*, !dbg !1613
  %59 = bitcast %struct.GEMM_STRUCT_REF* %arrayidx146 to i8*, !dbg !1613
  %60 = call i8* @memcpy(i8* %58, i8* %59, i64 24), !dbg !1613
  %arrayinit.element147 = getelementptr inbounds %struct.INSTR, %struct.INSTR* %arrayinit.element141, i64 1, !dbg !1607
  %ID148 = getelementptr inbounds %struct.INSTR, %struct.INSTR* %arrayinit.element147, i32 0, i32 0, !dbg !1614
  store i32 3, i32* %ID148, align 8, !dbg !1614
  %OPCODE149 = getelementptr inbounds %struct.INSTR, %struct.INSTR* %arrayinit.element147, i32 0, i32 1, !dbg !1614
  store i32 2, i32* %OPCODE149, align 4, !dbg !1614
  %OPTYPE150 = getelementptr inbounds %struct.INSTR, %struct.INSTR* %arrayinit.element147, i32 0, i32 2, !dbg !1614
  store i32 0, i32* %OPTYPE150, align 8, !dbg !1614
  %OPERANDS151 = getelementptr inbounds %struct.INSTR, %struct.INSTR* %arrayinit.element147, i32 0, i32 3, !dbg !1614
  %arrayidx152 = getelementptr inbounds [9 x %struct.GEMM_STRUCT_REF], [9 x %struct.GEMM_STRUCT_REF]* %gemm_uop, i64 0, i64 3, !dbg !1615
  %61 = bitcast %struct.GEMM_STRUCT_REF* %OPERANDS151 to i8*, !dbg !1615
  %62 = bitcast %struct.GEMM_STRUCT_REF* %arrayidx152 to i8*, !dbg !1615
  %63 = call i8* @memcpy(i8* %61, i8* %62, i64 24), !dbg !1615
  %arrayinit.element153 = getelementptr inbounds %struct.INSTR, %struct.INSTR* %arrayinit.element147, i64 1, !dbg !1607
  %ID154 = getelementptr inbounds %struct.INSTR, %struct.INSTR* %arrayinit.element153, i32 0, i32 0, !dbg !1616
  store i32 4, i32* %ID154, align 8, !dbg !1616
  %OPCODE155 = getelementptr inbounds %struct.INSTR, %struct.INSTR* %arrayinit.element153, i32 0, i32 1, !dbg !1616
  store i32 2, i32* %OPCODE155, align 4, !dbg !1616
  %OPTYPE156 = getelementptr inbounds %struct.INSTR, %struct.INSTR* %arrayinit.element153, i32 0, i32 2, !dbg !1616
  store i32 0, i32* %OPTYPE156, align 8, !dbg !1616
  %OPERANDS157 = getelementptr inbounds %struct.INSTR, %struct.INSTR* %arrayinit.element153, i32 0, i32 3, !dbg !1616
  %arrayidx158 = getelementptr inbounds [9 x %struct.GEMM_STRUCT_REF], [9 x %struct.GEMM_STRUCT_REF]* %gemm_uop, i64 0, i64 4, !dbg !1617
  %64 = bitcast %struct.GEMM_STRUCT_REF* %OPERANDS157 to i8*, !dbg !1617
  %65 = bitcast %struct.GEMM_STRUCT_REF* %arrayidx158 to i8*, !dbg !1617
  %66 = call i8* @memcpy(i8* %64, i8* %65, i64 24), !dbg !1617
  %arrayinit.element159 = getelementptr inbounds %struct.INSTR, %struct.INSTR* %arrayinit.element153, i64 1, !dbg !1607
  %ID160 = getelementptr inbounds %struct.INSTR, %struct.INSTR* %arrayinit.element159, i32 0, i32 0, !dbg !1618
  store i32 5, i32* %ID160, align 8, !dbg !1618
  %OPCODE161 = getelementptr inbounds %struct.INSTR, %struct.INSTR* %arrayinit.element159, i32 0, i32 1, !dbg !1618
  store i32 2, i32* %OPCODE161, align 4, !dbg !1618
  %OPTYPE162 = getelementptr inbounds %struct.INSTR, %struct.INSTR* %arrayinit.element159, i32 0, i32 2, !dbg !1618
  store i32 0, i32* %OPTYPE162, align 8, !dbg !1618
  %OPERANDS163 = getelementptr inbounds %struct.INSTR, %struct.INSTR* %arrayinit.element159, i32 0, i32 3, !dbg !1618
  %arrayidx164 = getelementptr inbounds [9 x %struct.GEMM_STRUCT_REF], [9 x %struct.GEMM_STRUCT_REF]* %gemm_uop, i64 0, i64 5, !dbg !1619
  %67 = bitcast %struct.GEMM_STRUCT_REF* %OPERANDS163 to i8*, !dbg !1619
  %68 = bitcast %struct.GEMM_STRUCT_REF* %arrayidx164 to i8*, !dbg !1619
  %69 = call i8* @memcpy(i8* %67, i8* %68, i64 24), !dbg !1619
  %arrayinit.element165 = getelementptr inbounds %struct.INSTR, %struct.INSTR* %arrayinit.element159, i64 1, !dbg !1607
  %ID166 = getelementptr inbounds %struct.INSTR, %struct.INSTR* %arrayinit.element165, i32 0, i32 0, !dbg !1620
  store i32 6, i32* %ID166, align 8, !dbg !1620
  %OPCODE167 = getelementptr inbounds %struct.INSTR, %struct.INSTR* %arrayinit.element165, i32 0, i32 1, !dbg !1620
  store i32 2, i32* %OPCODE167, align 4, !dbg !1620
  %OPTYPE168 = getelementptr inbounds %struct.INSTR, %struct.INSTR* %arrayinit.element165, i32 0, i32 2, !dbg !1620
  store i32 0, i32* %OPTYPE168, align 8, !dbg !1620
  %OPERANDS169 = getelementptr inbounds %struct.INSTR, %struct.INSTR* %arrayinit.element165, i32 0, i32 3, !dbg !1620
  %arrayidx170 = getelementptr inbounds [9 x %struct.GEMM_STRUCT_REF], [9 x %struct.GEMM_STRUCT_REF]* %gemm_uop, i64 0, i64 6, !dbg !1621
  %70 = bitcast %struct.GEMM_STRUCT_REF* %OPERANDS169 to i8*, !dbg !1621
  %71 = bitcast %struct.GEMM_STRUCT_REF* %arrayidx170 to i8*, !dbg !1621
  %72 = call i8* @memcpy(i8* %70, i8* %71, i64 24), !dbg !1621
  %arrayinit.element171 = getelementptr inbounds %struct.INSTR, %struct.INSTR* %arrayinit.element165, i64 1, !dbg !1607
  %ID172 = getelementptr inbounds %struct.INSTR, %struct.INSTR* %arrayinit.element171, i32 0, i32 0, !dbg !1622
  store i32 7, i32* %ID172, align 8, !dbg !1622
  %OPCODE173 = getelementptr inbounds %struct.INSTR, %struct.INSTR* %arrayinit.element171, i32 0, i32 1, !dbg !1622
  store i32 2, i32* %OPCODE173, align 4, !dbg !1622
  %OPTYPE174 = getelementptr inbounds %struct.INSTR, %struct.INSTR* %arrayinit.element171, i32 0, i32 2, !dbg !1622
  store i32 0, i32* %OPTYPE174, align 8, !dbg !1622
  %OPERANDS175 = getelementptr inbounds %struct.INSTR, %struct.INSTR* %arrayinit.element171, i32 0, i32 3, !dbg !1622
  %arrayidx176 = getelementptr inbounds [9 x %struct.GEMM_STRUCT_REF], [9 x %struct.GEMM_STRUCT_REF]* %gemm_uop, i64 0, i64 7, !dbg !1623
  %73 = bitcast %struct.GEMM_STRUCT_REF* %OPERANDS175 to i8*, !dbg !1623
  %74 = bitcast %struct.GEMM_STRUCT_REF* %arrayidx176 to i8*, !dbg !1623
  %75 = call i8* @memcpy(i8* %73, i8* %74, i64 24), !dbg !1623
  %arrayinit.element177 = getelementptr inbounds %struct.INSTR, %struct.INSTR* %arrayinit.element171, i64 1, !dbg !1607
  %ID178 = getelementptr inbounds %struct.INSTR, %struct.INSTR* %arrayinit.element177, i32 0, i32 0, !dbg !1624
  store i32 8, i32* %ID178, align 8, !dbg !1624
  %OPCODE179 = getelementptr inbounds %struct.INSTR, %struct.INSTR* %arrayinit.element177, i32 0, i32 1, !dbg !1624
  store i32 2, i32* %OPCODE179, align 4, !dbg !1624
  %OPTYPE180 = getelementptr inbounds %struct.INSTR, %struct.INSTR* %arrayinit.element177, i32 0, i32 2, !dbg !1624
  store i32 0, i32* %OPTYPE180, align 8, !dbg !1624
  %OPERANDS181 = getelementptr inbounds %struct.INSTR, %struct.INSTR* %arrayinit.element177, i32 0, i32 3, !dbg !1624
  %arrayidx182 = getelementptr inbounds [9 x %struct.GEMM_STRUCT_REF], [9 x %struct.GEMM_STRUCT_REF]* %gemm_uop, i64 0, i64 8, !dbg !1625
  %76 = bitcast %struct.GEMM_STRUCT_REF* %OPERANDS181 to i8*, !dbg !1625
  %77 = bitcast %struct.GEMM_STRUCT_REF* %arrayidx182 to i8*, !dbg !1625
  %78 = call i8* @memcpy(i8* %76, i8* %77, i64 24), !dbg !1625
  call void @llvm.dbg.declare(metadata [9 x %struct.INSTR_VAL]* %microop_val, metadata !1626, metadata !DIExpression()), !dbg !1628
  %arrayinit.begin183 = getelementptr inbounds [9 x %struct.INSTR_VAL], [9 x %struct.INSTR_VAL]* %microop_val, i64 0, i64 0, !dbg !1629
  %ID184 = getelementptr inbounds %struct.INSTR_VAL, %struct.INSTR_VAL* %arrayinit.begin183, i32 0, i32 0, !dbg !1630
  store i32 0, i32* %ID184, align 8, !dbg !1630
  %OPCODE185 = getelementptr inbounds %struct.INSTR_VAL, %struct.INSTR_VAL* %arrayinit.begin183, i32 0, i32 1, !dbg !1630
  store i32 2, i32* %OPCODE185, align 4, !dbg !1630
  %OPTYPE186 = getelementptr inbounds %struct.INSTR_VAL, %struct.INSTR_VAL* %arrayinit.begin183, i32 0, i32 2, !dbg !1630
  store i32 0, i32* %OPTYPE186, align 8, !dbg !1630
  %OPERANDS187 = getelementptr inbounds %struct.INSTR_VAL, %struct.INSTR_VAL* %arrayinit.begin183, i32 0, i32 3, !dbg !1630
  %arrayidx188 = getelementptr inbounds [9 x %struct.GEMM_STRUCT_VAL], [9 x %struct.GEMM_STRUCT_VAL]* %gemm, i64 0, i64 0, !dbg !1631
  %79 = bitcast %struct.GEMM_STRUCT_VAL* %OPERANDS187 to i8*, !dbg !1631
  %80 = bitcast %struct.GEMM_STRUCT_VAL* %arrayidx188 to i8*, !dbg !1631
  %81 = call i8* @memcpy(i8* %79, i8* %80, i64 12), !dbg !1631
  %arrayinit.element189 = getelementptr inbounds %struct.INSTR_VAL, %struct.INSTR_VAL* %arrayinit.begin183, i64 1, !dbg !1629
  %ID190 = getelementptr inbounds %struct.INSTR_VAL, %struct.INSTR_VAL* %arrayinit.element189, i32 0, i32 0, !dbg !1632
  store i32 1, i32* %ID190, align 8, !dbg !1632
  %OPCODE191 = getelementptr inbounds %struct.INSTR_VAL, %struct.INSTR_VAL* %arrayinit.element189, i32 0, i32 1, !dbg !1632
  store i32 2, i32* %OPCODE191, align 4, !dbg !1632
  %OPTYPE192 = getelementptr inbounds %struct.INSTR_VAL, %struct.INSTR_VAL* %arrayinit.element189, i32 0, i32 2, !dbg !1632
  store i32 0, i32* %OPTYPE192, align 8, !dbg !1632
  %OPERANDS193 = getelementptr inbounds %struct.INSTR_VAL, %struct.INSTR_VAL* %arrayinit.element189, i32 0, i32 3, !dbg !1632
  %arrayidx194 = getelementptr inbounds [9 x %struct.GEMM_STRUCT_VAL], [9 x %struct.GEMM_STRUCT_VAL]* %gemm, i64 0, i64 1, !dbg !1633
  %82 = bitcast %struct.GEMM_STRUCT_VAL* %OPERANDS193 to i8*, !dbg !1633
  %83 = bitcast %struct.GEMM_STRUCT_VAL* %arrayidx194 to i8*, !dbg !1633
  %84 = call i8* @memcpy(i8* %82, i8* %83, i64 12), !dbg !1633
  %arrayinit.element195 = getelementptr inbounds %struct.INSTR_VAL, %struct.INSTR_VAL* %arrayinit.element189, i64 1, !dbg !1629
  %ID196 = getelementptr inbounds %struct.INSTR_VAL, %struct.INSTR_VAL* %arrayinit.element195, i32 0, i32 0, !dbg !1634
  store i32 2, i32* %ID196, align 8, !dbg !1634
  %OPCODE197 = getelementptr inbounds %struct.INSTR_VAL, %struct.INSTR_VAL* %arrayinit.element195, i32 0, i32 1, !dbg !1634
  store i32 2, i32* %OPCODE197, align 4, !dbg !1634
  %OPTYPE198 = getelementptr inbounds %struct.INSTR_VAL, %struct.INSTR_VAL* %arrayinit.element195, i32 0, i32 2, !dbg !1634
  store i32 0, i32* %OPTYPE198, align 8, !dbg !1634
  %OPERANDS199 = getelementptr inbounds %struct.INSTR_VAL, %struct.INSTR_VAL* %arrayinit.element195, i32 0, i32 3, !dbg !1634
  %arrayidx200 = getelementptr inbounds [9 x %struct.GEMM_STRUCT_VAL], [9 x %struct.GEMM_STRUCT_VAL]* %gemm, i64 0, i64 2, !dbg !1635
  %85 = bitcast %struct.GEMM_STRUCT_VAL* %OPERANDS199 to i8*, !dbg !1635
  %86 = bitcast %struct.GEMM_STRUCT_VAL* %arrayidx200 to i8*, !dbg !1635
  %87 = call i8* @memcpy(i8* %85, i8* %86, i64 12), !dbg !1635
  %arrayinit.element201 = getelementptr inbounds %struct.INSTR_VAL, %struct.INSTR_VAL* %arrayinit.element195, i64 1, !dbg !1629
  %ID202 = getelementptr inbounds %struct.INSTR_VAL, %struct.INSTR_VAL* %arrayinit.element201, i32 0, i32 0, !dbg !1636
  store i32 3, i32* %ID202, align 8, !dbg !1636
  %OPCODE203 = getelementptr inbounds %struct.INSTR_VAL, %struct.INSTR_VAL* %arrayinit.element201, i32 0, i32 1, !dbg !1636
  store i32 2, i32* %OPCODE203, align 4, !dbg !1636
  %OPTYPE204 = getelementptr inbounds %struct.INSTR_VAL, %struct.INSTR_VAL* %arrayinit.element201, i32 0, i32 2, !dbg !1636
  store i32 0, i32* %OPTYPE204, align 8, !dbg !1636
  %OPERANDS205 = getelementptr inbounds %struct.INSTR_VAL, %struct.INSTR_VAL* %arrayinit.element201, i32 0, i32 3, !dbg !1636
  %arrayidx206 = getelementptr inbounds [9 x %struct.GEMM_STRUCT_VAL], [9 x %struct.GEMM_STRUCT_VAL]* %gemm, i64 0, i64 3, !dbg !1637
  %88 = bitcast %struct.GEMM_STRUCT_VAL* %OPERANDS205 to i8*, !dbg !1637
  %89 = bitcast %struct.GEMM_STRUCT_VAL* %arrayidx206 to i8*, !dbg !1637
  %90 = call i8* @memcpy(i8* %88, i8* %89, i64 12), !dbg !1637
  %arrayinit.element207 = getelementptr inbounds %struct.INSTR_VAL, %struct.INSTR_VAL* %arrayinit.element201, i64 1, !dbg !1629
  %ID208 = getelementptr inbounds %struct.INSTR_VAL, %struct.INSTR_VAL* %arrayinit.element207, i32 0, i32 0, !dbg !1638
  store i32 4, i32* %ID208, align 8, !dbg !1638
  %OPCODE209 = getelementptr inbounds %struct.INSTR_VAL, %struct.INSTR_VAL* %arrayinit.element207, i32 0, i32 1, !dbg !1638
  store i32 2, i32* %OPCODE209, align 4, !dbg !1638
  %OPTYPE210 = getelementptr inbounds %struct.INSTR_VAL, %struct.INSTR_VAL* %arrayinit.element207, i32 0, i32 2, !dbg !1638
  store i32 0, i32* %OPTYPE210, align 8, !dbg !1638
  %OPERANDS211 = getelementptr inbounds %struct.INSTR_VAL, %struct.INSTR_VAL* %arrayinit.element207, i32 0, i32 3, !dbg !1638
  %arrayidx212 = getelementptr inbounds [9 x %struct.GEMM_STRUCT_VAL], [9 x %struct.GEMM_STRUCT_VAL]* %gemm, i64 0, i64 4, !dbg !1639
  %91 = bitcast %struct.GEMM_STRUCT_VAL* %OPERANDS211 to i8*, !dbg !1639
  %92 = bitcast %struct.GEMM_STRUCT_VAL* %arrayidx212 to i8*, !dbg !1639
  %93 = call i8* @memcpy(i8* %91, i8* %92, i64 12), !dbg !1639
  %arrayinit.element213 = getelementptr inbounds %struct.INSTR_VAL, %struct.INSTR_VAL* %arrayinit.element207, i64 1, !dbg !1629
  %ID214 = getelementptr inbounds %struct.INSTR_VAL, %struct.INSTR_VAL* %arrayinit.element213, i32 0, i32 0, !dbg !1640
  store i32 5, i32* %ID214, align 8, !dbg !1640
  %OPCODE215 = getelementptr inbounds %struct.INSTR_VAL, %struct.INSTR_VAL* %arrayinit.element213, i32 0, i32 1, !dbg !1640
  store i32 2, i32* %OPCODE215, align 4, !dbg !1640
  %OPTYPE216 = getelementptr inbounds %struct.INSTR_VAL, %struct.INSTR_VAL* %arrayinit.element213, i32 0, i32 2, !dbg !1640
  store i32 0, i32* %OPTYPE216, align 8, !dbg !1640
  %OPERANDS217 = getelementptr inbounds %struct.INSTR_VAL, %struct.INSTR_VAL* %arrayinit.element213, i32 0, i32 3, !dbg !1640
  %arrayidx218 = getelementptr inbounds [9 x %struct.GEMM_STRUCT_VAL], [9 x %struct.GEMM_STRUCT_VAL]* %gemm, i64 0, i64 5, !dbg !1641
  %94 = bitcast %struct.GEMM_STRUCT_VAL* %OPERANDS217 to i8*, !dbg !1641
  %95 = bitcast %struct.GEMM_STRUCT_VAL* %arrayidx218 to i8*, !dbg !1641
  %96 = call i8* @memcpy(i8* %94, i8* %95, i64 12), !dbg !1641
  %arrayinit.element219 = getelementptr inbounds %struct.INSTR_VAL, %struct.INSTR_VAL* %arrayinit.element213, i64 1, !dbg !1629
  %ID220 = getelementptr inbounds %struct.INSTR_VAL, %struct.INSTR_VAL* %arrayinit.element219, i32 0, i32 0, !dbg !1642
  store i32 6, i32* %ID220, align 8, !dbg !1642
  %OPCODE221 = getelementptr inbounds %struct.INSTR_VAL, %struct.INSTR_VAL* %arrayinit.element219, i32 0, i32 1, !dbg !1642
  store i32 2, i32* %OPCODE221, align 4, !dbg !1642
  %OPTYPE222 = getelementptr inbounds %struct.INSTR_VAL, %struct.INSTR_VAL* %arrayinit.element219, i32 0, i32 2, !dbg !1642
  store i32 0, i32* %OPTYPE222, align 8, !dbg !1642
  %OPERANDS223 = getelementptr inbounds %struct.INSTR_VAL, %struct.INSTR_VAL* %arrayinit.element219, i32 0, i32 3, !dbg !1642
  %arrayidx224 = getelementptr inbounds [9 x %struct.GEMM_STRUCT_VAL], [9 x %struct.GEMM_STRUCT_VAL]* %gemm, i64 0, i64 6, !dbg !1643
  %97 = bitcast %struct.GEMM_STRUCT_VAL* %OPERANDS223 to i8*, !dbg !1643
  %98 = bitcast %struct.GEMM_STRUCT_VAL* %arrayidx224 to i8*, !dbg !1643
  %99 = call i8* @memcpy(i8* %97, i8* %98, i64 12), !dbg !1643
  %arrayinit.element225 = getelementptr inbounds %struct.INSTR_VAL, %struct.INSTR_VAL* %arrayinit.element219, i64 1, !dbg !1629
  %ID226 = getelementptr inbounds %struct.INSTR_VAL, %struct.INSTR_VAL* %arrayinit.element225, i32 0, i32 0, !dbg !1644
  store i32 7, i32* %ID226, align 8, !dbg !1644
  %OPCODE227 = getelementptr inbounds %struct.INSTR_VAL, %struct.INSTR_VAL* %arrayinit.element225, i32 0, i32 1, !dbg !1644
  store i32 2, i32* %OPCODE227, align 4, !dbg !1644
  %OPTYPE228 = getelementptr inbounds %struct.INSTR_VAL, %struct.INSTR_VAL* %arrayinit.element225, i32 0, i32 2, !dbg !1644
  store i32 0, i32* %OPTYPE228, align 8, !dbg !1644
  %OPERANDS229 = getelementptr inbounds %struct.INSTR_VAL, %struct.INSTR_VAL* %arrayinit.element225, i32 0, i32 3, !dbg !1644
  %arrayidx230 = getelementptr inbounds [9 x %struct.GEMM_STRUCT_VAL], [9 x %struct.GEMM_STRUCT_VAL]* %gemm, i64 0, i64 7, !dbg !1645
  %100 = bitcast %struct.GEMM_STRUCT_VAL* %OPERANDS229 to i8*, !dbg !1645
  %101 = bitcast %struct.GEMM_STRUCT_VAL* %arrayidx230 to i8*, !dbg !1645
  %102 = call i8* @memcpy(i8* %100, i8* %101, i64 12), !dbg !1645
  %arrayinit.element231 = getelementptr inbounds %struct.INSTR_VAL, %struct.INSTR_VAL* %arrayinit.element225, i64 1, !dbg !1629
  %ID232 = getelementptr inbounds %struct.INSTR_VAL, %struct.INSTR_VAL* %arrayinit.element231, i32 0, i32 0, !dbg !1646
  store i32 8, i32* %ID232, align 8, !dbg !1646
  %OPCODE233 = getelementptr inbounds %struct.INSTR_VAL, %struct.INSTR_VAL* %arrayinit.element231, i32 0, i32 1, !dbg !1646
  store i32 2, i32* %OPCODE233, align 4, !dbg !1646
  %OPTYPE234 = getelementptr inbounds %struct.INSTR_VAL, %struct.INSTR_VAL* %arrayinit.element231, i32 0, i32 2, !dbg !1646
  store i32 0, i32* %OPTYPE234, align 8, !dbg !1646
  %OPERANDS235 = getelementptr inbounds %struct.INSTR_VAL, %struct.INSTR_VAL* %arrayinit.element231, i32 0, i32 3, !dbg !1646
  %arrayidx236 = getelementptr inbounds [9 x %struct.GEMM_STRUCT_VAL], [9 x %struct.GEMM_STRUCT_VAL]* %gemm, i64 0, i64 8, !dbg !1647
  %103 = bitcast %struct.GEMM_STRUCT_VAL* %OPERANDS235 to i8*, !dbg !1647
  %104 = bitcast %struct.GEMM_STRUCT_VAL* %arrayidx236 to i8*, !dbg !1647
  %105 = call i8* @memcpy(i8* %103, i8* %104, i64 12), !dbg !1647
  %106 = load i32, i32* %opcode, align 4, !dbg !1648
  %cmp = icmp eq i32 %106, 2, !dbg !1650
  %107 = load i32, i32* %op_type, align 4, !dbg !1651
  %cmp237 = icmp eq i32 %107, 0, !dbg !1652
  %or.cond = and i1 %cmp, %cmp237, !dbg !1653
  br i1 %or.cond, label %if.then, label %if.end, !dbg !1653

if.then:                                          ; preds = %entry
  %108 = bitcast %struct.INSTR* %agg.tmp to i8*, !dbg !1654
  %109 = bitcast %struct.INSTR* %instruction to i8*, !dbg !1654
  %110 = call i8* @memcpy(i8* %108, i8* %109, i64 40), !dbg !1654
  %call = call i32* @_Z9base_gemm5INSTR(%struct.INSTR* byval(%struct.INSTR) align 8 %agg.tmp), !dbg !1656
  store i32* %call, i32** %acc_mem_gemm, align 8, !dbg !1657
  call void @llvm.dbg.declare(metadata i32* %i, metadata !1658, metadata !DIExpression()), !dbg !1660
  store i32 0, i32* %i, align 4, !dbg !1660
  br label %for.cond, !dbg !1661

for.cond:                                         ; preds = %for.body, %if.then
  %111 = load i32, i32* %i, align 4, !dbg !1662
  %cmp238 = icmp slt i32 %111, 9, !dbg !1664
  br i1 %cmp238, label %for.body, label %for.end, !dbg !1665

for.body:                                         ; preds = %for.cond
  %112 = load i32*, i32** %acc_mem_gemm, align 8, !dbg !1666
  %113 = load i32, i32* %i, align 4, !dbg !1668
  %idxprom = sext i32 %113 to i64, !dbg !1666
  %arrayidx239 = getelementptr inbounds i32, i32* %112, i64 %idxprom, !dbg !1666
  %114 = load i32, i32* %arrayidx239, align 4, !dbg !1666
  %115 = load i32, i32* %i, align 4, !dbg !1669
  %idxprom240 = sext i32 %115 to i64, !dbg !1670
  %arrayidx241 = getelementptr inbounds [9 x i32], [9 x i32]* %acc_stage1, i64 0, i64 %idxprom240, !dbg !1670
  store i32 %114, i32* %arrayidx241, align 4, !dbg !1671
  %116 = load i32, i32* %i, align 4, !dbg !1672
  %inc = add nsw i32 %116, 1, !dbg !1672
  store i32 %inc, i32* %i, align 4, !dbg !1672
  br label %for.cond, !dbg !1673, !llvm.loop !1674

for.end:                                          ; preds = %for.cond
  call void @llvm.dbg.declare(metadata i32* %i242, metadata !1676, metadata !DIExpression()), !dbg !1678
  store i32 0, i32* %i242, align 4, !dbg !1678
  br label %for.cond243, !dbg !1679

for.cond243:                                      ; preds = %for.body245, %for.end
  %117 = load i32, i32* %i242, align 4, !dbg !1680
  %cmp244 = icmp slt i32 %117, 9, !dbg !1682
  br i1 %cmp244, label %for.body245, label %for.end256, !dbg !1683

for.body245:                                      ; preds = %for.cond243
  %118 = load i32, i32* %i242, align 4, !dbg !1684
  %idxprom247 = sext i32 %118 to i64, !dbg !1686
  %arrayidx248 = getelementptr inbounds [9 x %struct.INSTR], [9 x %struct.INSTR]* %microop, i64 0, i64 %idxprom247, !dbg !1686
  %119 = bitcast %struct.INSTR* %agg.tmp246 to i8*, !dbg !1686
  %120 = bitcast %struct.INSTR* %arrayidx248 to i8*, !dbg !1686
  %121 = call i8* @memcpy(i8* %119, i8* %120, i64 40), !dbg !1686
  %call249 = call i32* @_Z13micro_decoder5INSTR(%struct.INSTR* byval(%struct.INSTR) align 8 %agg.tmp246), !dbg !1687
  store i32* %call249, i32** %acc_mem_ref, align 8, !dbg !1688
  %122 = load i32*, i32** %acc_mem_ref, align 8, !dbg !1689
  %123 = load i32, i32* %i242, align 4, !dbg !1690
  %idxprom250 = sext i32 %123 to i64, !dbg !1689
  %arrayidx251 = getelementptr inbounds i32, i32* %122, i64 %idxprom250, !dbg !1689
  %124 = load i32, i32* %arrayidx251, align 4, !dbg !1689
  %125 = load i32, i32* %i242, align 4, !dbg !1691
  %idxprom252 = sext i32 %125 to i64, !dbg !1692
  %arrayidx253 = getelementptr inbounds [9 x i32], [9 x i32]* %acc_stage2, i64 0, i64 %idxprom252, !dbg !1692
  store i32 %124, i32* %arrayidx253, align 4, !dbg !1693
  %126 = load i32, i32* %i242, align 4, !dbg !1694
  %inc255 = add nsw i32 %126, 1, !dbg !1694
  store i32 %inc255, i32* %i242, align 4, !dbg !1694
  br label %for.cond243, !dbg !1695, !llvm.loop !1696

for.end256:                                       ; preds = %for.cond243
  call void @llvm.dbg.declare(metadata i32* %i257, metadata !1698, metadata !DIExpression()), !dbg !1700
  store i32 0, i32* %i257, align 4, !dbg !1700
  br label %for.cond258, !dbg !1701

for.cond258:                                      ; preds = %for.body260, %for.end256
  %127 = load i32, i32* %i257, align 4, !dbg !1702
  %cmp259 = icmp slt i32 %127, 9, !dbg !1704
  br i1 %cmp259, label %for.body260, label %if.end, !dbg !1705

for.body260:                                      ; preds = %for.cond258
  %128 = load i32, i32* %i257, align 4, !dbg !1706
  %idxprom262 = sext i32 %128 to i64, !dbg !1708
  %arrayidx263 = getelementptr inbounds [9 x %struct.INSTR_VAL], [9 x %struct.INSTR_VAL]* %microop_val, i64 0, i64 %idxprom262, !dbg !1708
  %129 = bitcast %struct.INSTR_VAL* %agg.tmp261 to i8*, !dbg !1708
  %130 = bitcast %struct.INSTR_VAL* %arrayidx263 to i8*, !dbg !1708
  %131 = call i8* @memcpy(i8* %129, i8* %130, i64 24), !dbg !1708
  %call264 = call i32* @_Z17micro_decoder_val9INSTR_VAL(%struct.INSTR_VAL* byval(%struct.INSTR_VAL) align 8 %agg.tmp261), !dbg !1709
  store i32* %call264, i32** %acc_mem_val, align 8, !dbg !1710
  %132 = load i32*, i32** %acc_mem_val, align 8, !dbg !1711
  %133 = load i32, i32* %i257, align 4, !dbg !1712
  %idxprom265 = sext i32 %133 to i64, !dbg !1711
  %arrayidx266 = getelementptr inbounds i32, i32* %132, i64 %idxprom265, !dbg !1711
  %134 = load i32, i32* %arrayidx266, align 4, !dbg !1711
  %135 = load i32, i32* %i257, align 4, !dbg !1713
  %idxprom267 = sext i32 %135 to i64, !dbg !1714
  %arrayidx268 = getelementptr inbounds [9 x i32], [9 x i32]* %acc_stage3, i64 0, i64 %idxprom267, !dbg !1714
  store i32 %134, i32* %arrayidx268, align 4, !dbg !1715
  %136 = load i32, i32* %i257, align 4, !dbg !1716
  %inc270 = add nsw i32 %136, 1, !dbg !1716
  store i32 %inc270, i32* %i257, align 4, !dbg !1716
  br label %for.cond258, !dbg !1717, !llvm.loop !1718

if.end:                                           ; preds = %for.cond258, %entry
  ret i32 0, !dbg !1720
}

; Function Attrs: argmemonly nounwind
declare void @llvm.memcpy.p0i8.p0i8.i64(i8* nocapture writeonly, i8* nocapture readonly, i64, i1 immarg) #7

declare dso_local void @klee_make_symbolic(i8*, i64, i8*) #1

; Function Attrs: noinline uwtable
define internal void @_GLOBAL__sub_I_gemm.cpp() #0 section ".text.startup" !dbg !1721 {
entry:
  call void @__cxx_global_var_init(), !dbg !1723
  ret void
}

; Function Attrs: noinline nounwind uwtable
define dso_local i8* @memcpy(i8*, i8*, i64) #4 !dbg !1724 {
  %4 = alloca i8*, align 8
  %5 = alloca i8*, align 8
  %6 = alloca i64, align 8
  %7 = alloca i8*, align 8
  %8 = alloca i8*, align 8
  store i8* %0, i8** %4, align 8
  call void @llvm.dbg.declare(metadata i8** %4, metadata !1730, metadata !DIExpression()), !dbg !1731
  store i8* %1, i8** %5, align 8
  call void @llvm.dbg.declare(metadata i8** %5, metadata !1732, metadata !DIExpression()), !dbg !1733
  store i64 %2, i64* %6, align 8
  call void @llvm.dbg.declare(metadata i64* %6, metadata !1734, metadata !DIExpression()), !dbg !1735
  call void @llvm.dbg.declare(metadata i8** %7, metadata !1736, metadata !DIExpression()), !dbg !1737
  %9 = load i8*, i8** %4, align 8, !dbg !1738
  store i8* %9, i8** %7, align 8, !dbg !1737
  call void @llvm.dbg.declare(metadata i8** %8, metadata !1739, metadata !DIExpression()), !dbg !1740
  %10 = load i8*, i8** %5, align 8, !dbg !1741
  store i8* %10, i8** %8, align 8, !dbg !1740
  br label %11, !dbg !1742

11:                                               ; preds = %15, %3
  %12 = load i64, i64* %6, align 8, !dbg !1743
  %13 = add i64 %12, -1, !dbg !1743
  store i64 %13, i64* %6, align 8, !dbg !1743
  %14 = icmp ugt i64 %12, 0, !dbg !1744
  br i1 %14, label %15, label %21, !dbg !1742

15:                                               ; preds = %11
  %16 = load i8*, i8** %8, align 8, !dbg !1745
  %17 = getelementptr inbounds i8, i8* %16, i32 1, !dbg !1745
  store i8* %17, i8** %8, align 8, !dbg !1745
  %18 = load i8, i8* %16, align 1, !dbg !1746
  %19 = load i8*, i8** %7, align 8, !dbg !1747
  %20 = getelementptr inbounds i8, i8* %19, i32 1, !dbg !1747
  store i8* %20, i8** %7, align 8, !dbg !1747
  store i8 %18, i8* %19, align 1, !dbg !1748
  br label %11, !dbg !1742, !llvm.loop !1749

21:                                               ; preds = %11
  %22 = load i8*, i8** %4, align 8, !dbg !1750
  ret i8* %22, !dbg !1751
}

define internal void @klee.ctor_stub() {
entry:
  call void @_GLOBAL__sub_I_gemm.cpp()
  ret void
}

attributes #0 = { noinline uwtable "correctly-rounded-divide-sqrt-fp-math"="false" "disable-tail-calls"="false" "less-precise-fpmad"="false" "min-legal-vector-width"="0" "no-frame-pointer-elim"="true" "no-frame-pointer-elim-non-leaf" "no-infs-fp-math"="false" "no-jump-tables"="false" "no-nans-fp-math"="false" "no-signed-zeros-fp-math"="false" "no-trapping-math"="false" "stack-protector-buffer-size"="8" "target-cpu"="x86-64" "target-features"="+cx8,+fxsr,+mmx,+sse,+sse2,+x87" "unsafe-fp-math"="false" "use-soft-float"="false" }
attributes #1 = { "correctly-rounded-divide-sqrt-fp-math"="false" "disable-tail-calls"="false" "less-precise-fpmad"="false" "no-frame-pointer-elim"="true" "no-frame-pointer-elim-non-leaf" "no-infs-fp-math"="false" "no-nans-fp-math"="false" "no-signed-zeros-fp-math"="false" "no-trapping-math"="false" "stack-protector-buffer-size"="8" "target-cpu"="x86-64" "target-features"="+cx8,+fxsr,+mmx,+sse,+sse2,+x87" "unsafe-fp-math"="false" "use-soft-float"="false" }
attributes #2 = { nounwind "correctly-rounded-divide-sqrt-fp-math"="false" "disable-tail-calls"="false" "less-precise-fpmad"="false" "no-frame-pointer-elim"="true" "no-frame-pointer-elim-non-leaf" "no-infs-fp-math"="false" "no-nans-fp-math"="false" "no-signed-zeros-fp-math"="false" "no-trapping-math"="false" "stack-protector-buffer-size"="8" "target-cpu"="x86-64" "target-features"="+cx8,+fxsr,+mmx,+sse,+sse2,+x87" "unsafe-fp-math"="false" "use-soft-float"="false" }
attributes #3 = { nounwind }
attributes #4 = { noinline nounwind uwtable "correctly-rounded-divide-sqrt-fp-math"="false" "disable-tail-calls"="false" "less-precise-fpmad"="false" "min-legal-vector-width"="0" "no-frame-pointer-elim"="true" "no-frame-pointer-elim-non-leaf" "no-infs-fp-math"="false" "no-jump-tables"="false" "no-nans-fp-math"="false" "no-signed-zeros-fp-math"="false" "no-trapping-math"="false" "stack-protector-buffer-size"="8" "target-cpu"="x86-64" "target-features"="+cx8,+fxsr,+mmx,+sse,+sse2,+x87" "unsafe-fp-math"="false" "use-soft-float"="false" }
attributes #5 = { nounwind readnone speculatable }
attributes #6 = { noinline norecurse uwtable "correctly-rounded-divide-sqrt-fp-math"="false" "disable-tail-calls"="false" "less-precise-fpmad"="false" "min-legal-vector-width"="0" "no-frame-pointer-elim"="true" "no-frame-pointer-elim-non-leaf" "no-infs-fp-math"="false" "no-jump-tables"="false" "no-nans-fp-math"="false" "no-signed-zeros-fp-math"="false" "no-trapping-math"="false" "stack-protector-buffer-size"="8" "target-cpu"="x86-64" "target-features"="+cx8,+fxsr,+mmx,+sse,+sse2,+x87" "unsafe-fp-math"="false" "use-soft-float"="false" }
attributes #7 = { argmemonly nounwind }

!llvm.dbg.cu = !{!21, !1016, !1020}
!llvm.module.flags = !{!1022, !1023, !1024}
!llvm.ident = !{!1025, !1026, !1026}

!0 = !DIGlobalVariableExpression(var: !1, expr: !DIExpression())
!1 = distinct !DIGlobalVariable(name: "__ioinit", linkageName: "_ZStL8__ioinit", scope: !2, file: !3, line: 74, type: !4, isLocal: true, isDefinition: true)
!2 = !DINamespace(name: "std", scope: null)
!3 = !DIFile(filename: "/usr/lib/gcc/x86_64-linux-gnu/7.5.0/../../../../include/c++/7.5.0/iostream", directory: "")
!4 = distinct !DICompositeType(tag: DW_TAG_class_type, name: "Init", scope: !6, file: !5, line: 601, size: 8, flags: DIFlagTypePassByReference | DIFlagNonTrivial, elements: !7, identifier: "_ZTSNSt8ios_base4InitE")
!5 = !DIFile(filename: "/usr/lib/gcc/x86_64-linux-gnu/7.5.0/../../../../include/c++/7.5.0/bits/ios_base.h", directory: "")
!6 = !DICompositeType(tag: DW_TAG_class_type, name: "ios_base", scope: !2, file: !5, line: 228, flags: DIFlagFwdDecl)
!7 = !{!8, !12, !14, !18}
!8 = !DIDerivedType(tag: DW_TAG_member, name: "_S_refcount", scope: !4, file: !5, line: 609, baseType: !9, flags: DIFlagStaticMember)
!9 = !DIDerivedType(tag: DW_TAG_typedef, name: "_Atomic_word", file: !10, line: 32, baseType: !11)
!10 = !DIFile(filename: "/usr/lib/gcc/x86_64-linux-gnu/7.5.0/../../../../include/x86_64-linux-gnu/c++/7.5.0/bits/atomic_word.h", directory: "")
!11 = !DIBasicType(name: "int", size: 32, encoding: DW_ATE_signed)
!12 = !DIDerivedType(tag: DW_TAG_member, name: "_S_synced_with_stdio", scope: !4, file: !5, line: 610, baseType: !13, flags: DIFlagStaticMember)
!13 = !DIBasicType(name: "bool", size: 8, encoding: DW_ATE_boolean)
!14 = !DISubprogram(name: "Init", scope: !4, file: !5, line: 605, type: !15, scopeLine: 605, flags: DIFlagPublic | DIFlagPrototyped, spFlags: 0)
!15 = !DISubroutineType(types: !16)
!16 = !{null, !17}
!17 = !DIDerivedType(tag: DW_TAG_pointer_type, baseType: !4, size: 64, flags: DIFlagArtificial | DIFlagObjectPointer)
!18 = !DISubprogram(name: "~Init", scope: !4, file: !5, line: 606, type: !15, scopeLine: 606, flags: DIFlagPublic | DIFlagPrototyped, spFlags: 0)
!19 = !DIGlobalVariableExpression(var: !20, expr: !DIExpression())
!20 = distinct !DIGlobalVariable(name: "res_index", scope: !21, file: !22, line: 10, type: !11, isLocal: false, isDefinition: true)
!21 = distinct !DICompileUnit(language: DW_LANG_C_plus_plus, file: !22, producer: "clang version 9.0.1 (https://github.com/llvm/llvm-project.git c1a0a213378a458fbea1a5c77b315c7dce08fd05)", isOptimized: false, runtimeVersion: 0, emissionKind: FullDebug, enums: !23, globals: !24, imports: !55, nameTableKind: None)
!22 = !DIFile(filename: "gemm.cpp", directory: "/home/klee/klee_src/examples/isra")
!23 = !{}
!24 = !{!0, !19, !25, !31, !36, !39, !42, !44, !46, !48, !53}
!25 = !DIGlobalVariableExpression(var: !26, expr: !DIExpression())
!26 = distinct !DIGlobalVariable(name: "result", scope: !21, file: !22, line: 11, type: !27, isLocal: false, isDefinition: true)
!27 = !DICompositeType(tag: DW_TAG_array_type, baseType: !28, size: 320, elements: !29)
!28 = !DIBasicType(name: "unsigned int", size: 32, encoding: DW_ATE_unsigned)
!29 = !{!30}
!30 = !DISubrange(count: 10)
!31 = !DIGlobalVariableExpression(var: !32, expr: !DIExpression())
!32 = distinct !DIGlobalVariable(name: "product", scope: !21, file: !22, line: 12, type: !33, isLocal: false, isDefinition: true)
!33 = !DICompositeType(tag: DW_TAG_array_type, baseType: !11, size: 288, elements: !34)
!34 = !{!35, !35}
!35 = !DISubrange(count: 3)
!36 = !DIGlobalVariableExpression(var: !37, expr: !DIExpression())
!37 = distinct !DIGlobalVariable(name: "arr_val", scope: !21, file: !22, line: 13, type: !38, isLocal: false, isDefinition: true)
!38 = !DIDerivedType(tag: DW_TAG_pointer_type, baseType: !28, size: 64)
!39 = !DIGlobalVariableExpression(var: !40, expr: !DIExpression())
!40 = distinct !DIGlobalVariable(name: "inp_mem", scope: !21, file: !22, line: 14, type: !41, isLocal: false, isDefinition: true)
!41 = !DICompositeType(tag: DW_TAG_array_type, baseType: !28, size: 288, elements: !34)
!42 = !DIGlobalVariableExpression(var: !43, expr: !DIExpression())
!43 = distinct !DIGlobalVariable(name: "wgt_mem", scope: !21, file: !22, line: 15, type: !41, isLocal: false, isDefinition: true)
!44 = !DIGlobalVariableExpression(var: !45, expr: !DIExpression())
!45 = distinct !DIGlobalVariable(name: "acc_mem", scope: !21, file: !22, line: 16, type: !41, isLocal: false, isDefinition: true)
!46 = !DIGlobalVariableExpression(var: !47, expr: !DIExpression())
!47 = distinct !DIGlobalVariable(name: "wgt_mem_prime", scope: !21, file: !22, line: 17, type: !41, isLocal: false, isDefinition: true)
!48 = !DIGlobalVariableExpression(var: !49, expr: !DIExpression())
!49 = distinct !DIGlobalVariable(name: "acc_mem_flat", scope: !21, file: !22, line: 18, type: !50, isLocal: false, isDefinition: true)
!50 = !DICompositeType(tag: DW_TAG_array_type, baseType: !28, size: 288, elements: !51)
!51 = !{!52}
!52 = !DISubrange(count: 9)
!53 = !DIGlobalVariableExpression(var: !54, expr: !DIExpression())
!54 = distinct !DIGlobalVariable(name: "acc_mem_base_flat", scope: !21, file: !22, line: 19, type: !50, isLocal: false, isDefinition: true)
!55 = !{!56, !68, !72, !78, !82, !86, !96, !100, !102, !104, !108, !112, !116, !120, !124, !126, !128, !130, !134, !138, !142, !144, !146, !163, !166, !171, !179, !187, !191, !198, !202, !206, !208, !210, !214, !220, !224, !230, !236, !238, !242, !246, !250, !254, !265, !267, !271, !275, !279, !281, !285, !289, !293, !295, !297, !301, !309, !313, !317, !321, !323, !329, !331, !338, !343, !347, !352, !356, !360, !364, !366, !368, !372, !376, !380, !382, !386, !390, !392, !394, !398, !404, !409, !414, !415, !416, !417, !418, !419, !420, !421, !422, !423, !424, !479, !483, !487, !494, !498, !501, !504, !507, !509, !511, !513, !515, !517, !519, !521, !524, !526, !531, !535, !538, !541, !543, !545, !547, !549, !551, !553, !555, !557, !560, !562, !566, !570, !575, !581, !583, !585, !587, !589, !591, !593, !595, !597, !599, !601, !603, !605, !607, !610, !612, !616, !620, !626, !630, !635, !637, !641, !645, !649, !657, !661, !665, !669, !673, !677, !681, !685, !689, !693, !697, !701, !705, !707, !711, !715, !719, !725, !729, !733, !735, !739, !743, !749, !751, !755, !759, !763, !767, !771, !775, !779, !780, !781, !782, !784, !785, !786, !787, !788, !789, !790, !794, !800, !805, !809, !811, !813, !815, !817, !824, !828, !832, !836, !840, !844, !848, !852, !854, !858, !864, !868, !872, !874, !876, !880, !884, !886, !888, !890, !892, !894, !896, !898, !902, !906, !910, !914, !918, !922, !924, !928, !932, !936, !940, !942, !944, !948, !952, !953, !954, !955, !956, !957, !963, !966, !967, !969, !971, !973, !975, !979, !981, !983, !985, !987, !989, !991, !993, !995, !999, !1003, !1005, !1009, !1013}
!56 = !DIImportedEntity(tag: DW_TAG_imported_declaration, scope: !2, entity: !57, file: !67, line: 75)
!57 = !DISubprogram(name: "memchr", scope: !58, file: !58, line: 90, type: !59, flags: DIFlagPrototyped, spFlags: 0)
!58 = !DIFile(filename: "/usr/include/string.h", directory: "")
!59 = !DISubroutineType(types: !60)
!60 = !{!61, !62, !11, !64}
!61 = !DIDerivedType(tag: DW_TAG_pointer_type, baseType: null, size: 64)
!62 = !DIDerivedType(tag: DW_TAG_pointer_type, baseType: !63, size: 64)
!63 = !DIDerivedType(tag: DW_TAG_const_type, baseType: null)
!64 = !DIDerivedType(tag: DW_TAG_typedef, name: "size_t", file: !65, line: 46, baseType: !66)
!65 = !DIFile(filename: "/tmp/llvm-90-install_O_D_A/lib/clang/9.0.1/include/stddef.h", directory: "")
!66 = !DIBasicType(name: "long unsigned int", size: 64, encoding: DW_ATE_unsigned)
!67 = !DIFile(filename: "/usr/lib/gcc/x86_64-linux-gnu/7.5.0/../../../../include/c++/7.5.0/cstring", directory: "")
!68 = !DIImportedEntity(tag: DW_TAG_imported_declaration, scope: !2, entity: !69, file: !67, line: 76)
!69 = !DISubprogram(name: "memcmp", scope: !58, file: !58, line: 63, type: !70, flags: DIFlagPrototyped, spFlags: 0)
!70 = !DISubroutineType(types: !71)
!71 = !{!11, !62, !62, !64}
!72 = !DIImportedEntity(tag: DW_TAG_imported_declaration, scope: !2, entity: !73, file: !67, line: 77)
!73 = !DISubprogram(name: "memcpy", scope: !58, file: !58, line: 42, type: !74, flags: DIFlagPrototyped, spFlags: 0)
!74 = !DISubroutineType(types: !75)
!75 = !{!61, !76, !77, !64}
!76 = !DIDerivedType(tag: DW_TAG_restrict_type, baseType: !61)
!77 = !DIDerivedType(tag: DW_TAG_restrict_type, baseType: !62)
!78 = !DIImportedEntity(tag: DW_TAG_imported_declaration, scope: !2, entity: !79, file: !67, line: 78)
!79 = !DISubprogram(name: "memmove", scope: !58, file: !58, line: 46, type: !80, flags: DIFlagPrototyped, spFlags: 0)
!80 = !DISubroutineType(types: !81)
!81 = !{!61, !61, !62, !64}
!82 = !DIImportedEntity(tag: DW_TAG_imported_declaration, scope: !2, entity: !83, file: !67, line: 79)
!83 = !DISubprogram(name: "memset", scope: !58, file: !58, line: 60, type: !84, flags: DIFlagPrototyped, spFlags: 0)
!84 = !DISubroutineType(types: !85)
!85 = !{!61, !61, !11, !64}
!86 = !DIImportedEntity(tag: DW_TAG_imported_declaration, scope: !2, entity: !87, file: !67, line: 80)
!87 = !DISubprogram(name: "strcat", scope: !58, file: !58, line: 129, type: !88, flags: DIFlagPrototyped, spFlags: 0)
!88 = !DISubroutineType(types: !89)
!89 = !{!90, !92, !93}
!90 = !DIDerivedType(tag: DW_TAG_pointer_type, baseType: !91, size: 64)
!91 = !DIBasicType(name: "char", size: 8, encoding: DW_ATE_signed_char)
!92 = !DIDerivedType(tag: DW_TAG_restrict_type, baseType: !90)
!93 = !DIDerivedType(tag: DW_TAG_restrict_type, baseType: !94)
!94 = !DIDerivedType(tag: DW_TAG_pointer_type, baseType: !95, size: 64)
!95 = !DIDerivedType(tag: DW_TAG_const_type, baseType: !91)
!96 = !DIImportedEntity(tag: DW_TAG_imported_declaration, scope: !2, entity: !97, file: !67, line: 81)
!97 = !DISubprogram(name: "strcmp", scope: !58, file: !58, line: 136, type: !98, flags: DIFlagPrototyped, spFlags: 0)
!98 = !DISubroutineType(types: !99)
!99 = !{!11, !94, !94}
!100 = !DIImportedEntity(tag: DW_TAG_imported_declaration, scope: !2, entity: !101, file: !67, line: 82)
!101 = !DISubprogram(name: "strcoll", scope: !58, file: !58, line: 143, type: !98, flags: DIFlagPrototyped, spFlags: 0)
!102 = !DIImportedEntity(tag: DW_TAG_imported_declaration, scope: !2, entity: !103, file: !67, line: 83)
!103 = !DISubprogram(name: "strcpy", scope: !58, file: !58, line: 121, type: !88, flags: DIFlagPrototyped, spFlags: 0)
!104 = !DIImportedEntity(tag: DW_TAG_imported_declaration, scope: !2, entity: !105, file: !67, line: 84)
!105 = !DISubprogram(name: "strcspn", scope: !58, file: !58, line: 272, type: !106, flags: DIFlagPrototyped, spFlags: 0)
!106 = !DISubroutineType(types: !107)
!107 = !{!64, !94, !94}
!108 = !DIImportedEntity(tag: DW_TAG_imported_declaration, scope: !2, entity: !109, file: !67, line: 85)
!109 = !DISubprogram(name: "strerror", scope: !58, file: !58, line: 396, type: !110, flags: DIFlagPrototyped, spFlags: 0)
!110 = !DISubroutineType(types: !111)
!111 = !{!90, !11}
!112 = !DIImportedEntity(tag: DW_TAG_imported_declaration, scope: !2, entity: !113, file: !67, line: 86)
!113 = !DISubprogram(name: "strlen", scope: !58, file: !58, line: 384, type: !114, flags: DIFlagPrototyped, spFlags: 0)
!114 = !DISubroutineType(types: !115)
!115 = !{!64, !94}
!116 = !DIImportedEntity(tag: DW_TAG_imported_declaration, scope: !2, entity: !117, file: !67, line: 87)
!117 = !DISubprogram(name: "strncat", scope: !58, file: !58, line: 132, type: !118, flags: DIFlagPrototyped, spFlags: 0)
!118 = !DISubroutineType(types: !119)
!119 = !{!90, !92, !93, !64}
!120 = !DIImportedEntity(tag: DW_TAG_imported_declaration, scope: !2, entity: !121, file: !67, line: 88)
!121 = !DISubprogram(name: "strncmp", scope: !58, file: !58, line: 139, type: !122, flags: DIFlagPrototyped, spFlags: 0)
!122 = !DISubroutineType(types: !123)
!123 = !{!11, !94, !94, !64}
!124 = !DIImportedEntity(tag: DW_TAG_imported_declaration, scope: !2, entity: !125, file: !67, line: 89)
!125 = !DISubprogram(name: "strncpy", scope: !58, file: !58, line: 124, type: !118, flags: DIFlagPrototyped, spFlags: 0)
!126 = !DIImportedEntity(tag: DW_TAG_imported_declaration, scope: !2, entity: !127, file: !67, line: 90)
!127 = !DISubprogram(name: "strspn", scope: !58, file: !58, line: 276, type: !106, flags: DIFlagPrototyped, spFlags: 0)
!128 = !DIImportedEntity(tag: DW_TAG_imported_declaration, scope: !2, entity: !129, file: !67, line: 91)
!129 = !DISubprogram(name: "strtok", scope: !58, file: !58, line: 335, type: !88, flags: DIFlagPrototyped, spFlags: 0)
!130 = !DIImportedEntity(tag: DW_TAG_imported_declaration, scope: !2, entity: !131, file: !67, line: 92)
!131 = !DISubprogram(name: "strxfrm", scope: !58, file: !58, line: 146, type: !132, flags: DIFlagPrototyped, spFlags: 0)
!132 = !DISubroutineType(types: !133)
!133 = !{!64, !92, !93, !64}
!134 = !DIImportedEntity(tag: DW_TAG_imported_declaration, scope: !2, entity: !135, file: !67, line: 93)
!135 = !DISubprogram(name: "strchr", scope: !58, file: !58, line: 225, type: !136, flags: DIFlagPrototyped, spFlags: 0)
!136 = !DISubroutineType(types: !137)
!137 = !{!90, !94, !11}
!138 = !DIImportedEntity(tag: DW_TAG_imported_declaration, scope: !2, entity: !139, file: !67, line: 94)
!139 = !DISubprogram(name: "strpbrk", scope: !58, file: !58, line: 302, type: !140, flags: DIFlagPrototyped, spFlags: 0)
!140 = !DISubroutineType(types: !141)
!141 = !{!90, !94, !94}
!142 = !DIImportedEntity(tag: DW_TAG_imported_declaration, scope: !2, entity: !143, file: !67, line: 95)
!143 = !DISubprogram(name: "strrchr", scope: !58, file: !58, line: 252, type: !136, flags: DIFlagPrototyped, spFlags: 0)
!144 = !DIImportedEntity(tag: DW_TAG_imported_declaration, scope: !2, entity: !145, file: !67, line: 96)
!145 = !DISubprogram(name: "strstr", scope: !58, file: !58, line: 329, type: !140, flags: DIFlagPrototyped, spFlags: 0)
!146 = !DIImportedEntity(tag: DW_TAG_imported_declaration, scope: !2, entity: !147, file: !162, line: 64)
!147 = !DIDerivedType(tag: DW_TAG_typedef, name: "mbstate_t", file: !148, line: 6, baseType: !149)
!148 = !DIFile(filename: "/usr/include/x86_64-linux-gnu/bits/types/mbstate_t.h", directory: "")
!149 = !DIDerivedType(tag: DW_TAG_typedef, name: "__mbstate_t", file: !150, line: 21, baseType: !151)
!150 = !DIFile(filename: "/usr/include/x86_64-linux-gnu/bits/types/__mbstate_t.h", directory: "")
!151 = distinct !DICompositeType(tag: DW_TAG_structure_type, file: !150, line: 13, size: 64, flags: DIFlagTypePassByValue, elements: !152, identifier: "_ZTS11__mbstate_t")
!152 = !{!153, !154}
!153 = !DIDerivedType(tag: DW_TAG_member, name: "__count", scope: !151, file: !150, line: 15, baseType: !11, size: 32)
!154 = !DIDerivedType(tag: DW_TAG_member, name: "__value", scope: !151, file: !150, line: 20, baseType: !155, size: 32, offset: 32)
!155 = distinct !DICompositeType(tag: DW_TAG_union_type, scope: !151, file: !150, line: 16, size: 32, flags: DIFlagTypePassByValue, elements: !156, identifier: "_ZTSN11__mbstate_tUt_E")
!156 = !{!157, !158}
!157 = !DIDerivedType(tag: DW_TAG_member, name: "__wch", scope: !155, file: !150, line: 18, baseType: !28, size: 32)
!158 = !DIDerivedType(tag: DW_TAG_member, name: "__wchb", scope: !155, file: !150, line: 19, baseType: !159, size: 32)
!159 = !DICompositeType(tag: DW_TAG_array_type, baseType: !91, size: 32, elements: !160)
!160 = !{!161}
!161 = !DISubrange(count: 4)
!162 = !DIFile(filename: "/usr/lib/gcc/x86_64-linux-gnu/7.5.0/../../../../include/c++/7.5.0/cwchar", directory: "")
!163 = !DIImportedEntity(tag: DW_TAG_imported_declaration, scope: !2, entity: !164, file: !162, line: 139)
!164 = !DIDerivedType(tag: DW_TAG_typedef, name: "wint_t", file: !165, line: 20, baseType: !28)
!165 = !DIFile(filename: "/usr/include/x86_64-linux-gnu/bits/types/wint_t.h", directory: "")
!166 = !DIImportedEntity(tag: DW_TAG_imported_declaration, scope: !2, entity: !167, file: !162, line: 141)
!167 = !DISubprogram(name: "btowc", scope: !168, file: !168, line: 284, type: !169, flags: DIFlagPrototyped, spFlags: 0)
!168 = !DIFile(filename: "/usr/include/wchar.h", directory: "")
!169 = !DISubroutineType(types: !170)
!170 = !{!164, !11}
!171 = !DIImportedEntity(tag: DW_TAG_imported_declaration, scope: !2, entity: !172, file: !162, line: 142)
!172 = !DISubprogram(name: "fgetwc", scope: !168, file: !168, line: 727, type: !173, flags: DIFlagPrototyped, spFlags: 0)
!173 = !DISubroutineType(types: !174)
!174 = !{!164, !175}
!175 = !DIDerivedType(tag: DW_TAG_pointer_type, baseType: !176, size: 64)
!176 = !DIDerivedType(tag: DW_TAG_typedef, name: "__FILE", file: !177, line: 5, baseType: !178)
!177 = !DIFile(filename: "/usr/include/x86_64-linux-gnu/bits/types/__FILE.h", directory: "")
!178 = !DICompositeType(tag: DW_TAG_structure_type, name: "_IO_FILE", file: !177, line: 4, flags: DIFlagFwdDecl, identifier: "_ZTS8_IO_FILE")
!179 = !DIImportedEntity(tag: DW_TAG_imported_declaration, scope: !2, entity: !180, file: !162, line: 143)
!180 = !DISubprogram(name: "fgetws", scope: !168, file: !168, line: 756, type: !181, flags: DIFlagPrototyped, spFlags: 0)
!181 = !DISubroutineType(types: !182)
!182 = !{!183, !185, !11, !186}
!183 = !DIDerivedType(tag: DW_TAG_pointer_type, baseType: !184, size: 64)
!184 = !DIBasicType(name: "wchar_t", size: 32, encoding: DW_ATE_signed)
!185 = !DIDerivedType(tag: DW_TAG_restrict_type, baseType: !183)
!186 = !DIDerivedType(tag: DW_TAG_restrict_type, baseType: !175)
!187 = !DIImportedEntity(tag: DW_TAG_imported_declaration, scope: !2, entity: !188, file: !162, line: 144)
!188 = !DISubprogram(name: "fputwc", scope: !168, file: !168, line: 741, type: !189, flags: DIFlagPrototyped, spFlags: 0)
!189 = !DISubroutineType(types: !190)
!190 = !{!164, !184, !175}
!191 = !DIImportedEntity(tag: DW_TAG_imported_declaration, scope: !2, entity: !192, file: !162, line: 145)
!192 = !DISubprogram(name: "fputws", scope: !168, file: !168, line: 763, type: !193, flags: DIFlagPrototyped, spFlags: 0)
!193 = !DISubroutineType(types: !194)
!194 = !{!11, !195, !186}
!195 = !DIDerivedType(tag: DW_TAG_restrict_type, baseType: !196)
!196 = !DIDerivedType(tag: DW_TAG_pointer_type, baseType: !197, size: 64)
!197 = !DIDerivedType(tag: DW_TAG_const_type, baseType: !184)
!198 = !DIImportedEntity(tag: DW_TAG_imported_declaration, scope: !2, entity: !199, file: !162, line: 146)
!199 = !DISubprogram(name: "fwide", scope: !168, file: !168, line: 573, type: !200, flags: DIFlagPrototyped, spFlags: 0)
!200 = !DISubroutineType(types: !201)
!201 = !{!11, !175, !11}
!202 = !DIImportedEntity(tag: DW_TAG_imported_declaration, scope: !2, entity: !203, file: !162, line: 147)
!203 = !DISubprogram(name: "fwprintf", scope: !168, file: !168, line: 580, type: !204, flags: DIFlagPrototyped, spFlags: 0)
!204 = !DISubroutineType(types: !205)
!205 = !{!11, !186, !195, null}
!206 = !DIImportedEntity(tag: DW_TAG_imported_declaration, scope: !2, entity: !207, file: !162, line: 148)
!207 = !DISubprogram(name: "fwscanf", scope: !168, file: !168, line: 621, type: !204, flags: DIFlagPrototyped, spFlags: 0)
!208 = !DIImportedEntity(tag: DW_TAG_imported_declaration, scope: !2, entity: !209, file: !162, line: 149)
!209 = !DISubprogram(name: "getwc", scope: !168, file: !168, line: 728, type: !173, flags: DIFlagPrototyped, spFlags: 0)
!210 = !DIImportedEntity(tag: DW_TAG_imported_declaration, scope: !2, entity: !211, file: !162, line: 150)
!211 = !DISubprogram(name: "getwchar", scope: !168, file: !168, line: 734, type: !212, flags: DIFlagPrototyped, spFlags: 0)
!212 = !DISubroutineType(types: !213)
!213 = !{!164}
!214 = !DIImportedEntity(tag: DW_TAG_imported_declaration, scope: !2, entity: !215, file: !162, line: 151)
!215 = !DISubprogram(name: "mbrlen", scope: !168, file: !168, line: 307, type: !216, flags: DIFlagPrototyped, spFlags: 0)
!216 = !DISubroutineType(types: !217)
!217 = !{!64, !93, !64, !218}
!218 = !DIDerivedType(tag: DW_TAG_restrict_type, baseType: !219)
!219 = !DIDerivedType(tag: DW_TAG_pointer_type, baseType: !147, size: 64)
!220 = !DIImportedEntity(tag: DW_TAG_imported_declaration, scope: !2, entity: !221, file: !162, line: 152)
!221 = !DISubprogram(name: "mbrtowc", scope: !168, file: !168, line: 296, type: !222, flags: DIFlagPrototyped, spFlags: 0)
!222 = !DISubroutineType(types: !223)
!223 = !{!64, !185, !93, !64, !218}
!224 = !DIImportedEntity(tag: DW_TAG_imported_declaration, scope: !2, entity: !225, file: !162, line: 153)
!225 = !DISubprogram(name: "mbsinit", scope: !168, file: !168, line: 292, type: !226, flags: DIFlagPrototyped, spFlags: 0)
!226 = !DISubroutineType(types: !227)
!227 = !{!11, !228}
!228 = !DIDerivedType(tag: DW_TAG_pointer_type, baseType: !229, size: 64)
!229 = !DIDerivedType(tag: DW_TAG_const_type, baseType: !147)
!230 = !DIImportedEntity(tag: DW_TAG_imported_declaration, scope: !2, entity: !231, file: !162, line: 154)
!231 = !DISubprogram(name: "mbsrtowcs", scope: !168, file: !168, line: 337, type: !232, flags: DIFlagPrototyped, spFlags: 0)
!232 = !DISubroutineType(types: !233)
!233 = !{!64, !185, !234, !64, !218}
!234 = !DIDerivedType(tag: DW_TAG_restrict_type, baseType: !235)
!235 = !DIDerivedType(tag: DW_TAG_pointer_type, baseType: !94, size: 64)
!236 = !DIImportedEntity(tag: DW_TAG_imported_declaration, scope: !2, entity: !237, file: !162, line: 155)
!237 = !DISubprogram(name: "putwc", scope: !168, file: !168, line: 742, type: !189, flags: DIFlagPrototyped, spFlags: 0)
!238 = !DIImportedEntity(tag: DW_TAG_imported_declaration, scope: !2, entity: !239, file: !162, line: 156)
!239 = !DISubprogram(name: "putwchar", scope: !168, file: !168, line: 748, type: !240, flags: DIFlagPrototyped, spFlags: 0)
!240 = !DISubroutineType(types: !241)
!241 = !{!164, !184}
!242 = !DIImportedEntity(tag: DW_TAG_imported_declaration, scope: !2, entity: !243, file: !162, line: 158)
!243 = !DISubprogram(name: "swprintf", scope: !168, file: !168, line: 590, type: !244, flags: DIFlagPrototyped, spFlags: 0)
!244 = !DISubroutineType(types: !245)
!245 = !{!11, !185, !64, !195, null}
!246 = !DIImportedEntity(tag: DW_TAG_imported_declaration, scope: !2, entity: !247, file: !162, line: 160)
!247 = !DISubprogram(name: "swscanf", scope: !168, file: !168, line: 631, type: !248, flags: DIFlagPrototyped, spFlags: 0)
!248 = !DISubroutineType(types: !249)
!249 = !{!11, !195, !195, null}
!250 = !DIImportedEntity(tag: DW_TAG_imported_declaration, scope: !2, entity: !251, file: !162, line: 161)
!251 = !DISubprogram(name: "ungetwc", scope: !168, file: !168, line: 771, type: !252, flags: DIFlagPrototyped, spFlags: 0)
!252 = !DISubroutineType(types: !253)
!253 = !{!164, !164, !175}
!254 = !DIImportedEntity(tag: DW_TAG_imported_declaration, scope: !2, entity: !255, file: !162, line: 162)
!255 = !DISubprogram(name: "vfwprintf", scope: !168, file: !168, line: 598, type: !256, flags: DIFlagPrototyped, spFlags: 0)
!256 = !DISubroutineType(types: !257)
!257 = !{!11, !186, !195, !258}
!258 = !DIDerivedType(tag: DW_TAG_pointer_type, baseType: !259, size: 64)
!259 = distinct !DICompositeType(tag: DW_TAG_structure_type, name: "__va_list_tag", file: !22, size: 192, flags: DIFlagTypePassByValue, elements: !260, identifier: "_ZTS13__va_list_tag")
!260 = !{!261, !262, !263, !264}
!261 = !DIDerivedType(tag: DW_TAG_member, name: "gp_offset", scope: !259, file: !22, baseType: !28, size: 32)
!262 = !DIDerivedType(tag: DW_TAG_member, name: "fp_offset", scope: !259, file: !22, baseType: !28, size: 32, offset: 32)
!263 = !DIDerivedType(tag: DW_TAG_member, name: "overflow_arg_area", scope: !259, file: !22, baseType: !61, size: 64, offset: 64)
!264 = !DIDerivedType(tag: DW_TAG_member, name: "reg_save_area", scope: !259, file: !22, baseType: !61, size: 64, offset: 128)
!265 = !DIImportedEntity(tag: DW_TAG_imported_declaration, scope: !2, entity: !266, file: !162, line: 164)
!266 = !DISubprogram(name: "vfwscanf", scope: !168, file: !168, line: 673, type: !256, flags: DIFlagPrototyped, spFlags: 0)
!267 = !DIImportedEntity(tag: DW_TAG_imported_declaration, scope: !2, entity: !268, file: !162, line: 167)
!268 = !DISubprogram(name: "vswprintf", scope: !168, file: !168, line: 611, type: !269, flags: DIFlagPrototyped, spFlags: 0)
!269 = !DISubroutineType(types: !270)
!270 = !{!11, !185, !64, !195, !258}
!271 = !DIImportedEntity(tag: DW_TAG_imported_declaration, scope: !2, entity: !272, file: !162, line: 170)
!272 = !DISubprogram(name: "vswscanf", scope: !168, file: !168, line: 685, type: !273, flags: DIFlagPrototyped, spFlags: 0)
!273 = !DISubroutineType(types: !274)
!274 = !{!11, !195, !195, !258}
!275 = !DIImportedEntity(tag: DW_TAG_imported_declaration, scope: !2, entity: !276, file: !162, line: 172)
!276 = !DISubprogram(name: "vwprintf", scope: !168, file: !168, line: 606, type: !277, flags: DIFlagPrototyped, spFlags: 0)
!277 = !DISubroutineType(types: !278)
!278 = !{!11, !195, !258}
!279 = !DIImportedEntity(tag: DW_TAG_imported_declaration, scope: !2, entity: !280, file: !162, line: 174)
!280 = !DISubprogram(name: "vwscanf", scope: !168, file: !168, line: 681, type: !277, flags: DIFlagPrototyped, spFlags: 0)
!281 = !DIImportedEntity(tag: DW_TAG_imported_declaration, scope: !2, entity: !282, file: !162, line: 176)
!282 = !DISubprogram(name: "wcrtomb", scope: !168, file: !168, line: 301, type: !283, flags: DIFlagPrototyped, spFlags: 0)
!283 = !DISubroutineType(types: !284)
!284 = !{!64, !92, !184, !218}
!285 = !DIImportedEntity(tag: DW_TAG_imported_declaration, scope: !2, entity: !286, file: !162, line: 177)
!286 = !DISubprogram(name: "wcscat", scope: !168, file: !168, line: 97, type: !287, flags: DIFlagPrototyped, spFlags: 0)
!287 = !DISubroutineType(types: !288)
!288 = !{!183, !185, !195}
!289 = !DIImportedEntity(tag: DW_TAG_imported_declaration, scope: !2, entity: !290, file: !162, line: 178)
!290 = !DISubprogram(name: "wcscmp", scope: !168, file: !168, line: 106, type: !291, flags: DIFlagPrototyped, spFlags: 0)
!291 = !DISubroutineType(types: !292)
!292 = !{!11, !196, !196}
!293 = !DIImportedEntity(tag: DW_TAG_imported_declaration, scope: !2, entity: !294, file: !162, line: 179)
!294 = !DISubprogram(name: "wcscoll", scope: !168, file: !168, line: 131, type: !291, flags: DIFlagPrototyped, spFlags: 0)
!295 = !DIImportedEntity(tag: DW_TAG_imported_declaration, scope: !2, entity: !296, file: !162, line: 180)
!296 = !DISubprogram(name: "wcscpy", scope: !168, file: !168, line: 87, type: !287, flags: DIFlagPrototyped, spFlags: 0)
!297 = !DIImportedEntity(tag: DW_TAG_imported_declaration, scope: !2, entity: !298, file: !162, line: 181)
!298 = !DISubprogram(name: "wcscspn", scope: !168, file: !168, line: 187, type: !299, flags: DIFlagPrototyped, spFlags: 0)
!299 = !DISubroutineType(types: !300)
!300 = !{!64, !196, !196}
!301 = !DIImportedEntity(tag: DW_TAG_imported_declaration, scope: !2, entity: !302, file: !162, line: 182)
!302 = !DISubprogram(name: "wcsftime", scope: !168, file: !168, line: 835, type: !303, flags: DIFlagPrototyped, spFlags: 0)
!303 = !DISubroutineType(types: !304)
!304 = !{!64, !185, !64, !195, !305}
!305 = !DIDerivedType(tag: DW_TAG_restrict_type, baseType: !306)
!306 = !DIDerivedType(tag: DW_TAG_pointer_type, baseType: !307, size: 64)
!307 = !DIDerivedType(tag: DW_TAG_const_type, baseType: !308)
!308 = !DICompositeType(tag: DW_TAG_structure_type, name: "tm", file: !168, line: 83, flags: DIFlagFwdDecl, identifier: "_ZTS2tm")
!309 = !DIImportedEntity(tag: DW_TAG_imported_declaration, scope: !2, entity: !310, file: !162, line: 183)
!310 = !DISubprogram(name: "wcslen", scope: !168, file: !168, line: 222, type: !311, flags: DIFlagPrototyped, spFlags: 0)
!311 = !DISubroutineType(types: !312)
!312 = !{!64, !196}
!313 = !DIImportedEntity(tag: DW_TAG_imported_declaration, scope: !2, entity: !314, file: !162, line: 184)
!314 = !DISubprogram(name: "wcsncat", scope: !168, file: !168, line: 101, type: !315, flags: DIFlagPrototyped, spFlags: 0)
!315 = !DISubroutineType(types: !316)
!316 = !{!183, !185, !195, !64}
!317 = !DIImportedEntity(tag: DW_TAG_imported_declaration, scope: !2, entity: !318, file: !162, line: 185)
!318 = !DISubprogram(name: "wcsncmp", scope: !168, file: !168, line: 109, type: !319, flags: DIFlagPrototyped, spFlags: 0)
!319 = !DISubroutineType(types: !320)
!320 = !{!11, !196, !196, !64}
!321 = !DIImportedEntity(tag: DW_TAG_imported_declaration, scope: !2, entity: !322, file: !162, line: 186)
!322 = !DISubprogram(name: "wcsncpy", scope: !168, file: !168, line: 92, type: !315, flags: DIFlagPrototyped, spFlags: 0)
!323 = !DIImportedEntity(tag: DW_TAG_imported_declaration, scope: !2, entity: !324, file: !162, line: 187)
!324 = !DISubprogram(name: "wcsrtombs", scope: !168, file: !168, line: 343, type: !325, flags: DIFlagPrototyped, spFlags: 0)
!325 = !DISubroutineType(types: !326)
!326 = !{!64, !92, !327, !64, !218}
!327 = !DIDerivedType(tag: DW_TAG_restrict_type, baseType: !328)
!328 = !DIDerivedType(tag: DW_TAG_pointer_type, baseType: !196, size: 64)
!329 = !DIImportedEntity(tag: DW_TAG_imported_declaration, scope: !2, entity: !330, file: !162, line: 188)
!330 = !DISubprogram(name: "wcsspn", scope: !168, file: !168, line: 191, type: !299, flags: DIFlagPrototyped, spFlags: 0)
!331 = !DIImportedEntity(tag: DW_TAG_imported_declaration, scope: !2, entity: !332, file: !162, line: 189)
!332 = !DISubprogram(name: "wcstod", scope: !168, file: !168, line: 377, type: !333, flags: DIFlagPrototyped, spFlags: 0)
!333 = !DISubroutineType(types: !334)
!334 = !{!335, !195, !336}
!335 = !DIBasicType(name: "double", size: 64, encoding: DW_ATE_float)
!336 = !DIDerivedType(tag: DW_TAG_restrict_type, baseType: !337)
!337 = !DIDerivedType(tag: DW_TAG_pointer_type, baseType: !183, size: 64)
!338 = !DIImportedEntity(tag: DW_TAG_imported_declaration, scope: !2, entity: !339, file: !162, line: 191)
!339 = !DISubprogram(name: "wcstof", scope: !168, file: !168, line: 382, type: !340, flags: DIFlagPrototyped, spFlags: 0)
!340 = !DISubroutineType(types: !341)
!341 = !{!342, !195, !336}
!342 = !DIBasicType(name: "float", size: 32, encoding: DW_ATE_float)
!343 = !DIImportedEntity(tag: DW_TAG_imported_declaration, scope: !2, entity: !344, file: !162, line: 193)
!344 = !DISubprogram(name: "wcstok", scope: !168, file: !168, line: 217, type: !345, flags: DIFlagPrototyped, spFlags: 0)
!345 = !DISubroutineType(types: !346)
!346 = !{!183, !185, !195, !336}
!347 = !DIImportedEntity(tag: DW_TAG_imported_declaration, scope: !2, entity: !348, file: !162, line: 194)
!348 = !DISubprogram(name: "wcstol", scope: !168, file: !168, line: 428, type: !349, flags: DIFlagPrototyped, spFlags: 0)
!349 = !DISubroutineType(types: !350)
!350 = !{!351, !195, !336, !11}
!351 = !DIBasicType(name: "long int", size: 64, encoding: DW_ATE_signed)
!352 = !DIImportedEntity(tag: DW_TAG_imported_declaration, scope: !2, entity: !353, file: !162, line: 195)
!353 = !DISubprogram(name: "wcstoul", scope: !168, file: !168, line: 433, type: !354, flags: DIFlagPrototyped, spFlags: 0)
!354 = !DISubroutineType(types: !355)
!355 = !{!66, !195, !336, !11}
!356 = !DIImportedEntity(tag: DW_TAG_imported_declaration, scope: !2, entity: !357, file: !162, line: 196)
!357 = !DISubprogram(name: "wcsxfrm", scope: !168, file: !168, line: 135, type: !358, flags: DIFlagPrototyped, spFlags: 0)
!358 = !DISubroutineType(types: !359)
!359 = !{!64, !185, !195, !64}
!360 = !DIImportedEntity(tag: DW_TAG_imported_declaration, scope: !2, entity: !361, file: !162, line: 197)
!361 = !DISubprogram(name: "wctob", scope: !168, file: !168, line: 288, type: !362, flags: DIFlagPrototyped, spFlags: 0)
!362 = !DISubroutineType(types: !363)
!363 = !{!11, !164}
!364 = !DIImportedEntity(tag: DW_TAG_imported_declaration, scope: !2, entity: !365, file: !162, line: 198)
!365 = !DISubprogram(name: "wmemcmp", scope: !168, file: !168, line: 258, type: !319, flags: DIFlagPrototyped, spFlags: 0)
!366 = !DIImportedEntity(tag: DW_TAG_imported_declaration, scope: !2, entity: !367, file: !162, line: 199)
!367 = !DISubprogram(name: "wmemcpy", scope: !168, file: !168, line: 262, type: !315, flags: DIFlagPrototyped, spFlags: 0)
!368 = !DIImportedEntity(tag: DW_TAG_imported_declaration, scope: !2, entity: !369, file: !162, line: 200)
!369 = !DISubprogram(name: "wmemmove", scope: !168, file: !168, line: 267, type: !370, flags: DIFlagPrototyped, spFlags: 0)
!370 = !DISubroutineType(types: !371)
!371 = !{!183, !183, !196, !64}
!372 = !DIImportedEntity(tag: DW_TAG_imported_declaration, scope: !2, entity: !373, file: !162, line: 201)
!373 = !DISubprogram(name: "wmemset", scope: !168, file: !168, line: 271, type: !374, flags: DIFlagPrototyped, spFlags: 0)
!374 = !DISubroutineType(types: !375)
!375 = !{!183, !183, !184, !64}
!376 = !DIImportedEntity(tag: DW_TAG_imported_declaration, scope: !2, entity: !377, file: !162, line: 202)
!377 = !DISubprogram(name: "wprintf", scope: !168, file: !168, line: 587, type: !378, flags: DIFlagPrototyped, spFlags: 0)
!378 = !DISubroutineType(types: !379)
!379 = !{!11, !195, null}
!380 = !DIImportedEntity(tag: DW_TAG_imported_declaration, scope: !2, entity: !381, file: !162, line: 203)
!381 = !DISubprogram(name: "wscanf", scope: !168, file: !168, line: 628, type: !378, flags: DIFlagPrototyped, spFlags: 0)
!382 = !DIImportedEntity(tag: DW_TAG_imported_declaration, scope: !2, entity: !383, file: !162, line: 204)
!383 = !DISubprogram(name: "wcschr", scope: !168, file: !168, line: 164, type: !384, flags: DIFlagPrototyped, spFlags: 0)
!384 = !DISubroutineType(types: !385)
!385 = !{!183, !196, !184}
!386 = !DIImportedEntity(tag: DW_TAG_imported_declaration, scope: !2, entity: !387, file: !162, line: 205)
!387 = !DISubprogram(name: "wcspbrk", scope: !168, file: !168, line: 201, type: !388, flags: DIFlagPrototyped, spFlags: 0)
!388 = !DISubroutineType(types: !389)
!389 = !{!183, !196, !196}
!390 = !DIImportedEntity(tag: DW_TAG_imported_declaration, scope: !2, entity: !391, file: !162, line: 206)
!391 = !DISubprogram(name: "wcsrchr", scope: !168, file: !168, line: 174, type: !384, flags: DIFlagPrototyped, spFlags: 0)
!392 = !DIImportedEntity(tag: DW_TAG_imported_declaration, scope: !2, entity: !393, file: !162, line: 207)
!393 = !DISubprogram(name: "wcsstr", scope: !168, file: !168, line: 212, type: !388, flags: DIFlagPrototyped, spFlags: 0)
!394 = !DIImportedEntity(tag: DW_TAG_imported_declaration, scope: !2, entity: !395, file: !162, line: 208)
!395 = !DISubprogram(name: "wmemchr", scope: !168, file: !168, line: 253, type: !396, flags: DIFlagPrototyped, spFlags: 0)
!396 = !DISubroutineType(types: !397)
!397 = !{!183, !196, !184, !64}
!398 = !DIImportedEntity(tag: DW_TAG_imported_declaration, scope: !399, entity: !400, file: !162, line: 248)
!399 = !DINamespace(name: "__gnu_cxx", scope: null)
!400 = !DISubprogram(name: "wcstold", scope: !168, file: !168, line: 384, type: !401, flags: DIFlagPrototyped, spFlags: 0)
!401 = !DISubroutineType(types: !402)
!402 = !{!403, !195, !336}
!403 = !DIBasicType(name: "long double", size: 128, encoding: DW_ATE_float)
!404 = !DIImportedEntity(tag: DW_TAG_imported_declaration, scope: !399, entity: !405, file: !162, line: 257)
!405 = !DISubprogram(name: "wcstoll", scope: !168, file: !168, line: 441, type: !406, flags: DIFlagPrototyped, spFlags: 0)
!406 = !DISubroutineType(types: !407)
!407 = !{!408, !195, !336, !11}
!408 = !DIBasicType(name: "long long int", size: 64, encoding: DW_ATE_signed)
!409 = !DIImportedEntity(tag: DW_TAG_imported_declaration, scope: !399, entity: !410, file: !162, line: 258)
!410 = !DISubprogram(name: "wcstoull", scope: !168, file: !168, line: 448, type: !411, flags: DIFlagPrototyped, spFlags: 0)
!411 = !DISubroutineType(types: !412)
!412 = !{!413, !195, !336, !11}
!413 = !DIBasicType(name: "long long unsigned int", size: 64, encoding: DW_ATE_unsigned)
!414 = !DIImportedEntity(tag: DW_TAG_imported_declaration, scope: !2, entity: !400, file: !162, line: 264)
!415 = !DIImportedEntity(tag: DW_TAG_imported_declaration, scope: !2, entity: !405, file: !162, line: 265)
!416 = !DIImportedEntity(tag: DW_TAG_imported_declaration, scope: !2, entity: !410, file: !162, line: 266)
!417 = !DIImportedEntity(tag: DW_TAG_imported_declaration, scope: !2, entity: !339, file: !162, line: 280)
!418 = !DIImportedEntity(tag: DW_TAG_imported_declaration, scope: !2, entity: !266, file: !162, line: 283)
!419 = !DIImportedEntity(tag: DW_TAG_imported_declaration, scope: !2, entity: !272, file: !162, line: 286)
!420 = !DIImportedEntity(tag: DW_TAG_imported_declaration, scope: !2, entity: !280, file: !162, line: 289)
!421 = !DIImportedEntity(tag: DW_TAG_imported_declaration, scope: !2, entity: !400, file: !162, line: 293)
!422 = !DIImportedEntity(tag: DW_TAG_imported_declaration, scope: !2, entity: !405, file: !162, line: 294)
!423 = !DIImportedEntity(tag: DW_TAG_imported_declaration, scope: !2, entity: !410, file: !162, line: 295)
!424 = !DIImportedEntity(tag: DW_TAG_imported_declaration, scope: !2, entity: !425, file: !426, line: 57)
!425 = distinct !DICompositeType(tag: DW_TAG_class_type, name: "exception_ptr", scope: !427, file: !426, line: 79, size: 64, flags: DIFlagTypePassByReference | DIFlagNonTrivial, elements: !428, identifier: "_ZTSNSt15__exception_ptr13exception_ptrE")
!426 = !DIFile(filename: "/usr/lib/gcc/x86_64-linux-gnu/7.5.0/../../../../include/c++/7.5.0/bits/exception_ptr.h", directory: "")
!427 = !DINamespace(name: "__exception_ptr", scope: !2)
!428 = !{!429, !430, !434, !437, !438, !443, !444, !448, !454, !458, !462, !465, !466, !469, !472}
!429 = !DIDerivedType(tag: DW_TAG_member, name: "_M_exception_object", scope: !425, file: !426, line: 81, baseType: !61, size: 64)
!430 = !DISubprogram(name: "exception_ptr", scope: !425, file: !426, line: 83, type: !431, scopeLine: 83, flags: DIFlagExplicit | DIFlagPrototyped, spFlags: 0)
!431 = !DISubroutineType(types: !432)
!432 = !{null, !433, !61}
!433 = !DIDerivedType(tag: DW_TAG_pointer_type, baseType: !425, size: 64, flags: DIFlagArtificial | DIFlagObjectPointer)
!434 = !DISubprogram(name: "_M_addref", linkageName: "_ZNSt15__exception_ptr13exception_ptr9_M_addrefEv", scope: !425, file: !426, line: 85, type: !435, scopeLine: 85, flags: DIFlagPrototyped, spFlags: 0)
!435 = !DISubroutineType(types: !436)
!436 = !{null, !433}
!437 = !DISubprogram(name: "_M_release", linkageName: "_ZNSt15__exception_ptr13exception_ptr10_M_releaseEv", scope: !425, file: !426, line: 86, type: !435, scopeLine: 86, flags: DIFlagPrototyped, spFlags: 0)
!438 = !DISubprogram(name: "_M_get", linkageName: "_ZNKSt15__exception_ptr13exception_ptr6_M_getEv", scope: !425, file: !426, line: 88, type: !439, scopeLine: 88, flags: DIFlagPrototyped, spFlags: 0)
!439 = !DISubroutineType(types: !440)
!440 = !{!61, !441}
!441 = !DIDerivedType(tag: DW_TAG_pointer_type, baseType: !442, size: 64, flags: DIFlagArtificial | DIFlagObjectPointer)
!442 = !DIDerivedType(tag: DW_TAG_const_type, baseType: !425)
!443 = !DISubprogram(name: "exception_ptr", scope: !425, file: !426, line: 96, type: !435, scopeLine: 96, flags: DIFlagPublic | DIFlagPrototyped, spFlags: 0)
!444 = !DISubprogram(name: "exception_ptr", scope: !425, file: !426, line: 98, type: !445, scopeLine: 98, flags: DIFlagPublic | DIFlagPrototyped, spFlags: 0)
!445 = !DISubroutineType(types: !446)
!446 = !{null, !433, !447}
!447 = !DIDerivedType(tag: DW_TAG_reference_type, baseType: !442, size: 64)
!448 = !DISubprogram(name: "exception_ptr", scope: !425, file: !426, line: 101, type: !449, scopeLine: 101, flags: DIFlagPublic | DIFlagPrototyped, spFlags: 0)
!449 = !DISubroutineType(types: !450)
!450 = !{null, !433, !451}
!451 = !DIDerivedType(tag: DW_TAG_typedef, name: "nullptr_t", scope: !2, file: !452, line: 235, baseType: !453)
!452 = !DIFile(filename: "/usr/lib/gcc/x86_64-linux-gnu/7.5.0/../../../../include/x86_64-linux-gnu/c++/7.5.0/bits/c++config.h", directory: "")
!453 = !DIBasicType(tag: DW_TAG_unspecified_type, name: "decltype(nullptr)")
!454 = !DISubprogram(name: "exception_ptr", scope: !425, file: !426, line: 105, type: !455, scopeLine: 105, flags: DIFlagPublic | DIFlagPrototyped, spFlags: 0)
!455 = !DISubroutineType(types: !456)
!456 = !{null, !433, !457}
!457 = !DIDerivedType(tag: DW_TAG_rvalue_reference_type, baseType: !425, size: 64)
!458 = !DISubprogram(name: "operator=", linkageName: "_ZNSt15__exception_ptr13exception_ptraSERKS0_", scope: !425, file: !426, line: 118, type: !459, scopeLine: 118, flags: DIFlagPublic | DIFlagPrototyped, spFlags: 0)
!459 = !DISubroutineType(types: !460)
!460 = !{!461, !433, !447}
!461 = !DIDerivedType(tag: DW_TAG_reference_type, baseType: !425, size: 64)
!462 = !DISubprogram(name: "operator=", linkageName: "_ZNSt15__exception_ptr13exception_ptraSEOS0_", scope: !425, file: !426, line: 122, type: !463, scopeLine: 122, flags: DIFlagPublic | DIFlagPrototyped, spFlags: 0)
!463 = !DISubroutineType(types: !464)
!464 = !{!461, !433, !457}
!465 = !DISubprogram(name: "~exception_ptr", scope: !425, file: !426, line: 129, type: !435, scopeLine: 129, flags: DIFlagPublic | DIFlagPrototyped, spFlags: 0)
!466 = !DISubprogram(name: "swap", linkageName: "_ZNSt15__exception_ptr13exception_ptr4swapERS0_", scope: !425, file: !426, line: 132, type: !467, scopeLine: 132, flags: DIFlagPublic | DIFlagPrototyped, spFlags: 0)
!467 = !DISubroutineType(types: !468)
!468 = !{null, !433, !461}
!469 = !DISubprogram(name: "operator bool", linkageName: "_ZNKSt15__exception_ptr13exception_ptrcvbEv", scope: !425, file: !426, line: 144, type: !470, scopeLine: 144, flags: DIFlagPublic | DIFlagExplicit | DIFlagPrototyped, spFlags: 0)
!470 = !DISubroutineType(types: !471)
!471 = !{!13, !441}
!472 = !DISubprogram(name: "__cxa_exception_type", linkageName: "_ZNKSt15__exception_ptr13exception_ptr20__cxa_exception_typeEv", scope: !425, file: !426, line: 153, type: !473, scopeLine: 153, flags: DIFlagPublic | DIFlagPrototyped, spFlags: 0)
!473 = !DISubroutineType(types: !474)
!474 = !{!475, !441}
!475 = !DIDerivedType(tag: DW_TAG_pointer_type, baseType: !476, size: 64)
!476 = !DIDerivedType(tag: DW_TAG_const_type, baseType: !477)
!477 = !DICompositeType(tag: DW_TAG_class_type, name: "type_info", scope: !2, file: !478, line: 88, flags: DIFlagFwdDecl)
!478 = !DIFile(filename: "/usr/lib/gcc/x86_64-linux-gnu/7.5.0/../../../../include/c++/7.5.0/typeinfo", directory: "")
!479 = !DIImportedEntity(tag: DW_TAG_imported_declaration, scope: !427, entity: !480, file: !426, line: 73)
!480 = !DISubprogram(name: "rethrow_exception", linkageName: "_ZSt17rethrow_exceptionNSt15__exception_ptr13exception_ptrE", scope: !2, file: !426, line: 69, type: !481, flags: DIFlagPrototyped | DIFlagNoReturn, spFlags: 0)
!481 = !DISubroutineType(types: !482)
!482 = !{null, !425}
!483 = !DIImportedEntity(tag: DW_TAG_imported_module, scope: !484, entity: !485, file: !486, line: 58)
!484 = !DINamespace(name: "__gnu_debug", scope: null)
!485 = !DINamespace(name: "__debug", scope: !2)
!486 = !DIFile(filename: "/usr/lib/gcc/x86_64-linux-gnu/7.5.0/../../../../include/c++/7.5.0/debug/debug.h", directory: "")
!487 = !DIImportedEntity(tag: DW_TAG_imported_declaration, scope: !2, entity: !488, file: !493, line: 48)
!488 = !DIDerivedType(tag: DW_TAG_typedef, name: "int8_t", file: !489, line: 24, baseType: !490)
!489 = !DIFile(filename: "/usr/include/x86_64-linux-gnu/bits/stdint-intn.h", directory: "")
!490 = !DIDerivedType(tag: DW_TAG_typedef, name: "__int8_t", file: !491, line: 36, baseType: !492)
!491 = !DIFile(filename: "/usr/include/x86_64-linux-gnu/bits/types.h", directory: "")
!492 = !DIBasicType(name: "signed char", size: 8, encoding: DW_ATE_signed_char)
!493 = !DIFile(filename: "/usr/lib/gcc/x86_64-linux-gnu/7.5.0/../../../../include/c++/7.5.0/cstdint", directory: "")
!494 = !DIImportedEntity(tag: DW_TAG_imported_declaration, scope: !2, entity: !495, file: !493, line: 49)
!495 = !DIDerivedType(tag: DW_TAG_typedef, name: "int16_t", file: !489, line: 25, baseType: !496)
!496 = !DIDerivedType(tag: DW_TAG_typedef, name: "__int16_t", file: !491, line: 38, baseType: !497)
!497 = !DIBasicType(name: "short", size: 16, encoding: DW_ATE_signed)
!498 = !DIImportedEntity(tag: DW_TAG_imported_declaration, scope: !2, entity: !499, file: !493, line: 50)
!499 = !DIDerivedType(tag: DW_TAG_typedef, name: "int32_t", file: !489, line: 26, baseType: !500)
!500 = !DIDerivedType(tag: DW_TAG_typedef, name: "__int32_t", file: !491, line: 40, baseType: !11)
!501 = !DIImportedEntity(tag: DW_TAG_imported_declaration, scope: !2, entity: !502, file: !493, line: 51)
!502 = !DIDerivedType(tag: DW_TAG_typedef, name: "int64_t", file: !489, line: 27, baseType: !503)
!503 = !DIDerivedType(tag: DW_TAG_typedef, name: "__int64_t", file: !491, line: 43, baseType: !351)
!504 = !DIImportedEntity(tag: DW_TAG_imported_declaration, scope: !2, entity: !505, file: !493, line: 53)
!505 = !DIDerivedType(tag: DW_TAG_typedef, name: "int_fast8_t", file: !506, line: 68, baseType: !492)
!506 = !DIFile(filename: "/usr/include/stdint.h", directory: "")
!507 = !DIImportedEntity(tag: DW_TAG_imported_declaration, scope: !2, entity: !508, file: !493, line: 54)
!508 = !DIDerivedType(tag: DW_TAG_typedef, name: "int_fast16_t", file: !506, line: 70, baseType: !351)
!509 = !DIImportedEntity(tag: DW_TAG_imported_declaration, scope: !2, entity: !510, file: !493, line: 55)
!510 = !DIDerivedType(tag: DW_TAG_typedef, name: "int_fast32_t", file: !506, line: 71, baseType: !351)
!511 = !DIImportedEntity(tag: DW_TAG_imported_declaration, scope: !2, entity: !512, file: !493, line: 56)
!512 = !DIDerivedType(tag: DW_TAG_typedef, name: "int_fast64_t", file: !506, line: 72, baseType: !351)
!513 = !DIImportedEntity(tag: DW_TAG_imported_declaration, scope: !2, entity: !514, file: !493, line: 58)
!514 = !DIDerivedType(tag: DW_TAG_typedef, name: "int_least8_t", file: !506, line: 43, baseType: !492)
!515 = !DIImportedEntity(tag: DW_TAG_imported_declaration, scope: !2, entity: !516, file: !493, line: 59)
!516 = !DIDerivedType(tag: DW_TAG_typedef, name: "int_least16_t", file: !506, line: 44, baseType: !497)
!517 = !DIImportedEntity(tag: DW_TAG_imported_declaration, scope: !2, entity: !518, file: !493, line: 60)
!518 = !DIDerivedType(tag: DW_TAG_typedef, name: "int_least32_t", file: !506, line: 45, baseType: !11)
!519 = !DIImportedEntity(tag: DW_TAG_imported_declaration, scope: !2, entity: !520, file: !493, line: 61)
!520 = !DIDerivedType(tag: DW_TAG_typedef, name: "int_least64_t", file: !506, line: 47, baseType: !351)
!521 = !DIImportedEntity(tag: DW_TAG_imported_declaration, scope: !2, entity: !522, file: !493, line: 63)
!522 = !DIDerivedType(tag: DW_TAG_typedef, name: "intmax_t", file: !506, line: 111, baseType: !523)
!523 = !DIDerivedType(tag: DW_TAG_typedef, name: "__intmax_t", file: !491, line: 61, baseType: !351)
!524 = !DIImportedEntity(tag: DW_TAG_imported_declaration, scope: !2, entity: !525, file: !493, line: 64)
!525 = !DIDerivedType(tag: DW_TAG_typedef, name: "intptr_t", file: !506, line: 97, baseType: !351)
!526 = !DIImportedEntity(tag: DW_TAG_imported_declaration, scope: !2, entity: !527, file: !493, line: 66)
!527 = !DIDerivedType(tag: DW_TAG_typedef, name: "uint8_t", file: !528, line: 24, baseType: !529)
!528 = !DIFile(filename: "/usr/include/x86_64-linux-gnu/bits/stdint-uintn.h", directory: "")
!529 = !DIDerivedType(tag: DW_TAG_typedef, name: "__uint8_t", file: !491, line: 37, baseType: !530)
!530 = !DIBasicType(name: "unsigned char", size: 8, encoding: DW_ATE_unsigned_char)
!531 = !DIImportedEntity(tag: DW_TAG_imported_declaration, scope: !2, entity: !532, file: !493, line: 67)
!532 = !DIDerivedType(tag: DW_TAG_typedef, name: "uint16_t", file: !528, line: 25, baseType: !533)
!533 = !DIDerivedType(tag: DW_TAG_typedef, name: "__uint16_t", file: !491, line: 39, baseType: !534)
!534 = !DIBasicType(name: "unsigned short", size: 16, encoding: DW_ATE_unsigned)
!535 = !DIImportedEntity(tag: DW_TAG_imported_declaration, scope: !2, entity: !536, file: !493, line: 68)
!536 = !DIDerivedType(tag: DW_TAG_typedef, name: "uint32_t", file: !528, line: 26, baseType: !537)
!537 = !DIDerivedType(tag: DW_TAG_typedef, name: "__uint32_t", file: !491, line: 41, baseType: !28)
!538 = !DIImportedEntity(tag: DW_TAG_imported_declaration, scope: !2, entity: !539, file: !493, line: 69)
!539 = !DIDerivedType(tag: DW_TAG_typedef, name: "uint64_t", file: !528, line: 27, baseType: !540)
!540 = !DIDerivedType(tag: DW_TAG_typedef, name: "__uint64_t", file: !491, line: 44, baseType: !66)
!541 = !DIImportedEntity(tag: DW_TAG_imported_declaration, scope: !2, entity: !542, file: !493, line: 71)
!542 = !DIDerivedType(tag: DW_TAG_typedef, name: "uint_fast8_t", file: !506, line: 81, baseType: !530)
!543 = !DIImportedEntity(tag: DW_TAG_imported_declaration, scope: !2, entity: !544, file: !493, line: 72)
!544 = !DIDerivedType(tag: DW_TAG_typedef, name: "uint_fast16_t", file: !506, line: 83, baseType: !66)
!545 = !DIImportedEntity(tag: DW_TAG_imported_declaration, scope: !2, entity: !546, file: !493, line: 73)
!546 = !DIDerivedType(tag: DW_TAG_typedef, name: "uint_fast32_t", file: !506, line: 84, baseType: !66)
!547 = !DIImportedEntity(tag: DW_TAG_imported_declaration, scope: !2, entity: !548, file: !493, line: 74)
!548 = !DIDerivedType(tag: DW_TAG_typedef, name: "uint_fast64_t", file: !506, line: 85, baseType: !66)
!549 = !DIImportedEntity(tag: DW_TAG_imported_declaration, scope: !2, entity: !550, file: !493, line: 76)
!550 = !DIDerivedType(tag: DW_TAG_typedef, name: "uint_least8_t", file: !506, line: 54, baseType: !530)
!551 = !DIImportedEntity(tag: DW_TAG_imported_declaration, scope: !2, entity: !552, file: !493, line: 77)
!552 = !DIDerivedType(tag: DW_TAG_typedef, name: "uint_least16_t", file: !506, line: 55, baseType: !534)
!553 = !DIImportedEntity(tag: DW_TAG_imported_declaration, scope: !2, entity: !554, file: !493, line: 78)
!554 = !DIDerivedType(tag: DW_TAG_typedef, name: "uint_least32_t", file: !506, line: 56, baseType: !28)
!555 = !DIImportedEntity(tag: DW_TAG_imported_declaration, scope: !2, entity: !556, file: !493, line: 79)
!556 = !DIDerivedType(tag: DW_TAG_typedef, name: "uint_least64_t", file: !506, line: 58, baseType: !66)
!557 = !DIImportedEntity(tag: DW_TAG_imported_declaration, scope: !2, entity: !558, file: !493, line: 81)
!558 = !DIDerivedType(tag: DW_TAG_typedef, name: "uintmax_t", file: !506, line: 112, baseType: !559)
!559 = !DIDerivedType(tag: DW_TAG_typedef, name: "__uintmax_t", file: !491, line: 62, baseType: !66)
!560 = !DIImportedEntity(tag: DW_TAG_imported_declaration, scope: !2, entity: !561, file: !493, line: 82)
!561 = !DIDerivedType(tag: DW_TAG_typedef, name: "uintptr_t", file: !506, line: 100, baseType: !66)
!562 = !DIImportedEntity(tag: DW_TAG_imported_declaration, scope: !2, entity: !563, file: !565, line: 53)
!563 = !DICompositeType(tag: DW_TAG_structure_type, name: "lconv", file: !564, line: 51, flags: DIFlagFwdDecl, identifier: "_ZTS5lconv")
!564 = !DIFile(filename: "/usr/include/locale.h", directory: "")
!565 = !DIFile(filename: "/usr/lib/gcc/x86_64-linux-gnu/7.5.0/../../../../include/c++/7.5.0/clocale", directory: "")
!566 = !DIImportedEntity(tag: DW_TAG_imported_declaration, scope: !2, entity: !567, file: !565, line: 54)
!567 = !DISubprogram(name: "setlocale", scope: !564, file: !564, line: 122, type: !568, flags: DIFlagPrototyped, spFlags: 0)
!568 = !DISubroutineType(types: !569)
!569 = !{!90, !11, !94}
!570 = !DIImportedEntity(tag: DW_TAG_imported_declaration, scope: !2, entity: !571, file: !565, line: 55)
!571 = !DISubprogram(name: "localeconv", scope: !564, file: !564, line: 125, type: !572, flags: DIFlagPrototyped, spFlags: 0)
!572 = !DISubroutineType(types: !573)
!573 = !{!574}
!574 = !DIDerivedType(tag: DW_TAG_pointer_type, baseType: !563, size: 64)
!575 = !DIImportedEntity(tag: DW_TAG_imported_declaration, scope: !2, entity: !576, file: !580, line: 64)
!576 = !DISubprogram(name: "isalnum", scope: !577, file: !577, line: 108, type: !578, flags: DIFlagPrototyped, spFlags: 0)
!577 = !DIFile(filename: "/usr/include/ctype.h", directory: "")
!578 = !DISubroutineType(types: !579)
!579 = !{!11, !11}
!580 = !DIFile(filename: "/usr/lib/gcc/x86_64-linux-gnu/7.5.0/../../../../include/c++/7.5.0/cctype", directory: "")
!581 = !DIImportedEntity(tag: DW_TAG_imported_declaration, scope: !2, entity: !582, file: !580, line: 65)
!582 = !DISubprogram(name: "isalpha", scope: !577, file: !577, line: 109, type: !578, flags: DIFlagPrototyped, spFlags: 0)
!583 = !DIImportedEntity(tag: DW_TAG_imported_declaration, scope: !2, entity: !584, file: !580, line: 66)
!584 = !DISubprogram(name: "iscntrl", scope: !577, file: !577, line: 110, type: !578, flags: DIFlagPrototyped, spFlags: 0)
!585 = !DIImportedEntity(tag: DW_TAG_imported_declaration, scope: !2, entity: !586, file: !580, line: 67)
!586 = !DISubprogram(name: "isdigit", scope: !577, file: !577, line: 111, type: !578, flags: DIFlagPrototyped, spFlags: 0)
!587 = !DIImportedEntity(tag: DW_TAG_imported_declaration, scope: !2, entity: !588, file: !580, line: 68)
!588 = !DISubprogram(name: "isgraph", scope: !577, file: !577, line: 113, type: !578, flags: DIFlagPrototyped, spFlags: 0)
!589 = !DIImportedEntity(tag: DW_TAG_imported_declaration, scope: !2, entity: !590, file: !580, line: 69)
!590 = !DISubprogram(name: "islower", scope: !577, file: !577, line: 112, type: !578, flags: DIFlagPrototyped, spFlags: 0)
!591 = !DIImportedEntity(tag: DW_TAG_imported_declaration, scope: !2, entity: !592, file: !580, line: 70)
!592 = !DISubprogram(name: "isprint", scope: !577, file: !577, line: 114, type: !578, flags: DIFlagPrototyped, spFlags: 0)
!593 = !DIImportedEntity(tag: DW_TAG_imported_declaration, scope: !2, entity: !594, file: !580, line: 71)
!594 = !DISubprogram(name: "ispunct", scope: !577, file: !577, line: 115, type: !578, flags: DIFlagPrototyped, spFlags: 0)
!595 = !DIImportedEntity(tag: DW_TAG_imported_declaration, scope: !2, entity: !596, file: !580, line: 72)
!596 = !DISubprogram(name: "isspace", scope: !577, file: !577, line: 116, type: !578, flags: DIFlagPrototyped, spFlags: 0)
!597 = !DIImportedEntity(tag: DW_TAG_imported_declaration, scope: !2, entity: !598, file: !580, line: 73)
!598 = !DISubprogram(name: "isupper", scope: !577, file: !577, line: 117, type: !578, flags: DIFlagPrototyped, spFlags: 0)
!599 = !DIImportedEntity(tag: DW_TAG_imported_declaration, scope: !2, entity: !600, file: !580, line: 74)
!600 = !DISubprogram(name: "isxdigit", scope: !577, file: !577, line: 118, type: !578, flags: DIFlagPrototyped, spFlags: 0)
!601 = !DIImportedEntity(tag: DW_TAG_imported_declaration, scope: !2, entity: !602, file: !580, line: 75)
!602 = !DISubprogram(name: "tolower", scope: !577, file: !577, line: 122, type: !578, flags: DIFlagPrototyped, spFlags: 0)
!603 = !DIImportedEntity(tag: DW_TAG_imported_declaration, scope: !2, entity: !604, file: !580, line: 76)
!604 = !DISubprogram(name: "toupper", scope: !577, file: !577, line: 125, type: !578, flags: DIFlagPrototyped, spFlags: 0)
!605 = !DIImportedEntity(tag: DW_TAG_imported_declaration, scope: !2, entity: !606, file: !580, line: 87)
!606 = !DISubprogram(name: "isblank", scope: !577, file: !577, line: 130, type: !578, flags: DIFlagPrototyped, spFlags: 0)
!607 = !DIImportedEntity(tag: DW_TAG_imported_declaration, scope: !399, entity: !608, file: !609, line: 44)
!608 = !DIDerivedType(tag: DW_TAG_typedef, name: "size_t", scope: !2, file: !452, line: 231, baseType: !66)
!609 = !DIFile(filename: "/usr/lib/gcc/x86_64-linux-gnu/7.5.0/../../../../include/c++/7.5.0/ext/new_allocator.h", directory: "")
!610 = !DIImportedEntity(tag: DW_TAG_imported_declaration, scope: !399, entity: !611, file: !609, line: 45)
!611 = !DIDerivedType(tag: DW_TAG_typedef, name: "ptrdiff_t", scope: !2, file: !452, line: 232, baseType: !351)
!612 = !DIImportedEntity(tag: DW_TAG_imported_declaration, scope: !2, entity: !613, file: !615, line: 52)
!613 = !DISubprogram(name: "abs", scope: !614, file: !614, line: 837, type: !578, flags: DIFlagPrototyped, spFlags: 0)
!614 = !DIFile(filename: "/usr/include/stdlib.h", directory: "")
!615 = !DIFile(filename: "/usr/lib/gcc/x86_64-linux-gnu/7.5.0/../../../../include/c++/7.5.0/bits/std_abs.h", directory: "")
!616 = !DIImportedEntity(tag: DW_TAG_imported_declaration, scope: !2, entity: !617, file: !619, line: 127)
!617 = !DIDerivedType(tag: DW_TAG_typedef, name: "div_t", file: !614, line: 62, baseType: !618)
!618 = !DICompositeType(tag: DW_TAG_structure_type, file: !614, line: 58, flags: DIFlagFwdDecl, identifier: "_ZTS5div_t")
!619 = !DIFile(filename: "/usr/lib/gcc/x86_64-linux-gnu/7.5.0/../../../../include/c++/7.5.0/cstdlib", directory: "")
!620 = !DIImportedEntity(tag: DW_TAG_imported_declaration, scope: !2, entity: !621, file: !619, line: 128)
!621 = !DIDerivedType(tag: DW_TAG_typedef, name: "ldiv_t", file: !614, line: 70, baseType: !622)
!622 = distinct !DICompositeType(tag: DW_TAG_structure_type, file: !614, line: 66, size: 128, flags: DIFlagTypePassByValue, elements: !623, identifier: "_ZTS6ldiv_t")
!623 = !{!624, !625}
!624 = !DIDerivedType(tag: DW_TAG_member, name: "quot", scope: !622, file: !614, line: 68, baseType: !351, size: 64)
!625 = !DIDerivedType(tag: DW_TAG_member, name: "rem", scope: !622, file: !614, line: 69, baseType: !351, size: 64, offset: 64)
!626 = !DIImportedEntity(tag: DW_TAG_imported_declaration, scope: !2, entity: !627, file: !619, line: 130)
!627 = !DISubprogram(name: "abort", scope: !614, file: !614, line: 588, type: !628, flags: DIFlagPrototyped | DIFlagNoReturn, spFlags: 0)
!628 = !DISubroutineType(types: !629)
!629 = !{null}
!630 = !DIImportedEntity(tag: DW_TAG_imported_declaration, scope: !2, entity: !631, file: !619, line: 134)
!631 = !DISubprogram(name: "atexit", scope: !614, file: !614, line: 592, type: !632, flags: DIFlagPrototyped, spFlags: 0)
!632 = !DISubroutineType(types: !633)
!633 = !{!11, !634}
!634 = !DIDerivedType(tag: DW_TAG_pointer_type, baseType: !628, size: 64)
!635 = !DIImportedEntity(tag: DW_TAG_imported_declaration, scope: !2, entity: !636, file: !619, line: 137)
!636 = !DISubprogram(name: "at_quick_exit", scope: !614, file: !614, line: 597, type: !632, flags: DIFlagPrototyped, spFlags: 0)
!637 = !DIImportedEntity(tag: DW_TAG_imported_declaration, scope: !2, entity: !638, file: !619, line: 140)
!638 = !DISubprogram(name: "atof", scope: !614, file: !614, line: 101, type: !639, flags: DIFlagPrototyped, spFlags: 0)
!639 = !DISubroutineType(types: !640)
!640 = !{!335, !94}
!641 = !DIImportedEntity(tag: DW_TAG_imported_declaration, scope: !2, entity: !642, file: !619, line: 141)
!642 = !DISubprogram(name: "atoi", scope: !614, file: !614, line: 104, type: !643, flags: DIFlagPrototyped, spFlags: 0)
!643 = !DISubroutineType(types: !644)
!644 = !{!11, !94}
!645 = !DIImportedEntity(tag: DW_TAG_imported_declaration, scope: !2, entity: !646, file: !619, line: 142)
!646 = !DISubprogram(name: "atol", scope: !614, file: !614, line: 107, type: !647, flags: DIFlagPrototyped, spFlags: 0)
!647 = !DISubroutineType(types: !648)
!648 = !{!351, !94}
!649 = !DIImportedEntity(tag: DW_TAG_imported_declaration, scope: !2, entity: !650, file: !619, line: 143)
!650 = !DISubprogram(name: "bsearch", scope: !614, file: !614, line: 817, type: !651, flags: DIFlagPrototyped, spFlags: 0)
!651 = !DISubroutineType(types: !652)
!652 = !{!61, !62, !62, !64, !64, !653}
!653 = !DIDerivedType(tag: DW_TAG_typedef, name: "__compar_fn_t", file: !614, line: 805, baseType: !654)
!654 = !DIDerivedType(tag: DW_TAG_pointer_type, baseType: !655, size: 64)
!655 = !DISubroutineType(types: !656)
!656 = !{!11, !62, !62}
!657 = !DIImportedEntity(tag: DW_TAG_imported_declaration, scope: !2, entity: !658, file: !619, line: 144)
!658 = !DISubprogram(name: "calloc", scope: !614, file: !614, line: 541, type: !659, flags: DIFlagPrototyped, spFlags: 0)
!659 = !DISubroutineType(types: !660)
!660 = !{!61, !64, !64}
!661 = !DIImportedEntity(tag: DW_TAG_imported_declaration, scope: !2, entity: !662, file: !619, line: 145)
!662 = !DISubprogram(name: "div", scope: !614, file: !614, line: 849, type: !663, flags: DIFlagPrototyped, spFlags: 0)
!663 = !DISubroutineType(types: !664)
!664 = !{!617, !11, !11}
!665 = !DIImportedEntity(tag: DW_TAG_imported_declaration, scope: !2, entity: !666, file: !619, line: 146)
!666 = !DISubprogram(name: "exit", scope: !614, file: !614, line: 614, type: !667, flags: DIFlagPrototyped | DIFlagNoReturn, spFlags: 0)
!667 = !DISubroutineType(types: !668)
!668 = !{null, !11}
!669 = !DIImportedEntity(tag: DW_TAG_imported_declaration, scope: !2, entity: !670, file: !619, line: 147)
!670 = !DISubprogram(name: "free", scope: !614, file: !614, line: 563, type: !671, flags: DIFlagPrototyped, spFlags: 0)
!671 = !DISubroutineType(types: !672)
!672 = !{null, !61}
!673 = !DIImportedEntity(tag: DW_TAG_imported_declaration, scope: !2, entity: !674, file: !619, line: 148)
!674 = !DISubprogram(name: "getenv", scope: !614, file: !614, line: 631, type: !675, flags: DIFlagPrototyped, spFlags: 0)
!675 = !DISubroutineType(types: !676)
!676 = !{!90, !94}
!677 = !DIImportedEntity(tag: DW_TAG_imported_declaration, scope: !2, entity: !678, file: !619, line: 149)
!678 = !DISubprogram(name: "labs", scope: !614, file: !614, line: 838, type: !679, flags: DIFlagPrototyped, spFlags: 0)
!679 = !DISubroutineType(types: !680)
!680 = !{!351, !351}
!681 = !DIImportedEntity(tag: DW_TAG_imported_declaration, scope: !2, entity: !682, file: !619, line: 150)
!682 = !DISubprogram(name: "ldiv", scope: !614, file: !614, line: 851, type: !683, flags: DIFlagPrototyped, spFlags: 0)
!683 = !DISubroutineType(types: !684)
!684 = !{!621, !351, !351}
!685 = !DIImportedEntity(tag: DW_TAG_imported_declaration, scope: !2, entity: !686, file: !619, line: 151)
!686 = !DISubprogram(name: "malloc", scope: !614, file: !614, line: 539, type: !687, flags: DIFlagPrototyped, spFlags: 0)
!687 = !DISubroutineType(types: !688)
!688 = !{!61, !64}
!689 = !DIImportedEntity(tag: DW_TAG_imported_declaration, scope: !2, entity: !690, file: !619, line: 153)
!690 = !DISubprogram(name: "mblen", scope: !614, file: !614, line: 919, type: !691, flags: DIFlagPrototyped, spFlags: 0)
!691 = !DISubroutineType(types: !692)
!692 = !{!11, !94, !64}
!693 = !DIImportedEntity(tag: DW_TAG_imported_declaration, scope: !2, entity: !694, file: !619, line: 154)
!694 = !DISubprogram(name: "mbstowcs", scope: !614, file: !614, line: 930, type: !695, flags: DIFlagPrototyped, spFlags: 0)
!695 = !DISubroutineType(types: !696)
!696 = !{!64, !185, !93, !64}
!697 = !DIImportedEntity(tag: DW_TAG_imported_declaration, scope: !2, entity: !698, file: !619, line: 155)
!698 = !DISubprogram(name: "mbtowc", scope: !614, file: !614, line: 922, type: !699, flags: DIFlagPrototyped, spFlags: 0)
!699 = !DISubroutineType(types: !700)
!700 = !{!11, !185, !93, !64}
!701 = !DIImportedEntity(tag: DW_TAG_imported_declaration, scope: !2, entity: !702, file: !619, line: 157)
!702 = !DISubprogram(name: "qsort", scope: !614, file: !614, line: 827, type: !703, flags: DIFlagPrototyped, spFlags: 0)
!703 = !DISubroutineType(types: !704)
!704 = !{null, !61, !64, !64, !653}
!705 = !DIImportedEntity(tag: DW_TAG_imported_declaration, scope: !2, entity: !706, file: !619, line: 160)
!706 = !DISubprogram(name: "quick_exit", scope: !614, file: !614, line: 620, type: !667, flags: DIFlagPrototyped | DIFlagNoReturn, spFlags: 0)
!707 = !DIImportedEntity(tag: DW_TAG_imported_declaration, scope: !2, entity: !708, file: !619, line: 163)
!708 = !DISubprogram(name: "rand", scope: !614, file: !614, line: 453, type: !709, flags: DIFlagPrototyped, spFlags: 0)
!709 = !DISubroutineType(types: !710)
!710 = !{!11}
!711 = !DIImportedEntity(tag: DW_TAG_imported_declaration, scope: !2, entity: !712, file: !619, line: 164)
!712 = !DISubprogram(name: "realloc", scope: !614, file: !614, line: 549, type: !713, flags: DIFlagPrototyped, spFlags: 0)
!713 = !DISubroutineType(types: !714)
!714 = !{!61, !61, !64}
!715 = !DIImportedEntity(tag: DW_TAG_imported_declaration, scope: !2, entity: !716, file: !619, line: 165)
!716 = !DISubprogram(name: "srand", scope: !614, file: !614, line: 455, type: !717, flags: DIFlagPrototyped, spFlags: 0)
!717 = !DISubroutineType(types: !718)
!718 = !{null, !28}
!719 = !DIImportedEntity(tag: DW_TAG_imported_declaration, scope: !2, entity: !720, file: !619, line: 166)
!720 = !DISubprogram(name: "strtod", scope: !614, file: !614, line: 117, type: !721, flags: DIFlagPrototyped, spFlags: 0)
!721 = !DISubroutineType(types: !722)
!722 = !{!335, !93, !723}
!723 = !DIDerivedType(tag: DW_TAG_restrict_type, baseType: !724)
!724 = !DIDerivedType(tag: DW_TAG_pointer_type, baseType: !90, size: 64)
!725 = !DIImportedEntity(tag: DW_TAG_imported_declaration, scope: !2, entity: !726, file: !619, line: 167)
!726 = !DISubprogram(name: "strtol", scope: !614, file: !614, line: 176, type: !727, flags: DIFlagPrototyped, spFlags: 0)
!727 = !DISubroutineType(types: !728)
!728 = !{!351, !93, !723, !11}
!729 = !DIImportedEntity(tag: DW_TAG_imported_declaration, scope: !2, entity: !730, file: !619, line: 168)
!730 = !DISubprogram(name: "strtoul", scope: !614, file: !614, line: 180, type: !731, flags: DIFlagPrototyped, spFlags: 0)
!731 = !DISubroutineType(types: !732)
!732 = !{!66, !93, !723, !11}
!733 = !DIImportedEntity(tag: DW_TAG_imported_declaration, scope: !2, entity: !734, file: !619, line: 169)
!734 = !DISubprogram(name: "system", scope: !614, file: !614, line: 781, type: !643, flags: DIFlagPrototyped, spFlags: 0)
!735 = !DIImportedEntity(tag: DW_TAG_imported_declaration, scope: !2, entity: !736, file: !619, line: 171)
!736 = !DISubprogram(name: "wcstombs", scope: !614, file: !614, line: 933, type: !737, flags: DIFlagPrototyped, spFlags: 0)
!737 = !DISubroutineType(types: !738)
!738 = !{!64, !92, !195, !64}
!739 = !DIImportedEntity(tag: DW_TAG_imported_declaration, scope: !2, entity: !740, file: !619, line: 172)
!740 = !DISubprogram(name: "wctomb", scope: !614, file: !614, line: 926, type: !741, flags: DIFlagPrototyped, spFlags: 0)
!741 = !DISubroutineType(types: !742)
!742 = !{!11, !90, !184}
!743 = !DIImportedEntity(tag: DW_TAG_imported_declaration, scope: !399, entity: !744, file: !619, line: 200)
!744 = !DIDerivedType(tag: DW_TAG_typedef, name: "lldiv_t", file: !614, line: 80, baseType: !745)
!745 = distinct !DICompositeType(tag: DW_TAG_structure_type, file: !614, line: 76, size: 128, flags: DIFlagTypePassByValue, elements: !746, identifier: "_ZTS7lldiv_t")
!746 = !{!747, !748}
!747 = !DIDerivedType(tag: DW_TAG_member, name: "quot", scope: !745, file: !614, line: 78, baseType: !408, size: 64)
!748 = !DIDerivedType(tag: DW_TAG_member, name: "rem", scope: !745, file: !614, line: 79, baseType: !408, size: 64, offset: 64)
!749 = !DIImportedEntity(tag: DW_TAG_imported_declaration, scope: !399, entity: !750, file: !619, line: 206)
!750 = !DISubprogram(name: "_Exit", scope: !614, file: !614, line: 626, type: !667, flags: DIFlagPrototyped | DIFlagNoReturn, spFlags: 0)
!751 = !DIImportedEntity(tag: DW_TAG_imported_declaration, scope: !399, entity: !752, file: !619, line: 210)
!752 = !DISubprogram(name: "llabs", scope: !614, file: !614, line: 841, type: !753, flags: DIFlagPrototyped, spFlags: 0)
!753 = !DISubroutineType(types: !754)
!754 = !{!408, !408}
!755 = !DIImportedEntity(tag: DW_TAG_imported_declaration, scope: !399, entity: !756, file: !619, line: 216)
!756 = !DISubprogram(name: "lldiv", scope: !614, file: !614, line: 855, type: !757, flags: DIFlagPrototyped, spFlags: 0)
!757 = !DISubroutineType(types: !758)
!758 = !{!744, !408, !408}
!759 = !DIImportedEntity(tag: DW_TAG_imported_declaration, scope: !399, entity: !760, file: !619, line: 227)
!760 = !DISubprogram(name: "atoll", scope: !614, file: !614, line: 112, type: !761, flags: DIFlagPrototyped, spFlags: 0)
!761 = !DISubroutineType(types: !762)
!762 = !{!408, !94}
!763 = !DIImportedEntity(tag: DW_TAG_imported_declaration, scope: !399, entity: !764, file: !619, line: 228)
!764 = !DISubprogram(name: "strtoll", scope: !614, file: !614, line: 200, type: !765, flags: DIFlagPrototyped, spFlags: 0)
!765 = !DISubroutineType(types: !766)
!766 = !{!408, !93, !723, !11}
!767 = !DIImportedEntity(tag: DW_TAG_imported_declaration, scope: !399, entity: !768, file: !619, line: 229)
!768 = !DISubprogram(name: "strtoull", scope: !614, file: !614, line: 205, type: !769, flags: DIFlagPrototyped, spFlags: 0)
!769 = !DISubroutineType(types: !770)
!770 = !{!413, !93, !723, !11}
!771 = !DIImportedEntity(tag: DW_TAG_imported_declaration, scope: !399, entity: !772, file: !619, line: 231)
!772 = !DISubprogram(name: "strtof", scope: !614, file: !614, line: 123, type: !773, flags: DIFlagPrototyped, spFlags: 0)
!773 = !DISubroutineType(types: !774)
!774 = !{!342, !93, !723}
!775 = !DIImportedEntity(tag: DW_TAG_imported_declaration, scope: !399, entity: !776, file: !619, line: 232)
!776 = !DISubprogram(name: "strtold", scope: !614, file: !614, line: 126, type: !777, flags: DIFlagPrototyped, spFlags: 0)
!777 = !DISubroutineType(types: !778)
!778 = !{!403, !93, !723}
!779 = !DIImportedEntity(tag: DW_TAG_imported_declaration, scope: !2, entity: !744, file: !619, line: 240)
!780 = !DIImportedEntity(tag: DW_TAG_imported_declaration, scope: !2, entity: !750, file: !619, line: 242)
!781 = !DIImportedEntity(tag: DW_TAG_imported_declaration, scope: !2, entity: !752, file: !619, line: 244)
!782 = !DIImportedEntity(tag: DW_TAG_imported_declaration, scope: !2, entity: !783, file: !619, line: 245)
!783 = !DISubprogram(name: "div", linkageName: "_ZN9__gnu_cxx3divExx", scope: !399, file: !619, line: 213, type: !757, flags: DIFlagPrototyped, spFlags: 0)
!784 = !DIImportedEntity(tag: DW_TAG_imported_declaration, scope: !2, entity: !756, file: !619, line: 246)
!785 = !DIImportedEntity(tag: DW_TAG_imported_declaration, scope: !2, entity: !760, file: !619, line: 248)
!786 = !DIImportedEntity(tag: DW_TAG_imported_declaration, scope: !2, entity: !772, file: !619, line: 249)
!787 = !DIImportedEntity(tag: DW_TAG_imported_declaration, scope: !2, entity: !764, file: !619, line: 250)
!788 = !DIImportedEntity(tag: DW_TAG_imported_declaration, scope: !2, entity: !768, file: !619, line: 251)
!789 = !DIImportedEntity(tag: DW_TAG_imported_declaration, scope: !2, entity: !776, file: !619, line: 252)
!790 = !DIImportedEntity(tag: DW_TAG_imported_declaration, scope: !2, entity: !791, file: !793, line: 98)
!791 = !DIDerivedType(tag: DW_TAG_typedef, name: "FILE", file: !792, line: 7, baseType: !178)
!792 = !DIFile(filename: "/usr/include/x86_64-linux-gnu/bits/types/FILE.h", directory: "")
!793 = !DIFile(filename: "/usr/lib/gcc/x86_64-linux-gnu/7.5.0/../../../../include/c++/7.5.0/cstdio", directory: "")
!794 = !DIImportedEntity(tag: DW_TAG_imported_declaration, scope: !2, entity: !795, file: !793, line: 99)
!795 = !DIDerivedType(tag: DW_TAG_typedef, name: "fpos_t", file: !796, line: 78, baseType: !797)
!796 = !DIFile(filename: "/usr/include/stdio.h", directory: "")
!797 = !DIDerivedType(tag: DW_TAG_typedef, name: "_G_fpos_t", file: !798, line: 30, baseType: !799)
!798 = !DIFile(filename: "/usr/include/x86_64-linux-gnu/bits/_G_config.h", directory: "")
!799 = !DICompositeType(tag: DW_TAG_structure_type, file: !798, line: 26, flags: DIFlagFwdDecl, identifier: "_ZTS9_G_fpos_t")
!800 = !DIImportedEntity(tag: DW_TAG_imported_declaration, scope: !2, entity: !801, file: !793, line: 101)
!801 = !DISubprogram(name: "clearerr", scope: !796, file: !796, line: 757, type: !802, flags: DIFlagPrototyped, spFlags: 0)
!802 = !DISubroutineType(types: !803)
!803 = !{null, !804}
!804 = !DIDerivedType(tag: DW_TAG_pointer_type, baseType: !791, size: 64)
!805 = !DIImportedEntity(tag: DW_TAG_imported_declaration, scope: !2, entity: !806, file: !793, line: 102)
!806 = !DISubprogram(name: "fclose", scope: !796, file: !796, line: 199, type: !807, flags: DIFlagPrototyped, spFlags: 0)
!807 = !DISubroutineType(types: !808)
!808 = !{!11, !804}
!809 = !DIImportedEntity(tag: DW_TAG_imported_declaration, scope: !2, entity: !810, file: !793, line: 103)
!810 = !DISubprogram(name: "feof", scope: !796, file: !796, line: 759, type: !807, flags: DIFlagPrototyped, spFlags: 0)
!811 = !DIImportedEntity(tag: DW_TAG_imported_declaration, scope: !2, entity: !812, file: !793, line: 104)
!812 = !DISubprogram(name: "ferror", scope: !796, file: !796, line: 761, type: !807, flags: DIFlagPrototyped, spFlags: 0)
!813 = !DIImportedEntity(tag: DW_TAG_imported_declaration, scope: !2, entity: !814, file: !793, line: 105)
!814 = !DISubprogram(name: "fflush", scope: !796, file: !796, line: 204, type: !807, flags: DIFlagPrototyped, spFlags: 0)
!815 = !DIImportedEntity(tag: DW_TAG_imported_declaration, scope: !2, entity: !816, file: !793, line: 106)
!816 = !DISubprogram(name: "fgetc", scope: !796, file: !796, line: 477, type: !807, flags: DIFlagPrototyped, spFlags: 0)
!817 = !DIImportedEntity(tag: DW_TAG_imported_declaration, scope: !2, entity: !818, file: !793, line: 107)
!818 = !DISubprogram(name: "fgetpos", scope: !796, file: !796, line: 731, type: !819, flags: DIFlagPrototyped, spFlags: 0)
!819 = !DISubroutineType(types: !820)
!820 = !{!11, !821, !822}
!821 = !DIDerivedType(tag: DW_TAG_restrict_type, baseType: !804)
!822 = !DIDerivedType(tag: DW_TAG_restrict_type, baseType: !823)
!823 = !DIDerivedType(tag: DW_TAG_pointer_type, baseType: !795, size: 64)
!824 = !DIImportedEntity(tag: DW_TAG_imported_declaration, scope: !2, entity: !825, file: !793, line: 108)
!825 = !DISubprogram(name: "fgets", scope: !796, file: !796, line: 564, type: !826, flags: DIFlagPrototyped, spFlags: 0)
!826 = !DISubroutineType(types: !827)
!827 = !{!90, !92, !11, !821}
!828 = !DIImportedEntity(tag: DW_TAG_imported_declaration, scope: !2, entity: !829, file: !793, line: 109)
!829 = !DISubprogram(name: "fopen", scope: !796, file: !796, line: 232, type: !830, flags: DIFlagPrototyped, spFlags: 0)
!830 = !DISubroutineType(types: !831)
!831 = !{!804, !93, !93}
!832 = !DIImportedEntity(tag: DW_TAG_imported_declaration, scope: !2, entity: !833, file: !793, line: 110)
!833 = !DISubprogram(name: "fprintf", scope: !796, file: !796, line: 312, type: !834, flags: DIFlagPrototyped, spFlags: 0)
!834 = !DISubroutineType(types: !835)
!835 = !{!11, !821, !93, null}
!836 = !DIImportedEntity(tag: DW_TAG_imported_declaration, scope: !2, entity: !837, file: !793, line: 111)
!837 = !DISubprogram(name: "fputc", scope: !796, file: !796, line: 517, type: !838, flags: DIFlagPrototyped, spFlags: 0)
!838 = !DISubroutineType(types: !839)
!839 = !{!11, !11, !804}
!840 = !DIImportedEntity(tag: DW_TAG_imported_declaration, scope: !2, entity: !841, file: !793, line: 112)
!841 = !DISubprogram(name: "fputs", scope: !796, file: !796, line: 626, type: !842, flags: DIFlagPrototyped, spFlags: 0)
!842 = !DISubroutineType(types: !843)
!843 = !{!11, !93, !821}
!844 = !DIImportedEntity(tag: DW_TAG_imported_declaration, scope: !2, entity: !845, file: !793, line: 113)
!845 = !DISubprogram(name: "fread", scope: !796, file: !796, line: 646, type: !846, flags: DIFlagPrototyped, spFlags: 0)
!846 = !DISubroutineType(types: !847)
!847 = !{!64, !76, !64, !64, !821}
!848 = !DIImportedEntity(tag: DW_TAG_imported_declaration, scope: !2, entity: !849, file: !793, line: 114)
!849 = !DISubprogram(name: "freopen", scope: !796, file: !796, line: 238, type: !850, flags: DIFlagPrototyped, spFlags: 0)
!850 = !DISubroutineType(types: !851)
!851 = !{!804, !93, !93, !821}
!852 = !DIImportedEntity(tag: DW_TAG_imported_declaration, scope: !2, entity: !853, file: !793, line: 115)
!853 = !DISubprogram(name: "fscanf", scope: !796, file: !796, line: 377, type: !834, flags: DIFlagPrototyped, spFlags: 0)
!854 = !DIImportedEntity(tag: DW_TAG_imported_declaration, scope: !2, entity: !855, file: !793, line: 116)
!855 = !DISubprogram(name: "fseek", scope: !796, file: !796, line: 684, type: !856, flags: DIFlagPrototyped, spFlags: 0)
!856 = !DISubroutineType(types: !857)
!857 = !{!11, !804, !351, !11}
!858 = !DIImportedEntity(tag: DW_TAG_imported_declaration, scope: !2, entity: !859, file: !793, line: 117)
!859 = !DISubprogram(name: "fsetpos", scope: !796, file: !796, line: 736, type: !860, flags: DIFlagPrototyped, spFlags: 0)
!860 = !DISubroutineType(types: !861)
!861 = !{!11, !804, !862}
!862 = !DIDerivedType(tag: DW_TAG_pointer_type, baseType: !863, size: 64)
!863 = !DIDerivedType(tag: DW_TAG_const_type, baseType: !795)
!864 = !DIImportedEntity(tag: DW_TAG_imported_declaration, scope: !2, entity: !865, file: !793, line: 118)
!865 = !DISubprogram(name: "ftell", scope: !796, file: !796, line: 689, type: !866, flags: DIFlagPrototyped, spFlags: 0)
!866 = !DISubroutineType(types: !867)
!867 = !{!351, !804}
!868 = !DIImportedEntity(tag: DW_TAG_imported_declaration, scope: !2, entity: !869, file: !793, line: 119)
!869 = !DISubprogram(name: "fwrite", scope: !796, file: !796, line: 652, type: !870, flags: DIFlagPrototyped, spFlags: 0)
!870 = !DISubroutineType(types: !871)
!871 = !{!64, !77, !64, !64, !821}
!872 = !DIImportedEntity(tag: DW_TAG_imported_declaration, scope: !2, entity: !873, file: !793, line: 120)
!873 = !DISubprogram(name: "getc", scope: !796, file: !796, line: 478, type: !807, flags: DIFlagPrototyped, spFlags: 0)
!874 = !DIImportedEntity(tag: DW_TAG_imported_declaration, scope: !2, entity: !875, file: !793, line: 121)
!875 = !DISubprogram(name: "getchar", scope: !796, file: !796, line: 484, type: !709, flags: DIFlagPrototyped, spFlags: 0)
!876 = !DIImportedEntity(tag: DW_TAG_imported_declaration, scope: !2, entity: !877, file: !793, line: 126)
!877 = !DISubprogram(name: "perror", scope: !796, file: !796, line: 775, type: !878, flags: DIFlagPrototyped, spFlags: 0)
!878 = !DISubroutineType(types: !879)
!879 = !{null, !94}
!880 = !DIImportedEntity(tag: DW_TAG_imported_declaration, scope: !2, entity: !881, file: !793, line: 127)
!881 = !DISubprogram(name: "printf", scope: !796, file: !796, line: 318, type: !882, flags: DIFlagPrototyped, spFlags: 0)
!882 = !DISubroutineType(types: !883)
!883 = !{!11, !93, null}
!884 = !DIImportedEntity(tag: DW_TAG_imported_declaration, scope: !2, entity: !885, file: !793, line: 128)
!885 = !DISubprogram(name: "putc", scope: !796, file: !796, line: 518, type: !838, flags: DIFlagPrototyped, spFlags: 0)
!886 = !DIImportedEntity(tag: DW_TAG_imported_declaration, scope: !2, entity: !887, file: !793, line: 129)
!887 = !DISubprogram(name: "putchar", scope: !796, file: !796, line: 524, type: !578, flags: DIFlagPrototyped, spFlags: 0)
!888 = !DIImportedEntity(tag: DW_TAG_imported_declaration, scope: !2, entity: !889, file: !793, line: 130)
!889 = !DISubprogram(name: "puts", scope: !796, file: !796, line: 632, type: !643, flags: DIFlagPrototyped, spFlags: 0)
!890 = !DIImportedEntity(tag: DW_TAG_imported_declaration, scope: !2, entity: !891, file: !793, line: 131)
!891 = !DISubprogram(name: "remove", scope: !796, file: !796, line: 144, type: !643, flags: DIFlagPrototyped, spFlags: 0)
!892 = !DIImportedEntity(tag: DW_TAG_imported_declaration, scope: !2, entity: !893, file: !793, line: 132)
!893 = !DISubprogram(name: "rename", scope: !796, file: !796, line: 146, type: !98, flags: DIFlagPrototyped, spFlags: 0)
!894 = !DIImportedEntity(tag: DW_TAG_imported_declaration, scope: !2, entity: !895, file: !793, line: 133)
!895 = !DISubprogram(name: "rewind", scope: !796, file: !796, line: 694, type: !802, flags: DIFlagPrototyped, spFlags: 0)
!896 = !DIImportedEntity(tag: DW_TAG_imported_declaration, scope: !2, entity: !897, file: !793, line: 134)
!897 = !DISubprogram(name: "scanf", scope: !796, file: !796, line: 383, type: !882, flags: DIFlagPrototyped, spFlags: 0)
!898 = !DIImportedEntity(tag: DW_TAG_imported_declaration, scope: !2, entity: !899, file: !793, line: 135)
!899 = !DISubprogram(name: "setbuf", scope: !796, file: !796, line: 290, type: !900, flags: DIFlagPrototyped, spFlags: 0)
!900 = !DISubroutineType(types: !901)
!901 = !{null, !821, !92}
!902 = !DIImportedEntity(tag: DW_TAG_imported_declaration, scope: !2, entity: !903, file: !793, line: 136)
!903 = !DISubprogram(name: "setvbuf", scope: !796, file: !796, line: 294, type: !904, flags: DIFlagPrototyped, spFlags: 0)
!904 = !DISubroutineType(types: !905)
!905 = !{!11, !821, !92, !11, !64}
!906 = !DIImportedEntity(tag: DW_TAG_imported_declaration, scope: !2, entity: !907, file: !793, line: 137)
!907 = !DISubprogram(name: "sprintf", scope: !796, file: !796, line: 320, type: !908, flags: DIFlagPrototyped, spFlags: 0)
!908 = !DISubroutineType(types: !909)
!909 = !{!11, !92, !93, null}
!910 = !DIImportedEntity(tag: DW_TAG_imported_declaration, scope: !2, entity: !911, file: !793, line: 138)
!911 = !DISubprogram(name: "sscanf", scope: !796, file: !796, line: 385, type: !912, flags: DIFlagPrototyped, spFlags: 0)
!912 = !DISubroutineType(types: !913)
!913 = !{!11, !93, !93, null}
!914 = !DIImportedEntity(tag: DW_TAG_imported_declaration, scope: !2, entity: !915, file: !793, line: 139)
!915 = !DISubprogram(name: "tmpfile", scope: !796, file: !796, line: 159, type: !916, flags: DIFlagPrototyped, spFlags: 0)
!916 = !DISubroutineType(types: !917)
!917 = !{!804}
!918 = !DIImportedEntity(tag: DW_TAG_imported_declaration, scope: !2, entity: !919, file: !793, line: 141)
!919 = !DISubprogram(name: "tmpnam", scope: !796, file: !796, line: 173, type: !920, flags: DIFlagPrototyped, spFlags: 0)
!920 = !DISubroutineType(types: !921)
!921 = !{!90, !90}
!922 = !DIImportedEntity(tag: DW_TAG_imported_declaration, scope: !2, entity: !923, file: !793, line: 143)
!923 = !DISubprogram(name: "ungetc", scope: !796, file: !796, line: 639, type: !838, flags: DIFlagPrototyped, spFlags: 0)
!924 = !DIImportedEntity(tag: DW_TAG_imported_declaration, scope: !2, entity: !925, file: !793, line: 144)
!925 = !DISubprogram(name: "vfprintf", scope: !796, file: !796, line: 327, type: !926, flags: DIFlagPrototyped, spFlags: 0)
!926 = !DISubroutineType(types: !927)
!927 = !{!11, !821, !93, !258}
!928 = !DIImportedEntity(tag: DW_TAG_imported_declaration, scope: !2, entity: !929, file: !793, line: 145)
!929 = !DISubprogram(name: "vprintf", scope: !796, file: !796, line: 333, type: !930, flags: DIFlagPrototyped, spFlags: 0)
!930 = !DISubroutineType(types: !931)
!931 = !{!11, !93, !258}
!932 = !DIImportedEntity(tag: DW_TAG_imported_declaration, scope: !2, entity: !933, file: !793, line: 146)
!933 = !DISubprogram(name: "vsprintf", scope: !796, file: !796, line: 335, type: !934, flags: DIFlagPrototyped, spFlags: 0)
!934 = !DISubroutineType(types: !935)
!935 = !{!11, !92, !93, !258}
!936 = !DIImportedEntity(tag: DW_TAG_imported_declaration, scope: !399, entity: !937, file: !793, line: 175)
!937 = !DISubprogram(name: "snprintf", scope: !796, file: !796, line: 340, type: !938, flags: DIFlagPrototyped, spFlags: 0)
!938 = !DISubroutineType(types: !939)
!939 = !{!11, !92, !64, !93, null}
!940 = !DIImportedEntity(tag: DW_TAG_imported_declaration, scope: !399, entity: !941, file: !793, line: 176)
!941 = !DISubprogram(name: "vfscanf", scope: !796, file: !796, line: 420, type: !926, flags: DIFlagPrototyped, spFlags: 0)
!942 = !DIImportedEntity(tag: DW_TAG_imported_declaration, scope: !399, entity: !943, file: !793, line: 177)
!943 = !DISubprogram(name: "vscanf", scope: !796, file: !796, line: 428, type: !930, flags: DIFlagPrototyped, spFlags: 0)
!944 = !DIImportedEntity(tag: DW_TAG_imported_declaration, scope: !399, entity: !945, file: !793, line: 178)
!945 = !DISubprogram(name: "vsnprintf", scope: !796, file: !796, line: 344, type: !946, flags: DIFlagPrototyped, spFlags: 0)
!946 = !DISubroutineType(types: !947)
!947 = !{!11, !92, !64, !93, !258}
!948 = !DIImportedEntity(tag: DW_TAG_imported_declaration, scope: !399, entity: !949, file: !793, line: 179)
!949 = !DISubprogram(name: "vsscanf", scope: !796, file: !796, line: 432, type: !950, flags: DIFlagPrototyped, spFlags: 0)
!950 = !DISubroutineType(types: !951)
!951 = !{!11, !93, !93, !258}
!952 = !DIImportedEntity(tag: DW_TAG_imported_declaration, scope: !2, entity: !937, file: !793, line: 185)
!953 = !DIImportedEntity(tag: DW_TAG_imported_declaration, scope: !2, entity: !941, file: !793, line: 186)
!954 = !DIImportedEntity(tag: DW_TAG_imported_declaration, scope: !2, entity: !943, file: !793, line: 187)
!955 = !DIImportedEntity(tag: DW_TAG_imported_declaration, scope: !2, entity: !945, file: !793, line: 188)
!956 = !DIImportedEntity(tag: DW_TAG_imported_declaration, scope: !2, entity: !949, file: !793, line: 189)
!957 = !DIImportedEntity(tag: DW_TAG_imported_declaration, scope: !2, entity: !958, file: !962, line: 82)
!958 = !DIDerivedType(tag: DW_TAG_typedef, name: "wctrans_t", file: !959, line: 48, baseType: !960)
!959 = !DIFile(filename: "/usr/include/wctype.h", directory: "")
!960 = !DIDerivedType(tag: DW_TAG_pointer_type, baseType: !961, size: 64)
!961 = !DIDerivedType(tag: DW_TAG_const_type, baseType: !500)
!962 = !DIFile(filename: "/usr/lib/gcc/x86_64-linux-gnu/7.5.0/../../../../include/c++/7.5.0/cwctype", directory: "")
!963 = !DIImportedEntity(tag: DW_TAG_imported_declaration, scope: !2, entity: !964, file: !962, line: 83)
!964 = !DIDerivedType(tag: DW_TAG_typedef, name: "wctype_t", file: !965, line: 38, baseType: !66)
!965 = !DIFile(filename: "/usr/include/x86_64-linux-gnu/bits/wctype-wchar.h", directory: "")
!966 = !DIImportedEntity(tag: DW_TAG_imported_declaration, scope: !2, entity: !164, file: !962, line: 84)
!967 = !DIImportedEntity(tag: DW_TAG_imported_declaration, scope: !2, entity: !968, file: !962, line: 86)
!968 = !DISubprogram(name: "iswalnum", scope: !965, file: !965, line: 95, type: !362, flags: DIFlagPrototyped, spFlags: 0)
!969 = !DIImportedEntity(tag: DW_TAG_imported_declaration, scope: !2, entity: !970, file: !962, line: 87)
!970 = !DISubprogram(name: "iswalpha", scope: !965, file: !965, line: 101, type: !362, flags: DIFlagPrototyped, spFlags: 0)
!971 = !DIImportedEntity(tag: DW_TAG_imported_declaration, scope: !2, entity: !972, file: !962, line: 89)
!972 = !DISubprogram(name: "iswblank", scope: !965, file: !965, line: 146, type: !362, flags: DIFlagPrototyped, spFlags: 0)
!973 = !DIImportedEntity(tag: DW_TAG_imported_declaration, scope: !2, entity: !974, file: !962, line: 91)
!974 = !DISubprogram(name: "iswcntrl", scope: !965, file: !965, line: 104, type: !362, flags: DIFlagPrototyped, spFlags: 0)
!975 = !DIImportedEntity(tag: DW_TAG_imported_declaration, scope: !2, entity: !976, file: !962, line: 92)
!976 = !DISubprogram(name: "iswctype", scope: !965, file: !965, line: 159, type: !977, flags: DIFlagPrototyped, spFlags: 0)
!977 = !DISubroutineType(types: !978)
!978 = !{!11, !164, !964}
!979 = !DIImportedEntity(tag: DW_TAG_imported_declaration, scope: !2, entity: !980, file: !962, line: 93)
!980 = !DISubprogram(name: "iswdigit", scope: !965, file: !965, line: 108, type: !362, flags: DIFlagPrototyped, spFlags: 0)
!981 = !DIImportedEntity(tag: DW_TAG_imported_declaration, scope: !2, entity: !982, file: !962, line: 94)
!982 = !DISubprogram(name: "iswgraph", scope: !965, file: !965, line: 112, type: !362, flags: DIFlagPrototyped, spFlags: 0)
!983 = !DIImportedEntity(tag: DW_TAG_imported_declaration, scope: !2, entity: !984, file: !962, line: 95)
!984 = !DISubprogram(name: "iswlower", scope: !965, file: !965, line: 117, type: !362, flags: DIFlagPrototyped, spFlags: 0)
!985 = !DIImportedEntity(tag: DW_TAG_imported_declaration, scope: !2, entity: !986, file: !962, line: 96)
!986 = !DISubprogram(name: "iswprint", scope: !965, file: !965, line: 120, type: !362, flags: DIFlagPrototyped, spFlags: 0)
!987 = !DIImportedEntity(tag: DW_TAG_imported_declaration, scope: !2, entity: !988, file: !962, line: 97)
!988 = !DISubprogram(name: "iswpunct", scope: !965, file: !965, line: 125, type: !362, flags: DIFlagPrototyped, spFlags: 0)
!989 = !DIImportedEntity(tag: DW_TAG_imported_declaration, scope: !2, entity: !990, file: !962, line: 98)
!990 = !DISubprogram(name: "iswspace", scope: !965, file: !965, line: 130, type: !362, flags: DIFlagPrototyped, spFlags: 0)
!991 = !DIImportedEntity(tag: DW_TAG_imported_declaration, scope: !2, entity: !992, file: !962, line: 99)
!992 = !DISubprogram(name: "iswupper", scope: !965, file: !965, line: 135, type: !362, flags: DIFlagPrototyped, spFlags: 0)
!993 = !DIImportedEntity(tag: DW_TAG_imported_declaration, scope: !2, entity: !994, file: !962, line: 100)
!994 = !DISubprogram(name: "iswxdigit", scope: !965, file: !965, line: 140, type: !362, flags: DIFlagPrototyped, spFlags: 0)
!995 = !DIImportedEntity(tag: DW_TAG_imported_declaration, scope: !2, entity: !996, file: !962, line: 101)
!996 = !DISubprogram(name: "towctrans", scope: !959, file: !959, line: 55, type: !997, flags: DIFlagPrototyped, spFlags: 0)
!997 = !DISubroutineType(types: !998)
!998 = !{!164, !164, !958}
!999 = !DIImportedEntity(tag: DW_TAG_imported_declaration, scope: !2, entity: !1000, file: !962, line: 102)
!1000 = !DISubprogram(name: "towlower", scope: !965, file: !965, line: 166, type: !1001, flags: DIFlagPrototyped, spFlags: 0)
!1001 = !DISubroutineType(types: !1002)
!1002 = !{!164, !164}
!1003 = !DIImportedEntity(tag: DW_TAG_imported_declaration, scope: !2, entity: !1004, file: !962, line: 103)
!1004 = !DISubprogram(name: "towupper", scope: !965, file: !965, line: 169, type: !1001, flags: DIFlagPrototyped, spFlags: 0)
!1005 = !DIImportedEntity(tag: DW_TAG_imported_declaration, scope: !2, entity: !1006, file: !962, line: 104)
!1006 = !DISubprogram(name: "wctrans", scope: !959, file: !959, line: 52, type: !1007, flags: DIFlagPrototyped, spFlags: 0)
!1007 = !DISubroutineType(types: !1008)
!1008 = !{!958, !94}
!1009 = !DIImportedEntity(tag: DW_TAG_imported_declaration, scope: !2, entity: !1010, file: !962, line: 105)
!1010 = !DISubprogram(name: "wctype", scope: !965, file: !965, line: 155, type: !1011, flags: DIFlagPrototyped, spFlags: 0)
!1011 = !DISubroutineType(types: !1012)
!1012 = !{!964, !94}
!1013 = !DIImportedEntity(tag: DW_TAG_imported_module, scope: !21, entity: !2, file: !22, line: 7)
!1014 = !DIGlobalVariableExpression(var: !1015, expr: !DIExpression())
!1015 = distinct !DIGlobalVariable(name: "__dso_handle", scope: !1016, file: !1019, line: 1, type: !61, isLocal: false, isDefinition: true)
!1016 = distinct !DICompileUnit(language: DW_LANG_C89, file: !1017, producer: "clang version 9.0.0-2~ubuntu18.04.2 (tags/RELEASE_900/final)", isOptimized: false, runtimeVersion: 0, emissionKind: FullDebug, enums: !23, globals: !1018, nameTableKind: None)
!1017 = !DIFile(filename: "/tmp/klee_src/runtime/Intrinsic/dso_handle.c", directory: "/tmp/klee_build90stp_z3/runtime/Intrinsic")
!1018 = !{!1014}
!1019 = !DIFile(filename: "klee_src/runtime/Intrinsic/dso_handle.c", directory: "/tmp")
!1020 = distinct !DICompileUnit(language: DW_LANG_C99, file: !1021, producer: "clang version 9.0.0-2~ubuntu18.04.2 (tags/RELEASE_900/final)", isOptimized: false, runtimeVersion: 0, emissionKind: FullDebug, enums: !23, nameTableKind: None)
!1021 = !DIFile(filename: "/tmp/klee_src/runtime/Freestanding/memcpy.c", directory: "/tmp/klee_build90stp_z3/runtime/Freestanding")
!1022 = !{i32 2, !"Dwarf Version", i32 4}
!1023 = !{i32 2, !"Debug Info Version", i32 3}
!1024 = !{i32 1, !"wchar_size", i32 4}
!1025 = !{!"clang version 9.0.1 (https://github.com/llvm/llvm-project.git c1a0a213378a458fbea1a5c77b315c7dce08fd05)"}
!1026 = !{!"clang version 9.0.0-2~ubuntu18.04.2 (tags/RELEASE_900/final)"}
!1027 = distinct !DISubprogram(name: "__cxx_global_var_init", scope: !3, file: !3, line: 74, type: !628, scopeLine: 74, spFlags: DISPFlagLocalToUnit | DISPFlagDefinition, unit: !21, retainedNodes: !23)
!1028 = !DILocation(line: 74, column: 25, scope: !1027)
!1029 = distinct !DISubprogram(name: "transpose", linkageName: "_Z9transposePA3_jS0_", scope: !22, file: !22, line: 21, type: !1030, scopeLine: 22, flags: DIFlagPrototyped, spFlags: DISPFlagDefinition, unit: !21, retainedNodes: !23)
!1030 = !DISubroutineType(types: !1031)
!1031 = !{null, !1032, !1032}
!1032 = !DIDerivedType(tag: DW_TAG_pointer_type, baseType: !1033, size: 64)
!1033 = !DICompositeType(tag: DW_TAG_array_type, baseType: !28, size: 96, elements: !1034)
!1034 = !{!35}
!1035 = !DILocalVariable(name: "wgt_mem", arg: 1, scope: !1029, file: !22, line: 21, type: !1032)
!1036 = !DILocation(line: 21, column: 29, scope: !1029)
!1037 = !DILocalVariable(name: "wgt_mem_prime", arg: 2, scope: !1029, file: !22, line: 21, type: !1032)
!1038 = !DILocation(line: 21, column: 58, scope: !1029)
!1039 = !DILocalVariable(name: "i", scope: !1029, file: !22, line: 23, type: !11)
!1040 = !DILocation(line: 23, column: 9, scope: !1029)
!1041 = !DILocalVariable(name: "j", scope: !1029, file: !22, line: 23, type: !11)
!1042 = !DILocation(line: 23, column: 12, scope: !1029)
!1043 = !DILocation(line: 24, column: 12, scope: !1044)
!1044 = distinct !DILexicalBlock(scope: !1029, file: !22, line: 24, column: 5)
!1045 = !DILocation(line: 24, column: 10, scope: !1044)
!1046 = !DILocation(line: 24, column: 17, scope: !1047)
!1047 = distinct !DILexicalBlock(scope: !1044, file: !22, line: 24, column: 5)
!1048 = !DILocation(line: 24, column: 19, scope: !1047)
!1049 = !DILocation(line: 24, column: 5, scope: !1044)
!1050 = !DILocation(line: 25, column: 16, scope: !1051)
!1051 = distinct !DILexicalBlock(scope: !1047, file: !22, line: 25, column: 9)
!1052 = !DILocation(line: 25, column: 14, scope: !1051)
!1053 = !DILocation(line: 25, column: 21, scope: !1054)
!1054 = distinct !DILexicalBlock(scope: !1051, file: !22, line: 25, column: 9)
!1055 = !DILocation(line: 25, column: 23, scope: !1054)
!1056 = !DILocation(line: 25, column: 9, scope: !1051)
!1057 = !DILocation(line: 26, column: 35, scope: !1054)
!1058 = !DILocation(line: 26, column: 43, scope: !1054)
!1059 = !DILocation(line: 26, column: 46, scope: !1054)
!1060 = !DILocation(line: 26, column: 13, scope: !1054)
!1061 = !DILocation(line: 26, column: 27, scope: !1054)
!1062 = !DILocation(line: 26, column: 30, scope: !1054)
!1063 = !DILocation(line: 26, column: 33, scope: !1054)
!1064 = !DILocation(line: 25, column: 31, scope: !1054)
!1065 = !DILocation(line: 25, column: 9, scope: !1054)
!1066 = distinct !{!1066, !1056, !1067}
!1067 = !DILocation(line: 26, column: 47, scope: !1051)
!1068 = !DILocation(line: 24, column: 27, scope: !1047)
!1069 = !DILocation(line: 24, column: 5, scope: !1047)
!1070 = distinct !{!1070, !1049, !1071}
!1071 = !DILocation(line: 26, column: 47, scope: !1044)
!1072 = !DILocation(line: 27, column: 1, scope: !1029)
!1073 = distinct !DISubprogram(name: "matrixMultiply", linkageName: "_Z14matrixMultiplyPKjS0_", scope: !22, file: !22, line: 29, type: !1074, scopeLine: 30, flags: DIFlagPrototyped, spFlags: DISPFlagDefinition, unit: !21, retainedNodes: !23)
!1074 = !DISubroutineType(types: !1075)
!1075 = !{!38, !1076, !1076}
!1076 = !DIDerivedType(tag: DW_TAG_pointer_type, baseType: !1077, size: 64)
!1077 = !DIDerivedType(tag: DW_TAG_const_type, baseType: !28)
!1078 = !DILocalVariable(name: "mat1", arg: 1, scope: !1073, file: !22, line: 29, type: !1076)
!1079 = !DILocation(line: 29, column: 49, scope: !1073)
!1080 = !DILocalVariable(name: "mat2", arg: 2, scope: !1073, file: !22, line: 29, type: !1076)
!1081 = !DILocation(line: 29, column: 76, scope: !1073)
!1082 = !DILocalVariable(name: "res", scope: !1073, file: !22, line: 32, type: !28)
!1083 = !DILocation(line: 32, column: 18, scope: !1073)
!1084 = !DILocalVariable(name: "i", scope: !1085, file: !22, line: 33, type: !11)
!1085 = distinct !DILexicalBlock(scope: !1073, file: !22, line: 33, column: 5)
!1086 = !DILocation(line: 33, column: 13, scope: !1085)
!1087 = !DILocation(line: 33, column: 9, scope: !1085)
!1088 = !DILocation(line: 33, column: 20, scope: !1089)
!1089 = distinct !DILexicalBlock(scope: !1085, file: !22, line: 33, column: 5)
!1090 = !DILocation(line: 33, column: 22, scope: !1089)
!1091 = !DILocation(line: 33, column: 5, scope: !1085)
!1092 = !DILocation(line: 35, column: 16, scope: !1093)
!1093 = distinct !DILexicalBlock(scope: !1089, file: !22, line: 34, column: 5)
!1094 = !DILocation(line: 35, column: 21, scope: !1093)
!1095 = !DILocation(line: 35, column: 26, scope: !1093)
!1096 = !DILocation(line: 35, column: 31, scope: !1093)
!1097 = !DILocation(line: 35, column: 24, scope: !1093)
!1098 = !DILocation(line: 35, column: 13, scope: !1093)
!1099 = !DILocation(line: 33, column: 28, scope: !1089)
!1100 = !DILocation(line: 33, column: 5, scope: !1089)
!1101 = distinct !{!1101, !1091, !1102}
!1102 = !DILocation(line: 36, column: 5, scope: !1085)
!1103 = !DILocation(line: 37, column: 25, scope: !1073)
!1104 = !DILocation(line: 37, column: 12, scope: !1073)
!1105 = !DILocation(line: 37, column: 5, scope: !1073)
!1106 = !DILocation(line: 37, column: 23, scope: !1073)
!1107 = !DILocation(line: 38, column: 14, scope: !1073)
!1108 = !DILocation(line: 39, column: 5, scope: !1073)
!1109 = distinct !DISubprogram(name: "base_gemm", linkageName: "_Z9base_gemm5INSTR", scope: !22, file: !22, line: 42, type: !1110, scopeLine: 42, flags: DIFlagPrototyped, spFlags: DISPFlagDefinition, unit: !21, retainedNodes: !23)
!1110 = !DISubroutineType(types: !1111)
!1111 = !{!38, !1112}
!1112 = distinct !DICompositeType(tag: DW_TAG_structure_type, name: "INSTR", file: !1113, line: 23, size: 320, flags: DIFlagTypePassByValue, elements: !1114, identifier: "_ZTS5INSTR")
!1113 = !DIFile(filename: "./gemm_var.h", directory: "/home/klee/klee_src/examples/isra")
!1114 = !{!1115, !1116, !1117, !1118}
!1115 = !DIDerivedType(tag: DW_TAG_member, name: "ID", scope: !1112, file: !1113, line: 24, baseType: !28, size: 32)
!1116 = !DIDerivedType(tag: DW_TAG_member, name: "OPCODE", scope: !1112, file: !1113, line: 25, baseType: !28, size: 32, offset: 32)
!1117 = !DIDerivedType(tag: DW_TAG_member, name: "OPTYPE", scope: !1112, file: !1113, line: 26, baseType: !28, size: 32, offset: 64)
!1118 = !DIDerivedType(tag: DW_TAG_member, name: "OPERANDS", scope: !1112, file: !1113, line: 27, baseType: !1119, size: 192, offset: 128)
!1119 = distinct !DICompositeType(tag: DW_TAG_structure_type, name: "GEMM_STRUCT_REF", file: !1113, line: 5, size: 192, flags: DIFlagTypePassByValue, elements: !1120, identifier: "_ZTS15GEMM_STRUCT_REF")
!1120 = !{!1121, !1122, !1123}
!1121 = !DIDerivedType(tag: DW_TAG_member, name: "inp_mem", scope: !1119, file: !1113, line: 6, baseType: !38, size: 64)
!1122 = !DIDerivedType(tag: DW_TAG_member, name: "wgt_mem", scope: !1119, file: !1113, line: 7, baseType: !38, size: 64, offset: 64)
!1123 = !DIDerivedType(tag: DW_TAG_member, name: "acc_mem", scope: !1119, file: !1113, line: 8, baseType: !38, size: 64, offset: 128)
!1124 = !DILocalVariable(name: "myinsn", arg: 1, scope: !1109, file: !22, line: 42, type: !1112)
!1125 = !DILocation(line: 42, column: 32, scope: !1109)
!1126 = !DILocalVariable(name: "row", scope: !1109, file: !22, line: 43, type: !28)
!1127 = !DILocation(line: 43, column: 18, scope: !1109)
!1128 = !DILocalVariable(name: "col", scope: !1109, file: !22, line: 43, type: !28)
!1129 = !DILocation(line: 43, column: 23, scope: !1109)
!1130 = !DILocalVariable(name: "i", scope: !1109, file: !22, line: 43, type: !28)
!1131 = !DILocation(line: 43, column: 28, scope: !1109)
!1132 = !DILocalVariable(name: "sum", scope: !1109, file: !22, line: 44, type: !28)
!1133 = !DILocation(line: 44, column: 18, scope: !1109)
!1134 = !DILocation(line: 45, column: 15, scope: !1135)
!1135 = distinct !DILexicalBlock(scope: !1109, file: !22, line: 45, column: 8)
!1136 = !DILocation(line: 45, column: 21, scope: !1135)
!1137 = !DILocation(line: 45, column: 8, scope: !1109)
!1138 = !DILocation(line: 46, column: 14, scope: !1139)
!1139 = distinct !DILexicalBlock(scope: !1140, file: !22, line: 46, column: 5)
!1140 = distinct !DILexicalBlock(scope: !1135, file: !22, line: 45, column: 26)
!1141 = !DILocation(line: 46, column: 10, scope: !1139)
!1142 = !DILocation(line: 46, column: 19, scope: !1143)
!1143 = distinct !DILexicalBlock(scope: !1139, file: !22, line: 46, column: 5)
!1144 = !DILocation(line: 46, column: 23, scope: !1143)
!1145 = !DILocation(line: 46, column: 5, scope: !1139)
!1146 = !DILocation(line: 47, column: 18, scope: !1147)
!1147 = distinct !DILexicalBlock(scope: !1148, file: !22, line: 47, column: 9)
!1148 = distinct !DILexicalBlock(scope: !1143, file: !22, line: 46, column: 37)
!1149 = !DILocation(line: 47, column: 14, scope: !1147)
!1150 = !DILocation(line: 47, column: 23, scope: !1151)
!1151 = distinct !DILexicalBlock(scope: !1147, file: !22, line: 47, column: 9)
!1152 = !DILocation(line: 47, column: 27, scope: !1151)
!1153 = !DILocation(line: 47, column: 9, scope: !1147)
!1154 = !DILocation(line: 48, column: 17, scope: !1155)
!1155 = distinct !DILexicalBlock(scope: !1151, file: !22, line: 47, column: 41)
!1156 = !DILocation(line: 49, column: 20, scope: !1157)
!1157 = distinct !DILexicalBlock(scope: !1155, file: !22, line: 49, column: 13)
!1158 = !DILocation(line: 49, column: 18, scope: !1157)
!1159 = !DILocation(line: 49, column: 25, scope: !1160)
!1160 = distinct !DILexicalBlock(scope: !1157, file: !22, line: 49, column: 13)
!1161 = !DILocation(line: 49, column: 27, scope: !1160)
!1162 = !DILocation(line: 49, column: 13, scope: !1157)
!1163 = !DILocation(line: 50, column: 39, scope: !1164)
!1164 = distinct !DILexicalBlock(scope: !1160, file: !22, line: 49, column: 39)
!1165 = !DILocation(line: 50, column: 37, scope: !1164)
!1166 = !DILocation(line: 50, column: 27, scope: !1164)
!1167 = !DILocation(line: 50, column: 46, scope: !1164)
!1168 = !DILocation(line: 50, column: 44, scope: !1164)
!1169 = !DILocation(line: 50, column: 25, scope: !1164)
!1170 = !DILocation(line: 50, column: 67, scope: !1164)
!1171 = !DILocation(line: 50, column: 65, scope: !1164)
!1172 = !DILocation(line: 50, column: 55, scope: !1164)
!1173 = !DILocation(line: 50, column: 72, scope: !1164)
!1174 = !DILocation(line: 50, column: 70, scope: !1164)
!1175 = !DILocation(line: 50, column: 53, scope: !1164)
!1176 = !DILocation(line: 50, column: 50, scope: !1164)
!1177 = !DILocation(line: 50, column: 21, scope: !1164)
!1178 = !DILocation(line: 49, column: 35, scope: !1160)
!1179 = !DILocation(line: 49, column: 13, scope: !1160)
!1180 = distinct !{!1180, !1162, !1181}
!1181 = !DILocation(line: 51, column: 13, scope: !1157)
!1182 = !DILocation(line: 52, column: 41, scope: !1155)
!1183 = !DILocation(line: 52, column: 27, scope: !1155)
!1184 = !DILocation(line: 52, column: 25, scope: !1155)
!1185 = !DILocation(line: 52, column: 15, scope: !1155)
!1186 = !DILocation(line: 52, column: 34, scope: !1155)
!1187 = !DILocation(line: 52, column: 32, scope: !1155)
!1188 = !DILocation(line: 52, column: 39, scope: !1155)
!1189 = !DILocation(line: 47, column: 37, scope: !1151)
!1190 = !DILocation(line: 47, column: 9, scope: !1151)
!1191 = distinct !{!1191, !1153, !1192}
!1192 = !DILocation(line: 53, column: 9, scope: !1147)
!1193 = !DILocation(line: 46, column: 33, scope: !1143)
!1194 = !DILocation(line: 46, column: 5, scope: !1143)
!1195 = distinct !{!1195, !1145, !1196}
!1196 = !DILocation(line: 54, column: 5, scope: !1139)
!1197 = !DILocalVariable(name: "i", scope: !1198, file: !22, line: 55, type: !11)
!1198 = distinct !DILexicalBlock(scope: !1140, file: !22, line: 55, column: 5)
!1199 = !DILocation(line: 55, column: 13, scope: !1198)
!1200 = !DILocation(line: 55, column: 9, scope: !1198)
!1201 = !DILocation(line: 55, column: 18, scope: !1202)
!1202 = distinct !DILexicalBlock(scope: !1198, file: !22, line: 55, column: 5)
!1203 = !DILocation(line: 55, column: 19, scope: !1202)
!1204 = !DILocation(line: 55, column: 5, scope: !1198)
!1205 = !DILocalVariable(name: "j", scope: !1206, file: !22, line: 56, type: !11)
!1206 = distinct !DILexicalBlock(scope: !1207, file: !22, line: 56, column: 9)
!1207 = distinct !DILexicalBlock(scope: !1202, file: !22, line: 55, column: 28)
!1208 = !DILocation(line: 56, column: 17, scope: !1206)
!1209 = !DILocation(line: 56, column: 13, scope: !1206)
!1210 = !DILocation(line: 56, column: 21, scope: !1211)
!1211 = distinct !DILexicalBlock(scope: !1206, file: !22, line: 56, column: 9)
!1212 = !DILocation(line: 56, column: 22, scope: !1211)
!1213 = !DILocation(line: 0, scope: !1202)
!1214 = !DILocation(line: 56, column: 9, scope: !1206)
!1215 = !DILocation(line: 57, column: 42, scope: !1216)
!1216 = distinct !DILexicalBlock(scope: !1211, file: !22, line: 56, column: 31)
!1217 = !DILocation(line: 57, column: 53, scope: !1216)
!1218 = !DILocation(line: 57, column: 31, scope: !1216)
!1219 = !DILocation(line: 57, column: 32, scope: !1216)
!1220 = !DILocation(line: 57, column: 37, scope: !1216)
!1221 = !DILocation(line: 57, column: 36, scope: !1216)
!1222 = !DILocation(line: 57, column: 13, scope: !1216)
!1223 = !DILocation(line: 57, column: 40, scope: !1216)
!1224 = !DILocation(line: 56, column: 28, scope: !1211)
!1225 = !DILocation(line: 56, column: 9, scope: !1211)
!1226 = distinct !{!1226, !1214, !1227}
!1227 = !DILocation(line: 58, column: 9, scope: !1206)
!1228 = !DILocation(line: 55, column: 25, scope: !1202)
!1229 = !DILocation(line: 55, column: 5, scope: !1202)
!1230 = distinct !{!1230, !1204, !1231}
!1231 = !DILocation(line: 59, column: 5, scope: !1198)
!1232 = !DILocation(line: 61, column: 5, scope: !1109)
!1233 = distinct !DISubprogram(name: "mulMat", linkageName: "_Z6mulMatPA3_jS0_S0_", scope: !22, file: !22, line: 64, type: !1234, scopeLine: 64, flags: DIFlagPrototyped, spFlags: DISPFlagDefinition, unit: !21, retainedNodes: !23)
!1234 = !DISubroutineType(types: !1235)
!1235 = !{!38, !1032, !1032, !1032}
!1236 = !DILocalVariable(name: "mat1", arg: 1, scope: !1233, file: !22, line: 64, type: !1032)
!1237 = !DILocation(line: 64, column: 35, scope: !1233)
!1238 = !DILocalVariable(name: "mat2", arg: 2, scope: !1233, file: !22, line: 64, type: !1032)
!1239 = !DILocation(line: 64, column: 61, scope: !1233)
!1240 = !DILocalVariable(name: "res", arg: 3, scope: !1233, file: !22, line: 64, type: !1032)
!1241 = !DILocation(line: 64, column: 87, scope: !1233)
!1242 = !DILocalVariable(name: "i", scope: !1243, file: !22, line: 65, type: !11)
!1243 = distinct !DILexicalBlock(scope: !1233, file: !22, line: 65, column: 5)
!1244 = !DILocation(line: 65, column: 14, scope: !1243)
!1245 = !DILocation(line: 65, column: 10, scope: !1243)
!1246 = !DILocation(line: 65, column: 21, scope: !1247)
!1247 = distinct !DILexicalBlock(scope: !1243, file: !22, line: 65, column: 5)
!1248 = !DILocation(line: 65, column: 23, scope: !1247)
!1249 = !DILocation(line: 65, column: 5, scope: !1243)
!1250 = !DILocalVariable(name: "j", scope: !1251, file: !22, line: 66, type: !11)
!1251 = distinct !DILexicalBlock(scope: !1252, file: !22, line: 66, column: 9)
!1252 = distinct !DILexicalBlock(scope: !1247, file: !22, line: 65, column: 35)
!1253 = !DILocation(line: 66, column: 18, scope: !1251)
!1254 = !DILocation(line: 66, column: 14, scope: !1251)
!1255 = !DILocation(line: 66, column: 25, scope: !1256)
!1256 = distinct !DILexicalBlock(scope: !1251, file: !22, line: 66, column: 9)
!1257 = !DILocation(line: 66, column: 27, scope: !1256)
!1258 = !DILocation(line: 66, column: 9, scope: !1251)
!1259 = !DILocalVariable(name: "k", scope: !1260, file: !22, line: 67, type: !11)
!1260 = distinct !DILexicalBlock(scope: !1261, file: !22, line: 67, column: 13)
!1261 = distinct !DILexicalBlock(scope: !1256, file: !22, line: 66, column: 39)
!1262 = !DILocation(line: 67, column: 22, scope: !1260)
!1263 = !DILocation(line: 67, column: 18, scope: !1260)
!1264 = !DILocation(line: 67, column: 29, scope: !1265)
!1265 = distinct !DILexicalBlock(scope: !1260, file: !22, line: 67, column: 13)
!1266 = !DILocation(line: 67, column: 31, scope: !1265)
!1267 = !DILocation(line: 67, column: 13, scope: !1260)
!1268 = !DILocation(line: 68, column: 42, scope: !1269)
!1269 = distinct !DILexicalBlock(scope: !1265, file: !22, line: 67, column: 43)
!1270 = !DILocation(line: 68, column: 34, scope: !1269)
!1271 = !DILocation(line: 68, column: 45, scope: !1269)
!1272 = !DILocation(line: 68, column: 58, scope: !1269)
!1273 = !DILocation(line: 68, column: 50, scope: !1269)
!1274 = !DILocation(line: 68, column: 61, scope: !1269)
!1275 = !DILocation(line: 68, column: 48, scope: !1269)
!1276 = !DILocation(line: 68, column: 25, scope: !1269)
!1277 = !DILocation(line: 68, column: 17, scope: !1269)
!1278 = !DILocation(line: 68, column: 28, scope: !1269)
!1279 = !DILocation(line: 68, column: 31, scope: !1269)
!1280 = !DILocation(line: 67, column: 39, scope: !1265)
!1281 = !DILocation(line: 67, column: 13, scope: !1265)
!1282 = distinct !{!1282, !1267, !1283}
!1283 = !DILocation(line: 69, column: 13, scope: !1260)
!1284 = !DILocation(line: 66, column: 35, scope: !1256)
!1285 = !DILocation(line: 66, column: 9, scope: !1256)
!1286 = distinct !{!1286, !1258, !1287}
!1287 = !DILocation(line: 70, column: 9, scope: !1251)
!1288 = !DILocation(line: 65, column: 31, scope: !1247)
!1289 = !DILocation(line: 65, column: 5, scope: !1247)
!1290 = distinct !{!1290, !1249, !1291}
!1291 = !DILocation(line: 71, column: 5, scope: !1243)
!1292 = !DILocalVariable(name: "i", scope: !1293, file: !22, line: 72, type: !11)
!1293 = distinct !DILexicalBlock(scope: !1233, file: !22, line: 72, column: 5)
!1294 = !DILocation(line: 72, column: 13, scope: !1293)
!1295 = !DILocation(line: 72, column: 9, scope: !1293)
!1296 = !DILocation(line: 72, column: 18, scope: !1297)
!1297 = distinct !DILexicalBlock(scope: !1293, file: !22, line: 72, column: 5)
!1298 = !DILocation(line: 72, column: 19, scope: !1297)
!1299 = !DILocation(line: 72, column: 5, scope: !1293)
!1300 = !DILocalVariable(name: "j", scope: !1301, file: !22, line: 73, type: !11)
!1301 = distinct !DILexicalBlock(scope: !1302, file: !22, line: 73, column: 9)
!1302 = distinct !DILexicalBlock(scope: !1297, file: !22, line: 72, column: 28)
!1303 = !DILocation(line: 73, column: 17, scope: !1301)
!1304 = !DILocation(line: 73, column: 13, scope: !1301)
!1305 = !DILocation(line: 73, column: 21, scope: !1306)
!1306 = distinct !DILexicalBlock(scope: !1301, file: !22, line: 73, column: 9)
!1307 = !DILocation(line: 73, column: 22, scope: !1306)
!1308 = !DILocation(line: 0, scope: !1297)
!1309 = !DILocation(line: 73, column: 9, scope: !1301)
!1310 = !DILocation(line: 74, column: 37, scope: !1311)
!1311 = distinct !DILexicalBlock(scope: !1306, file: !22, line: 73, column: 31)
!1312 = !DILocation(line: 74, column: 48, scope: !1311)
!1313 = !DILocation(line: 74, column: 26, scope: !1311)
!1314 = !DILocation(line: 74, column: 27, scope: !1311)
!1315 = !DILocation(line: 74, column: 32, scope: !1311)
!1316 = !DILocation(line: 74, column: 31, scope: !1311)
!1317 = !DILocation(line: 74, column: 13, scope: !1311)
!1318 = !DILocation(line: 74, column: 35, scope: !1311)
!1319 = !DILocation(line: 73, column: 28, scope: !1306)
!1320 = !DILocation(line: 73, column: 9, scope: !1306)
!1321 = distinct !{!1321, !1309, !1322}
!1322 = !DILocation(line: 75, column: 9, scope: !1301)
!1323 = !DILocation(line: 72, column: 25, scope: !1297)
!1324 = !DILocation(line: 72, column: 5, scope: !1297)
!1325 = distinct !{!1325, !1299, !1326}
!1326 = !DILocation(line: 76, column: 5, scope: !1293)
!1327 = !DILocation(line: 77, column: 5, scope: !1233)
!1328 = distinct !DISubprogram(name: "micro_decoder", linkageName: "_Z13micro_decoder5INSTR", scope: !22, file: !22, line: 80, type: !1110, scopeLine: 81, flags: DIFlagPrototyped, spFlags: DISPFlagDefinition, unit: !21, retainedNodes: !23)
!1329 = !DILocalVariable(name: "instr", arg: 1, scope: !1328, file: !22, line: 80, type: !1112)
!1330 = !DILocation(line: 80, column: 35, scope: !1328)
!1331 = !DILocalVariable(name: "arr_ref", scope: !1328, file: !22, line: 82, type: !38)
!1332 = !DILocation(line: 82, column: 19, scope: !1328)
!1333 = !DILocalVariable(name: "inp", scope: !1328, file: !22, line: 83, type: !1033)
!1334 = !DILocation(line: 83, column: 18, scope: !1328)
!1335 = !DILocalVariable(name: "wgt", scope: !1328, file: !22, line: 83, type: !1033)
!1336 = !DILocation(line: 83, column: 26, scope: !1328)
!1337 = !DILocation(line: 84, column: 14, scope: !1338)
!1338 = distinct !DILexicalBlock(scope: !1328, file: !22, line: 84, column: 8)
!1339 = !DILocation(line: 84, column: 20, scope: !1338)
!1340 = !DILocation(line: 84, column: 8, scope: !1328)
!1341 = !DILocalVariable(name: "i", scope: !1342, file: !22, line: 85, type: !11)
!1342 = distinct !DILexicalBlock(scope: !1343, file: !22, line: 85, column: 9)
!1343 = distinct !DILexicalBlock(scope: !1338, file: !22, line: 84, column: 25)
!1344 = !DILocation(line: 85, column: 18, scope: !1342)
!1345 = !DILocation(line: 85, column: 14, scope: !1342)
!1346 = !DILocation(line: 85, column: 22, scope: !1347)
!1347 = distinct !DILexicalBlock(scope: !1342, file: !22, line: 85, column: 9)
!1348 = !DILocation(line: 85, column: 23, scope: !1347)
!1349 = !DILocation(line: 85, column: 9, scope: !1342)
!1350 = !DILocation(line: 86, column: 30, scope: !1351)
!1351 = distinct !DILexicalBlock(scope: !1347, file: !22, line: 85, column: 30)
!1352 = !DILocation(line: 86, column: 39, scope: !1351)
!1353 = !DILocation(line: 86, column: 47, scope: !1351)
!1354 = !DILocation(line: 86, column: 46, scope: !1351)
!1355 = !DILocation(line: 86, column: 22, scope: !1351)
!1356 = !DILocation(line: 86, column: 17, scope: !1351)
!1357 = !DILocation(line: 86, column: 13, scope: !1351)
!1358 = !DILocation(line: 86, column: 20, scope: !1351)
!1359 = !DILocation(line: 85, column: 27, scope: !1347)
!1360 = !DILocation(line: 85, column: 9, scope: !1347)
!1361 = distinct !{!1361, !1349, !1362}
!1362 = !DILocation(line: 87, column: 9, scope: !1342)
!1363 = !DILocalVariable(name: "i", scope: !1364, file: !22, line: 88, type: !11)
!1364 = distinct !DILexicalBlock(scope: !1343, file: !22, line: 88, column: 9)
!1365 = !DILocation(line: 88, column: 18, scope: !1364)
!1366 = !DILocation(line: 88, column: 14, scope: !1364)
!1367 = !DILocation(line: 88, column: 22, scope: !1368)
!1368 = distinct !DILexicalBlock(scope: !1364, file: !22, line: 88, column: 9)
!1369 = !DILocation(line: 88, column: 23, scope: !1368)
!1370 = !DILocation(line: 88, column: 9, scope: !1364)
!1371 = !DILocation(line: 89, column: 30, scope: !1372)
!1372 = distinct !DILexicalBlock(scope: !1368, file: !22, line: 88, column: 30)
!1373 = !DILocation(line: 89, column: 39, scope: !1372)
!1374 = !DILocation(line: 89, column: 47, scope: !1372)
!1375 = !DILocation(line: 89, column: 46, scope: !1372)
!1376 = !DILocation(line: 89, column: 22, scope: !1372)
!1377 = !DILocation(line: 89, column: 17, scope: !1372)
!1378 = !DILocation(line: 89, column: 13, scope: !1372)
!1379 = !DILocation(line: 89, column: 20, scope: !1372)
!1380 = !DILocation(line: 88, column: 27, scope: !1368)
!1381 = !DILocation(line: 88, column: 9, scope: !1368)
!1382 = distinct !{!1382, !1370, !1383}
!1383 = !DILocation(line: 90, column: 9, scope: !1364)
!1384 = !DILocation(line: 91, column: 34, scope: !1343)
!1385 = !DILocation(line: 91, column: 38, scope: !1343)
!1386 = !DILocation(line: 91, column: 19, scope: !1343)
!1387 = !DILocation(line: 91, column: 17, scope: !1343)
!1388 = !DILocation(line: 92, column: 5, scope: !1343)
!1389 = !DILocation(line: 93, column: 12, scope: !1328)
!1390 = !DILocation(line: 93, column: 5, scope: !1328)
!1391 = distinct !DISubprogram(name: "micro_decoder_val", linkageName: "_Z17micro_decoder_val9INSTR_VAL", scope: !22, file: !22, line: 96, type: !1392, scopeLine: 97, flags: DIFlagPrototyped, spFlags: DISPFlagDefinition, unit: !21, retainedNodes: !23)
!1392 = !DISubroutineType(types: !1393)
!1393 = !{!38, !1394}
!1394 = distinct !DICompositeType(tag: DW_TAG_structure_type, name: "INSTR_VAL", file: !1113, line: 37, size: 192, flags: DIFlagTypePassByValue, elements: !1395, identifier: "_ZTS9INSTR_VAL")
!1395 = !{!1396, !1397, !1398, !1399}
!1396 = !DIDerivedType(tag: DW_TAG_member, name: "ID", scope: !1394, file: !1113, line: 38, baseType: !28, size: 32)
!1397 = !DIDerivedType(tag: DW_TAG_member, name: "OPCODE", scope: !1394, file: !1113, line: 39, baseType: !28, size: 32, offset: 32)
!1398 = !DIDerivedType(tag: DW_TAG_member, name: "OPTYPE", scope: !1394, file: !1113, line: 40, baseType: !28, size: 32, offset: 64)
!1399 = !DIDerivedType(tag: DW_TAG_member, name: "OPERANDS", scope: !1394, file: !1113, line: 41, baseType: !1400, size: 96, offset: 96)
!1400 = distinct !DICompositeType(tag: DW_TAG_structure_type, name: "GEMM_STRUCT_VAL", file: !1113, line: 17, size: 96, flags: DIFlagTypePassByValue, elements: !1401, identifier: "_ZTS15GEMM_STRUCT_VAL")
!1401 = !{!1402, !1403, !1404}
!1402 = !DIDerivedType(tag: DW_TAG_member, name: "inp_mem", scope: !1400, file: !1113, line: 18, baseType: !28, size: 32)
!1403 = !DIDerivedType(tag: DW_TAG_member, name: "wgt_mem", scope: !1400, file: !1113, line: 19, baseType: !28, size: 32, offset: 32)
!1404 = !DIDerivedType(tag: DW_TAG_member, name: "acc_mem", scope: !1400, file: !1113, line: 20, baseType: !28, size: 32, offset: 64)
!1405 = !DILocalVariable(name: "instr", arg: 1, scope: !1391, file: !22, line: 96, type: !1394)
!1406 = !DILocation(line: 96, column: 43, scope: !1391)
!1407 = !DILocalVariable(name: "arr_val", scope: !1391, file: !22, line: 98, type: !38)
!1408 = !DILocation(line: 98, column: 20, scope: !1391)
!1409 = !DILocalVariable(name: "inp", scope: !1391, file: !22, line: 99, type: !1033)
!1410 = !DILocation(line: 99, column: 18, scope: !1391)
!1411 = !DILocalVariable(name: "wgt", scope: !1391, file: !22, line: 99, type: !1033)
!1412 = !DILocation(line: 99, column: 26, scope: !1391)
!1413 = !DILocation(line: 100, column: 14, scope: !1414)
!1414 = distinct !DILexicalBlock(scope: !1391, file: !22, line: 100, column: 8)
!1415 = !DILocation(line: 100, column: 20, scope: !1414)
!1416 = !DILocation(line: 100, column: 8, scope: !1391)
!1417 = !DILocalVariable(name: "i", scope: !1418, file: !22, line: 101, type: !11)
!1418 = distinct !DILexicalBlock(scope: !1419, file: !22, line: 101, column: 9)
!1419 = distinct !DILexicalBlock(scope: !1414, file: !22, line: 100, column: 25)
!1420 = !DILocation(line: 101, column: 18, scope: !1418)
!1421 = !DILocation(line: 101, column: 14, scope: !1418)
!1422 = !DILocation(line: 101, column: 22, scope: !1423)
!1423 = distinct !DILexicalBlock(scope: !1418, file: !22, line: 101, column: 9)
!1424 = !DILocation(line: 101, column: 23, scope: !1423)
!1425 = !DILocation(line: 101, column: 9, scope: !1418)
!1426 = !DILocation(line: 102, column: 28, scope: !1427)
!1427 = distinct !DILexicalBlock(scope: !1423, file: !22, line: 101, column: 30)
!1428 = !DILocation(line: 102, column: 37, scope: !1427)
!1429 = !DILocation(line: 102, column: 45, scope: !1427)
!1430 = !DILocation(line: 102, column: 44, scope: !1427)
!1431 = !DILocation(line: 102, column: 17, scope: !1427)
!1432 = !DILocation(line: 102, column: 13, scope: !1427)
!1433 = !DILocation(line: 102, column: 20, scope: !1427)
!1434 = !DILocation(line: 101, column: 27, scope: !1423)
!1435 = !DILocation(line: 101, column: 9, scope: !1423)
!1436 = distinct !{!1436, !1425, !1437}
!1437 = !DILocation(line: 103, column: 9, scope: !1418)
!1438 = !DILocalVariable(name: "i", scope: !1439, file: !22, line: 104, type: !11)
!1439 = distinct !DILexicalBlock(scope: !1419, file: !22, line: 104, column: 9)
!1440 = !DILocation(line: 104, column: 18, scope: !1439)
!1441 = !DILocation(line: 104, column: 14, scope: !1439)
!1442 = !DILocation(line: 104, column: 22, scope: !1443)
!1443 = distinct !DILexicalBlock(scope: !1439, file: !22, line: 104, column: 9)
!1444 = !DILocation(line: 104, column: 23, scope: !1443)
!1445 = !DILocation(line: 104, column: 9, scope: !1439)
!1446 = !DILocation(line: 105, column: 28, scope: !1447)
!1447 = distinct !DILexicalBlock(scope: !1443, file: !22, line: 104, column: 30)
!1448 = !DILocation(line: 105, column: 37, scope: !1447)
!1449 = !DILocation(line: 105, column: 17, scope: !1447)
!1450 = !DILocation(line: 105, column: 13, scope: !1447)
!1451 = !DILocation(line: 105, column: 20, scope: !1447)
!1452 = !DILocation(line: 104, column: 27, scope: !1443)
!1453 = !DILocation(line: 104, column: 9, scope: !1443)
!1454 = distinct !{!1454, !1445, !1455}
!1455 = !DILocation(line: 106, column: 9, scope: !1439)
!1456 = !DILocation(line: 107, column: 34, scope: !1419)
!1457 = !DILocation(line: 107, column: 38, scope: !1419)
!1458 = !DILocation(line: 107, column: 19, scope: !1419)
!1459 = !DILocation(line: 107, column: 17, scope: !1419)
!1460 = !DILocation(line: 108, column: 5, scope: !1419)
!1461 = !DILocation(line: 109, column: 12, scope: !1391)
!1462 = !DILocation(line: 109, column: 5, scope: !1391)
!1463 = distinct !DISubprogram(name: "main", scope: !22, file: !22, line: 113, type: !1464, scopeLine: 113, flags: DIFlagPrototyped, spFlags: DISPFlagDefinition, unit: !21, retainedNodes: !23)
!1464 = !DISubroutineType(types: !1465)
!1465 = !{!11, !11, !235}
!1466 = !DILocalVariable(name: "argc", arg: 1, scope: !1463, file: !22, line: 113, type: !11)
!1467 = !DILocation(line: 113, column: 14, scope: !1463)
!1468 = !DILocalVariable(name: "argv", arg: 2, scope: !1463, file: !22, line: 113, type: !235)
!1469 = !DILocation(line: 113, column: 32, scope: !1463)
!1470 = !DILocalVariable(name: "inp_mem_row0", scope: !1463, file: !22, line: 115, type: !1033)
!1471 = !DILocation(line: 115, column: 18, scope: !1463)
!1472 = !DILocalVariable(name: "inp_mem_row1", scope: !1463, file: !22, line: 115, type: !1033)
!1473 = !DILocation(line: 115, column: 37, scope: !1463)
!1474 = !DILocalVariable(name: "inp_mem_row2", scope: !1463, file: !22, line: 115, type: !1033)
!1475 = !DILocation(line: 115, column: 56, scope: !1463)
!1476 = !DILocalVariable(name: "wgt_mem_row0", scope: !1463, file: !22, line: 116, type: !1033)
!1477 = !DILocation(line: 116, column: 18, scope: !1463)
!1478 = !DILocalVariable(name: "wgt_mem_row1", scope: !1463, file: !22, line: 116, type: !1033)
!1479 = !DILocation(line: 116, column: 37, scope: !1463)
!1480 = !DILocalVariable(name: "wgt_mem_row2", scope: !1463, file: !22, line: 116, type: !1033)
!1481 = !DILocation(line: 116, column: 56, scope: !1463)
!1482 = !DILocalVariable(name: "acc_mem_row0", scope: !1463, file: !22, line: 117, type: !1033)
!1483 = !DILocation(line: 117, column: 18, scope: !1463)
!1484 = !DILocalVariable(name: "acc_mem_row1", scope: !1463, file: !22, line: 117, type: !1033)
!1485 = !DILocation(line: 117, column: 37, scope: !1463)
!1486 = !DILocalVariable(name: "acc_mem_row2", scope: !1463, file: !22, line: 117, type: !1033)
!1487 = !DILocation(line: 117, column: 56, scope: !1463)
!1488 = !DILocalVariable(name: "acc_mem_ref", scope: !1463, file: !22, line: 118, type: !38)
!1489 = !DILocation(line: 118, column: 20, scope: !1463)
!1490 = !DILocalVariable(name: "acc_mem_val", scope: !1463, file: !22, line: 119, type: !38)
!1491 = !DILocation(line: 119, column: 20, scope: !1463)
!1492 = !DILocalVariable(name: "acc_mem_gemm", scope: !1463, file: !22, line: 120, type: !38)
!1493 = !DILocation(line: 120, column: 20, scope: !1463)
!1494 = !DILocalVariable(name: "opcode", scope: !1463, file: !22, line: 121, type: !28)
!1495 = !DILocation(line: 121, column: 18, scope: !1463)
!1496 = !DILocalVariable(name: "op_type", scope: !1463, file: !22, line: 121, type: !28)
!1497 = !DILocation(line: 121, column: 26, scope: !1463)
!1498 = !DILocalVariable(name: "acc_stage1", scope: !1463, file: !22, line: 123, type: !50)
!1499 = !DILocation(line: 123, column: 18, scope: !1463)
!1500 = !DILocalVariable(name: "acc_stage2", scope: !1463, file: !22, line: 124, type: !50)
!1501 = !DILocation(line: 124, column: 18, scope: !1463)
!1502 = !DILocalVariable(name: "acc_stage3", scope: !1463, file: !22, line: 125, type: !50)
!1503 = !DILocation(line: 125, column: 18, scope: !1463)
!1504 = !DILocation(line: 126, column: 5, scope: !1463)
!1505 = !DILocation(line: 128, column: 5, scope: !1463)
!1506 = !DILocation(line: 129, column: 5, scope: !1463)
!1507 = !DILocation(line: 130, column: 5, scope: !1463)
!1508 = !DILocation(line: 131, column: 5, scope: !1463)
!1509 = !DILocation(line: 132, column: 5, scope: !1463)
!1510 = !DILocation(line: 133, column: 5, scope: !1463)
!1511 = !DILocation(line: 134, column: 5, scope: !1463)
!1512 = !DILocation(line: 135, column: 5, scope: !1463)
!1513 = !DILocation(line: 136, column: 5, scope: !1463)
!1514 = !DILocation(line: 137, column: 24, scope: !1463)
!1515 = !DILocation(line: 137, column: 5, scope: !1463)
!1516 = !DILocation(line: 138, column: 24, scope: !1463)
!1517 = !DILocation(line: 138, column: 5, scope: !1463)
!1518 = !DILocalVariable(name: "gemm_base", scope: !1463, file: !22, line: 141, type: !1119)
!1519 = !DILocation(line: 141, column: 21, scope: !1463)
!1520 = !DILocalVariable(name: "instruction", scope: !1463, file: !22, line: 142, type: !1112)
!1521 = !DILocation(line: 142, column: 11, scope: !1463)
!1522 = !DILocation(line: 142, column: 25, scope: !1463)
!1523 = !DILocation(line: 142, column: 33, scope: !1463)
!1524 = !DILocalVariable(name: "gemm_uop", scope: !1463, file: !22, line: 146, type: !1525)
!1525 = !DICompositeType(tag: DW_TAG_array_type, baseType: !1119, size: 1728, elements: !51)
!1526 = !DILocation(line: 146, column: 21, scope: !1463)
!1527 = !DILocation(line: 146, column: 35, scope: !1463)
!1528 = !DILocation(line: 146, column: 36, scope: !1463)
!1529 = !DILocation(line: 146, column: 38, scope: !1463)
!1530 = !DILocation(line: 146, column: 55, scope: !1463)
!1531 = !DILocation(line: 146, column: 72, scope: !1463)
!1532 = !DILocation(line: 146, column: 89, scope: !1463)
!1533 = !DILocation(line: 146, column: 91, scope: !1463)
!1534 = !DILocation(line: 146, column: 108, scope: !1463)
!1535 = !DILocation(line: 146, column: 125, scope: !1463)
!1536 = !DILocation(line: 147, column: 36, scope: !1463)
!1537 = !DILocation(line: 147, column: 38, scope: !1463)
!1538 = !DILocation(line: 147, column: 55, scope: !1463)
!1539 = !DILocation(line: 147, column: 72, scope: !1463)
!1540 = !DILocation(line: 147, column: 89, scope: !1463)
!1541 = !DILocation(line: 147, column: 91, scope: !1463)
!1542 = !DILocation(line: 147, column: 108, scope: !1463)
!1543 = !DILocation(line: 147, column: 125, scope: !1463)
!1544 = !DILocation(line: 148, column: 36, scope: !1463)
!1545 = !DILocation(line: 148, column: 38, scope: !1463)
!1546 = !DILocation(line: 148, column: 55, scope: !1463)
!1547 = !DILocation(line: 148, column: 72, scope: !1463)
!1548 = !DILocation(line: 148, column: 89, scope: !1463)
!1549 = !DILocation(line: 148, column: 91, scope: !1463)
!1550 = !DILocation(line: 148, column: 108, scope: !1463)
!1551 = !DILocation(line: 148, column: 125, scope: !1463)
!1552 = !DILocation(line: 149, column: 36, scope: !1463)
!1553 = !DILocation(line: 149, column: 38, scope: !1463)
!1554 = !DILocation(line: 149, column: 55, scope: !1463)
!1555 = !DILocation(line: 149, column: 72, scope: !1463)
!1556 = !DILocation(line: 149, column: 89, scope: !1463)
!1557 = !DILocation(line: 149, column: 91, scope: !1463)
!1558 = !DILocation(line: 149, column: 108, scope: !1463)
!1559 = !DILocation(line: 149, column: 125, scope: !1463)
!1560 = !DILocation(line: 150, column: 36, scope: !1463)
!1561 = !DILocation(line: 150, column: 38, scope: !1463)
!1562 = !DILocation(line: 150, column: 55, scope: !1463)
!1563 = !DILocation(line: 150, column: 72, scope: !1463)
!1564 = !DILocalVariable(name: "gemm", scope: !1463, file: !22, line: 153, type: !1565)
!1565 = !DICompositeType(tag: DW_TAG_array_type, baseType: !1400, size: 864, elements: !51)
!1566 = !DILocation(line: 153, column: 21, scope: !1463)
!1567 = !DILocation(line: 153, column: 31, scope: !1463)
!1568 = !DILocation(line: 153, column: 32, scope: !1463)
!1569 = !DILocation(line: 153, column: 33, scope: !1463)
!1570 = !DILocation(line: 153, column: 49, scope: !1463)
!1571 = !DILocation(line: 153, column: 65, scope: !1463)
!1572 = !DILocation(line: 153, column: 82, scope: !1463)
!1573 = !DILocation(line: 153, column: 83, scope: !1463)
!1574 = !DILocation(line: 153, column: 99, scope: !1463)
!1575 = !DILocation(line: 153, column: 115, scope: !1463)
!1576 = !DILocation(line: 154, column: 32, scope: !1463)
!1577 = !DILocation(line: 154, column: 33, scope: !1463)
!1578 = !DILocation(line: 154, column: 49, scope: !1463)
!1579 = !DILocation(line: 154, column: 65, scope: !1463)
!1580 = !DILocation(line: 154, column: 82, scope: !1463)
!1581 = !DILocation(line: 154, column: 83, scope: !1463)
!1582 = !DILocation(line: 154, column: 99, scope: !1463)
!1583 = !DILocation(line: 154, column: 115, scope: !1463)
!1584 = !DILocation(line: 155, column: 32, scope: !1463)
!1585 = !DILocation(line: 155, column: 33, scope: !1463)
!1586 = !DILocation(line: 155, column: 49, scope: !1463)
!1587 = !DILocation(line: 155, column: 65, scope: !1463)
!1588 = !DILocation(line: 155, column: 82, scope: !1463)
!1589 = !DILocation(line: 155, column: 83, scope: !1463)
!1590 = !DILocation(line: 155, column: 99, scope: !1463)
!1591 = !DILocation(line: 155, column: 115, scope: !1463)
!1592 = !DILocation(line: 156, column: 32, scope: !1463)
!1593 = !DILocation(line: 156, column: 33, scope: !1463)
!1594 = !DILocation(line: 156, column: 49, scope: !1463)
!1595 = !DILocation(line: 156, column: 65, scope: !1463)
!1596 = !DILocation(line: 156, column: 82, scope: !1463)
!1597 = !DILocation(line: 156, column: 83, scope: !1463)
!1598 = !DILocation(line: 156, column: 99, scope: !1463)
!1599 = !DILocation(line: 156, column: 115, scope: !1463)
!1600 = !DILocation(line: 157, column: 32, scope: !1463)
!1601 = !DILocation(line: 157, column: 33, scope: !1463)
!1602 = !DILocation(line: 157, column: 49, scope: !1463)
!1603 = !DILocation(line: 157, column: 65, scope: !1463)
!1604 = !DILocalVariable(name: "microop", scope: !1463, file: !22, line: 161, type: !1605)
!1605 = !DICompositeType(tag: DW_TAG_array_type, baseType: !1112, size: 2880, elements: !51)
!1606 = !DILocation(line: 161, column: 11, scope: !1463)
!1607 = !DILocation(line: 161, column: 24, scope: !1463)
!1608 = !DILocation(line: 161, column: 25, scope: !1463)
!1609 = !DILocation(line: 161, column: 32, scope: !1463)
!1610 = !DILocation(line: 161, column: 45, scope: !1463)
!1611 = !DILocation(line: 161, column: 52, scope: !1463)
!1612 = !DILocation(line: 161, column: 65, scope: !1463)
!1613 = !DILocation(line: 161, column: 72, scope: !1463)
!1614 = !DILocation(line: 161, column: 85, scope: !1463)
!1615 = !DILocation(line: 161, column: 92, scope: !1463)
!1616 = !DILocation(line: 162, column: 25, scope: !1463)
!1617 = !DILocation(line: 162, column: 32, scope: !1463)
!1618 = !DILocation(line: 162, column: 46, scope: !1463)
!1619 = !DILocation(line: 162, column: 53, scope: !1463)
!1620 = !DILocation(line: 162, column: 66, scope: !1463)
!1621 = !DILocation(line: 162, column: 73, scope: !1463)
!1622 = !DILocation(line: 162, column: 86, scope: !1463)
!1623 = !DILocation(line: 162, column: 93, scope: !1463)
!1624 = !DILocation(line: 162, column: 106, scope: !1463)
!1625 = !DILocation(line: 162, column: 113, scope: !1463)
!1626 = !DILocalVariable(name: "microop_val", scope: !1463, file: !22, line: 164, type: !1627)
!1627 = !DICompositeType(tag: DW_TAG_array_type, baseType: !1394, size: 1728, elements: !51)
!1628 = !DILocation(line: 164, column: 15, scope: !1463)
!1629 = !DILocation(line: 164, column: 32, scope: !1463)
!1630 = !DILocation(line: 164, column: 33, scope: !1463)
!1631 = !DILocation(line: 164, column: 40, scope: !1463)
!1632 = !DILocation(line: 164, column: 49, scope: !1463)
!1633 = !DILocation(line: 164, column: 56, scope: !1463)
!1634 = !DILocation(line: 164, column: 65, scope: !1463)
!1635 = !DILocation(line: 164, column: 72, scope: !1463)
!1636 = !DILocation(line: 164, column: 81, scope: !1463)
!1637 = !DILocation(line: 164, column: 88, scope: !1463)
!1638 = !DILocation(line: 165, column: 33, scope: !1463)
!1639 = !DILocation(line: 165, column: 40, scope: !1463)
!1640 = !DILocation(line: 165, column: 50, scope: !1463)
!1641 = !DILocation(line: 165, column: 57, scope: !1463)
!1642 = !DILocation(line: 165, column: 66, scope: !1463)
!1643 = !DILocation(line: 165, column: 73, scope: !1463)
!1644 = !DILocation(line: 165, column: 82, scope: !1463)
!1645 = !DILocation(line: 165, column: 89, scope: !1463)
!1646 = !DILocation(line: 165, column: 98, scope: !1463)
!1647 = !DILocation(line: 165, column: 105, scope: !1463)
!1648 = !DILocation(line: 169, column: 9, scope: !1649)
!1649 = distinct !DILexicalBlock(scope: !1463, file: !22, line: 169, column: 8)
!1650 = !DILocation(line: 169, column: 16, scope: !1649)
!1651 = !DILocation(line: 169, column: 27, scope: !1649)
!1652 = !DILocation(line: 169, column: 35, scope: !1649)
!1653 = !DILocation(line: 169, column: 22, scope: !1649)
!1654 = !DILocation(line: 171, column: 35, scope: !1655)
!1655 = distinct !DILexicalBlock(scope: !1649, file: !22, line: 169, column: 42)
!1656 = !DILocation(line: 171, column: 25, scope: !1655)
!1657 = !DILocation(line: 171, column: 23, scope: !1655)
!1658 = !DILocalVariable(name: "i", scope: !1659, file: !22, line: 172, type: !11)
!1659 = distinct !DILexicalBlock(scope: !1655, file: !22, line: 172, column: 9)
!1660 = !DILocation(line: 172, column: 18, scope: !1659)
!1661 = !DILocation(line: 172, column: 14, scope: !1659)
!1662 = !DILocation(line: 172, column: 22, scope: !1663)
!1663 = distinct !DILexicalBlock(scope: !1659, file: !22, line: 172, column: 9)
!1664 = !DILocation(line: 172, column: 23, scope: !1663)
!1665 = !DILocation(line: 172, column: 9, scope: !1659)
!1666 = !DILocation(line: 173, column: 27, scope: !1667)
!1667 = distinct !DILexicalBlock(scope: !1663, file: !22, line: 172, column: 30)
!1668 = !DILocation(line: 173, column: 40, scope: !1667)
!1669 = !DILocation(line: 173, column: 24, scope: !1667)
!1670 = !DILocation(line: 173, column: 13, scope: !1667)
!1671 = !DILocation(line: 173, column: 26, scope: !1667)
!1672 = !DILocation(line: 172, column: 27, scope: !1663)
!1673 = !DILocation(line: 172, column: 9, scope: !1663)
!1674 = distinct !{!1674, !1665, !1675}
!1675 = !DILocation(line: 174, column: 10, scope: !1659)
!1676 = !DILocalVariable(name: "i", scope: !1677, file: !22, line: 176, type: !11)
!1677 = distinct !DILexicalBlock(scope: !1655, file: !22, line: 176, column: 9)
!1678 = !DILocation(line: 176, column: 18, scope: !1677)
!1679 = !DILocation(line: 176, column: 14, scope: !1677)
!1680 = !DILocation(line: 176, column: 22, scope: !1681)
!1681 = distinct !DILexicalBlock(scope: !1677, file: !22, line: 176, column: 9)
!1682 = !DILocation(line: 176, column: 23, scope: !1681)
!1683 = !DILocation(line: 176, column: 9, scope: !1677)
!1684 = !DILocation(line: 177, column: 49, scope: !1685)
!1685 = distinct !DILexicalBlock(scope: !1681, file: !22, line: 176, column: 30)
!1686 = !DILocation(line: 177, column: 41, scope: !1685)
!1687 = !DILocation(line: 177, column: 27, scope: !1685)
!1688 = !DILocation(line: 177, column: 25, scope: !1685)
!1689 = !DILocation(line: 178, column: 27, scope: !1685)
!1690 = !DILocation(line: 178, column: 39, scope: !1685)
!1691 = !DILocation(line: 178, column: 24, scope: !1685)
!1692 = !DILocation(line: 178, column: 13, scope: !1685)
!1693 = !DILocation(line: 178, column: 26, scope: !1685)
!1694 = !DILocation(line: 176, column: 27, scope: !1681)
!1695 = !DILocation(line: 176, column: 9, scope: !1681)
!1696 = distinct !{!1696, !1683, !1697}
!1697 = !DILocation(line: 179, column: 13, scope: !1677)
!1698 = !DILocalVariable(name: "i", scope: !1699, file: !22, line: 181, type: !11)
!1699 = distinct !DILexicalBlock(scope: !1655, file: !22, line: 181, column: 9)
!1700 = !DILocation(line: 181, column: 18, scope: !1699)
!1701 = !DILocation(line: 181, column: 14, scope: !1699)
!1702 = !DILocation(line: 181, column: 22, scope: !1703)
!1703 = distinct !DILexicalBlock(scope: !1699, file: !22, line: 181, column: 9)
!1704 = !DILocation(line: 181, column: 23, scope: !1703)
!1705 = !DILocation(line: 181, column: 9, scope: !1699)
!1706 = !DILocation(line: 182, column: 57, scope: !1707)
!1707 = distinct !DILexicalBlock(scope: !1703, file: !22, line: 181, column: 30)
!1708 = !DILocation(line: 182, column: 45, scope: !1707)
!1709 = !DILocation(line: 182, column: 27, scope: !1707)
!1710 = !DILocation(line: 182, column: 25, scope: !1707)
!1711 = !DILocation(line: 183, column: 27, scope: !1707)
!1712 = !DILocation(line: 183, column: 39, scope: !1707)
!1713 = !DILocation(line: 183, column: 24, scope: !1707)
!1714 = !DILocation(line: 183, column: 13, scope: !1707)
!1715 = !DILocation(line: 183, column: 26, scope: !1707)
!1716 = !DILocation(line: 181, column: 27, scope: !1703)
!1717 = !DILocation(line: 181, column: 9, scope: !1703)
!1718 = distinct !{!1718, !1705, !1719}
!1719 = !DILocation(line: 184, column: 13, scope: !1699)
!1720 = !DILocation(line: 206, column: 1, scope: !1463)
!1721 = distinct !DISubprogram(linkageName: "_GLOBAL__sub_I_gemm.cpp", scope: !22, file: !22, type: !1722, flags: DIFlagArtificial, spFlags: DISPFlagLocalToUnit | DISPFlagDefinition, unit: !21, retainedNodes: !23)
!1722 = !DISubroutineType(types: !23)
!1723 = !DILocation(line: 0, scope: !1721)
!1724 = distinct !DISubprogram(name: "memcpy", scope: !1725, file: !1725, line: 12, type: !1726, scopeLine: 12, flags: DIFlagPrototyped, spFlags: DISPFlagDefinition, unit: !1020, retainedNodes: !23)
!1725 = !DIFile(filename: "klee_src/runtime/Freestanding/memcpy.c", directory: "/tmp")
!1726 = !DISubroutineType(types: !1727)
!1727 = !{!61, !61, !62, !1728}
!1728 = !DIDerivedType(tag: DW_TAG_typedef, name: "size_t", file: !1729, line: 46, baseType: !66)
!1729 = !DIFile(filename: "/usr/lib/llvm-9/lib/clang/9.0.0/include/stddef.h", directory: "")
!1730 = !DILocalVariable(name: "destaddr", arg: 1, scope: !1724, file: !1725, line: 12, type: !61)
!1731 = !DILocation(line: 12, column: 20, scope: !1724)
!1732 = !DILocalVariable(name: "srcaddr", arg: 2, scope: !1724, file: !1725, line: 12, type: !62)
!1733 = !DILocation(line: 12, column: 42, scope: !1724)
!1734 = !DILocalVariable(name: "len", arg: 3, scope: !1724, file: !1725, line: 12, type: !1728)
!1735 = !DILocation(line: 12, column: 58, scope: !1724)
!1736 = !DILocalVariable(name: "dest", scope: !1724, file: !1725, line: 13, type: !90)
!1737 = !DILocation(line: 13, column: 9, scope: !1724)
!1738 = !DILocation(line: 13, column: 16, scope: !1724)
!1739 = !DILocalVariable(name: "src", scope: !1724, file: !1725, line: 14, type: !94)
!1740 = !DILocation(line: 14, column: 15, scope: !1724)
!1741 = !DILocation(line: 14, column: 21, scope: !1724)
!1742 = !DILocation(line: 16, column: 3, scope: !1724)
!1743 = !DILocation(line: 16, column: 13, scope: !1724)
!1744 = !DILocation(line: 16, column: 16, scope: !1724)
!1745 = !DILocation(line: 17, column: 19, scope: !1724)
!1746 = !DILocation(line: 17, column: 15, scope: !1724)
!1747 = !DILocation(line: 17, column: 10, scope: !1724)
!1748 = !DILocation(line: 17, column: 13, scope: !1724)
!1749 = distinct !{!1749, !1742, !1745}
!1750 = !DILocation(line: 18, column: 10, scope: !1724)
!1751 = !DILocation(line: 18, column: 3, scope: !1724)
