; ModuleID = 'gemm_klee.bc'
source_filename = "gemm_klee.cpp"
target datalayout = "e-m:e-i64:64-f80:128-n8:16:32:64-S128"
target triple = "x86_64-unknown-linux-gnu"

%struct.GEMM_STRUCT_REF = type { i32*, i32*, i32* }
%struct.INSTR = type { i32, i32, i32, %struct.GEMM_STRUCT_REF }
%struct.INSTR_VAL = type { i32, i32, i32, %struct.GEMM_STRUCT_VAL }
%struct.GEMM_STRUCT_VAL = type { i32, i32, i32 }

@res_index = dso_local global i32 0, align 4, !dbg !0
@result = dso_local global [9 x i32] zeroinitializer, align 16, !dbg !6
@product = dso_local global [3 x [3 x i32]] zeroinitializer, align 16, !dbg !12
@inp_mem = dso_local global [3 x [3 x i32]] [[3 x i32] [i32 1, i32 2, i32 3], [3 x i32] [i32 1, i32 2, i32 3], [3 x i32] [i32 1, i32 2, i32 3]], align 16, !dbg !18
@wgt_mem = dso_local global [3 x [3 x i32]] [[3 x i32] [i32 4, i32 5, i32 6], [3 x i32] [i32 4, i32 5, i32 6], [3 x i32] [i32 4, i32 5, i32 6]], align 16, !dbg !21
@acc_mem = dso_local global [3 x [3 x i32]] zeroinitializer, align 16, !dbg !23
@wgt_mem_prime = dso_local global [3 x [3 x i32]] zeroinitializer, align 16, !dbg !25
@acc_mem_flat = dso_local global [9 x i32] zeroinitializer, align 16, !dbg !27
@acc_mem_base_flat = dso_local global [9 x i32] zeroinitializer, align 16, !dbg !29
@.str = private unnamed_addr constant [8 x i8] c"op_type\00", align 1
@.str.1 = private unnamed_addr constant [7 x i8] c"opcode\00", align 1
@__const.main.gemm_base = private unnamed_addr constant %struct.GEMM_STRUCT_REF { i32* getelementptr inbounds ([3 x [3 x i32]], [3 x [3 x i32]]* @inp_mem, i32 0, i32 0, i32 0), i32* getelementptr inbounds ([3 x [3 x i32]], [3 x [3 x i32]]* @wgt_mem, i32 0, i32 0, i32 0), i32* getelementptr inbounds ([3 x [3 x i32]], [3 x [3 x i32]]* @acc_mem, i32 0, i32 0, i32 0) }, align 8

; Function Attrs: noinline nounwind uwtable
define dso_local void @_Z9transposePA3_jS0_([3 x i32]* %wgt_mem, [3 x i32]* %wgt_mem_prime) #0 !dbg !131 {
entry:
  %wgt_mem.addr = alloca [3 x i32]*, align 8
  %wgt_mem_prime.addr = alloca [3 x i32]*, align 8
  %i = alloca i32, align 4
  %j = alloca i32, align 4
  store [3 x i32]* %wgt_mem, [3 x i32]** %wgt_mem.addr, align 8
  call void @llvm.dbg.declare(metadata [3 x i32]** %wgt_mem.addr, metadata !137, metadata !DIExpression()), !dbg !138
  store [3 x i32]* %wgt_mem_prime, [3 x i32]** %wgt_mem_prime.addr, align 8
  call void @llvm.dbg.declare(metadata [3 x i32]** %wgt_mem_prime.addr, metadata !139, metadata !DIExpression()), !dbg !140
  call void @llvm.dbg.declare(metadata i32* %i, metadata !141, metadata !DIExpression()), !dbg !142
  call void @llvm.dbg.declare(metadata i32* %j, metadata !143, metadata !DIExpression()), !dbg !144
  store i32 0, i32* %i, align 4, !dbg !145
  br label %for.cond, !dbg !147

for.cond:                                         ; preds = %for.inc10, %entry
  %0 = load i32, i32* %i, align 4, !dbg !148
  %cmp = icmp slt i32 %0, 3, !dbg !150
  br i1 %cmp, label %for.body, label %for.end12, !dbg !151

for.body:                                         ; preds = %for.cond
  store i32 0, i32* %j, align 4, !dbg !152
  br label %for.cond1, !dbg !154

for.cond1:                                        ; preds = %for.body3, %for.body
  %1 = load i32, i32* %j, align 4, !dbg !155
  %cmp2 = icmp slt i32 %1, 3, !dbg !157
  br i1 %cmp2, label %for.body3, label %for.inc10, !dbg !158

for.body3:                                        ; preds = %for.cond1
  %2 = load [3 x i32]*, [3 x i32]** %wgt_mem.addr, align 8, !dbg !159
  %3 = load i32, i32* %j, align 4, !dbg !160
  %idxprom = sext i32 %3 to i64, !dbg !159
  %arrayidx = getelementptr inbounds [3 x i32], [3 x i32]* %2, i64 %idxprom, !dbg !159
  %4 = load i32, i32* %i, align 4, !dbg !161
  %idxprom4 = sext i32 %4 to i64, !dbg !159
  %arrayidx5 = getelementptr inbounds [3 x i32], [3 x i32]* %arrayidx, i64 0, i64 %idxprom4, !dbg !159
  %5 = load i32, i32* %arrayidx5, align 4, !dbg !159
  %6 = load [3 x i32]*, [3 x i32]** %wgt_mem_prime.addr, align 8, !dbg !162
  %7 = load i32, i32* %i, align 4, !dbg !163
  %idxprom6 = sext i32 %7 to i64, !dbg !162
  %arrayidx7 = getelementptr inbounds [3 x i32], [3 x i32]* %6, i64 %idxprom6, !dbg !162
  %8 = load i32, i32* %j, align 4, !dbg !164
  %idxprom8 = sext i32 %8 to i64, !dbg !162
  %arrayidx9 = getelementptr inbounds [3 x i32], [3 x i32]* %arrayidx7, i64 0, i64 %idxprom8, !dbg !162
  store i32 %5, i32* %arrayidx9, align 4, !dbg !165
  %9 = load i32, i32* %j, align 4, !dbg !166
  %inc = add nsw i32 %9, 1, !dbg !166
  store i32 %inc, i32* %j, align 4, !dbg !166
  br label %for.cond1, !dbg !167, !llvm.loop !168

for.inc10:                                        ; preds = %for.cond1
  %10 = load i32, i32* %i, align 4, !dbg !170
  %inc11 = add nsw i32 %10, 1, !dbg !170
  store i32 %inc11, i32* %i, align 4, !dbg !170
  br label %for.cond, !dbg !171, !llvm.loop !172

for.end12:                                        ; preds = %for.cond
  ret void, !dbg !174
}

; Function Attrs: nounwind readnone speculatable
declare void @llvm.dbg.declare(metadata, metadata, metadata) #1

; Function Attrs: noinline nounwind uwtable
define dso_local i32* @_Z14matrixMultiplyPjS_(i32* %mat1, i32* %mat2) #0 !dbg !175 {
entry:
  %mat1.addr = alloca i32*, align 8
  %mat2.addr = alloca i32*, align 8
  %res = alloca i32, align 4
  %i = alloca i32, align 4
  store i32* %mat1, i32** %mat1.addr, align 8
  call void @llvm.dbg.declare(metadata i32** %mat1.addr, metadata !179, metadata !DIExpression()), !dbg !180
  store i32* %mat2, i32** %mat2.addr, align 8
  call void @llvm.dbg.declare(metadata i32** %mat2.addr, metadata !181, metadata !DIExpression()), !dbg !182
  call void @llvm.dbg.declare(metadata i32* %res, metadata !183, metadata !DIExpression()), !dbg !184
  store i32 0, i32* %res, align 4, !dbg !184
  call void @llvm.dbg.declare(metadata i32* %i, metadata !185, metadata !DIExpression()), !dbg !187
  store i32 0, i32* %i, align 4, !dbg !187
  br label %for.cond, !dbg !188

for.cond:                                         ; preds = %for.body, %entry
  %0 = load i32, i32* %i, align 4, !dbg !189
  %cmp = icmp slt i32 %0, 3, !dbg !191
  br i1 %cmp, label %for.body, label %for.end, !dbg !192

for.body:                                         ; preds = %for.cond
  %1 = load i32*, i32** %mat1.addr, align 8, !dbg !193
  %2 = load i32, i32* %i, align 4, !dbg !195
  %idxprom = sext i32 %2 to i64, !dbg !193
  %arrayidx = getelementptr inbounds i32, i32* %1, i64 %idxprom, !dbg !193
  %3 = load i32, i32* %arrayidx, align 4, !dbg !193
  %4 = load i32*, i32** %mat2.addr, align 8, !dbg !196
  %5 = load i32, i32* %i, align 4, !dbg !197
  %idxprom1 = sext i32 %5 to i64, !dbg !196
  %arrayidx2 = getelementptr inbounds i32, i32* %4, i64 %idxprom1, !dbg !196
  %6 = load i32, i32* %arrayidx2, align 4, !dbg !196
  %mul = mul i32 %3, %6, !dbg !198
  %7 = load i32, i32* %res, align 4, !dbg !199
  %add = add i32 %7, %mul, !dbg !199
  store i32 %add, i32* %res, align 4, !dbg !199
  %8 = load i32, i32* %i, align 4, !dbg !200
  %inc = add nsw i32 %8, 1, !dbg !200
  store i32 %inc, i32* %i, align 4, !dbg !200
  br label %for.cond, !dbg !201, !llvm.loop !202

for.end:                                          ; preds = %for.cond
  %9 = load i32, i32* %res, align 4, !dbg !204
  %10 = load i32, i32* @res_index, align 4, !dbg !205
  %idxprom3 = sext i32 %10 to i64, !dbg !206
  %arrayidx4 = getelementptr inbounds [9 x i32], [9 x i32]* @result, i64 0, i64 %idxprom3, !dbg !206
  store i32 %9, i32* %arrayidx4, align 4, !dbg !207
  %11 = load i32, i32* @res_index, align 4, !dbg !208
  %inc5 = add nsw i32 %11, 1, !dbg !208
  store i32 %inc5, i32* @res_index, align 4, !dbg !208
  ret i32* getelementptr inbounds ([9 x i32], [9 x i32]* @result, i64 0, i64 0), !dbg !209
}

; Function Attrs: noinline nounwind uwtable
define dso_local i32* @_Z13micro_decoder5INSTR(%struct.INSTR* byval(%struct.INSTR) align 8 %instr) #0 !dbg !210 {
entry:
  %arr_ref = alloca i32*, align 8
  %inp = alloca [3 x i32], align 4
  %wgt = alloca [3 x i32], align 4
  %i = alloca i32, align 4
  %i2 = alloca i32, align 4
  call void @llvm.dbg.declare(metadata %struct.INSTR* %instr, metadata !225, metadata !DIExpression()), !dbg !226
  call void @llvm.dbg.declare(metadata i32** %arr_ref, metadata !227, metadata !DIExpression()), !dbg !228
  store i32* null, i32** %arr_ref, align 8, !dbg !228
  call void @llvm.dbg.declare(metadata [3 x i32]* %inp, metadata !229, metadata !DIExpression()), !dbg !230
  call void @llvm.dbg.declare(metadata [3 x i32]* %wgt, metadata !231, metadata !DIExpression()), !dbg !232
  %OPCODE = getelementptr inbounds %struct.INSTR, %struct.INSTR* %instr, i32 0, i32 1, !dbg !233
  %0 = load i32, i32* %OPCODE, align 4, !dbg !233
  %cmp = icmp eq i32 %0, 2, !dbg !235
  br i1 %cmp, label %if.then, label %if.end, !dbg !236

if.then:                                          ; preds = %entry
  call void @llvm.dbg.declare(metadata i32* %i, metadata !237, metadata !DIExpression()), !dbg !240
  store i32 0, i32* %i, align 4, !dbg !240
  br label %for.cond, !dbg !241

for.cond:                                         ; preds = %for.body, %if.then
  %1 = load i32, i32* %i, align 4, !dbg !242
  %cmp1 = icmp slt i32 %1, 3, !dbg !244
  br i1 %cmp1, label %for.body, label %for.end, !dbg !245

for.body:                                         ; preds = %for.cond
  %OPERANDS = getelementptr inbounds %struct.INSTR, %struct.INSTR* %instr, i32 0, i32 3, !dbg !246
  %inp_mem = getelementptr inbounds %struct.GEMM_STRUCT_REF, %struct.GEMM_STRUCT_REF* %OPERANDS, i32 0, i32 0, !dbg !248
  %2 = load i32*, i32** %inp_mem, align 8, !dbg !248
  %3 = load i32, i32* %i, align 4, !dbg !249
  %idx.ext = sext i32 %3 to i64, !dbg !250
  %add.ptr = getelementptr inbounds i32, i32* %2, i64 %idx.ext, !dbg !250
  %4 = load i32, i32* %add.ptr, align 4, !dbg !251
  %5 = load i32, i32* %i, align 4, !dbg !252
  %idxprom = sext i32 %5 to i64, !dbg !253
  %arrayidx = getelementptr inbounds [3 x i32], [3 x i32]* %inp, i64 0, i64 %idxprom, !dbg !253
  store i32 %4, i32* %arrayidx, align 4, !dbg !254
  %6 = load i32, i32* %i, align 4, !dbg !255
  %inc = add nsw i32 %6, 1, !dbg !255
  store i32 %inc, i32* %i, align 4, !dbg !255
  br label %for.cond, !dbg !256, !llvm.loop !257

for.end:                                          ; preds = %for.cond
  call void @llvm.dbg.declare(metadata i32* %i2, metadata !259, metadata !DIExpression()), !dbg !261
  store i32 0, i32* %i2, align 4, !dbg !261
  br label %for.cond3, !dbg !262

for.cond3:                                        ; preds = %for.body5, %for.end
  %7 = load i32, i32* %i2, align 4, !dbg !263
  %cmp4 = icmp slt i32 %7, 3, !dbg !265
  br i1 %cmp4, label %for.body5, label %for.end13, !dbg !266

for.body5:                                        ; preds = %for.cond3
  %OPERANDS6 = getelementptr inbounds %struct.INSTR, %struct.INSTR* %instr, i32 0, i32 3, !dbg !267
  %wgt_mem = getelementptr inbounds %struct.GEMM_STRUCT_REF, %struct.GEMM_STRUCT_REF* %OPERANDS6, i32 0, i32 1, !dbg !269
  %8 = load i32*, i32** %wgt_mem, align 8, !dbg !269
  %9 = load i32, i32* %i2, align 4, !dbg !270
  %idx.ext7 = sext i32 %9 to i64, !dbg !271
  %add.ptr8 = getelementptr inbounds i32, i32* %8, i64 %idx.ext7, !dbg !271
  %10 = load i32, i32* %add.ptr8, align 4, !dbg !272
  %11 = load i32, i32* %i2, align 4, !dbg !273
  %idxprom9 = sext i32 %11 to i64, !dbg !274
  %arrayidx10 = getelementptr inbounds [3 x i32], [3 x i32]* %wgt, i64 0, i64 %idxprom9, !dbg !274
  store i32 %10, i32* %arrayidx10, align 4, !dbg !275
  %12 = load i32, i32* %i2, align 4, !dbg !276
  %inc12 = add nsw i32 %12, 1, !dbg !276
  store i32 %inc12, i32* %i2, align 4, !dbg !276
  br label %for.cond3, !dbg !277, !llvm.loop !278

for.end13:                                        ; preds = %for.cond3
  %arraydecay = getelementptr inbounds [3 x i32], [3 x i32]* %inp, i64 0, i64 0, !dbg !280
  %arraydecay14 = getelementptr inbounds [3 x i32], [3 x i32]* %wgt, i64 0, i64 0, !dbg !281
  %call = call i32* @_Z14matrixMultiplyPjS_(i32* %arraydecay, i32* %arraydecay14), !dbg !282
  store i32* %call, i32** %arr_ref, align 8, !dbg !283
  br label %if.end, !dbg !284

if.end:                                           ; preds = %for.end13, %entry
  %13 = load i32*, i32** %arr_ref, align 8, !dbg !285
  ret i32* %13, !dbg !286
}

; Function Attrs: noinline nounwind uwtable
define dso_local i32* @_Z17micro_decoder_val9INSTR_VAL(%struct.INSTR_VAL* byval(%struct.INSTR_VAL) align 8 %instr) #0 !dbg !287 {
entry:
  %arr_val = alloca i32*, align 8
  %inp = alloca [3 x i32], align 4
  %wgt = alloca [3 x i32], align 4
  %i = alloca i32, align 4
  %i2 = alloca i32, align 4
  call void @llvm.dbg.declare(metadata %struct.INSTR_VAL* %instr, metadata !301, metadata !DIExpression()), !dbg !302
  call void @llvm.dbg.declare(metadata i32** %arr_val, metadata !303, metadata !DIExpression()), !dbg !304
  store i32* null, i32** %arr_val, align 8, !dbg !304
  call void @llvm.dbg.declare(metadata [3 x i32]* %inp, metadata !305, metadata !DIExpression()), !dbg !306
  call void @llvm.dbg.declare(metadata [3 x i32]* %wgt, metadata !307, metadata !DIExpression()), !dbg !308
  %OPCODE = getelementptr inbounds %struct.INSTR_VAL, %struct.INSTR_VAL* %instr, i32 0, i32 1, !dbg !309
  %0 = load i32, i32* %OPCODE, align 4, !dbg !309
  %cmp = icmp eq i32 %0, 2, !dbg !311
  br i1 %cmp, label %if.then, label %if.end, !dbg !312

if.then:                                          ; preds = %entry
  call void @llvm.dbg.declare(metadata i32* %i, metadata !313, metadata !DIExpression()), !dbg !316
  store i32 0, i32* %i, align 4, !dbg !316
  br label %for.cond, !dbg !317

for.cond:                                         ; preds = %for.body, %if.then
  %1 = load i32, i32* %i, align 4, !dbg !318
  %cmp1 = icmp slt i32 %1, 3, !dbg !320
  br i1 %cmp1, label %for.body, label %for.end, !dbg !321

for.body:                                         ; preds = %for.cond
  %OPERANDS = getelementptr inbounds %struct.INSTR_VAL, %struct.INSTR_VAL* %instr, i32 0, i32 3, !dbg !322
  %inp_mem = getelementptr inbounds %struct.GEMM_STRUCT_VAL, %struct.GEMM_STRUCT_VAL* %OPERANDS, i32 0, i32 0, !dbg !324
  %2 = load i32, i32* %inp_mem, align 4, !dbg !324
  %3 = load i32, i32* %i, align 4, !dbg !325
  %add = add i32 %2, %3, !dbg !326
  %4 = load i32, i32* %i, align 4, !dbg !327
  %idxprom = sext i32 %4 to i64, !dbg !328
  %arrayidx = getelementptr inbounds [3 x i32], [3 x i32]* %inp, i64 0, i64 %idxprom, !dbg !328
  store i32 %add, i32* %arrayidx, align 4, !dbg !329
  %5 = load i32, i32* %i, align 4, !dbg !330
  %inc = add nsw i32 %5, 1, !dbg !330
  store i32 %inc, i32* %i, align 4, !dbg !330
  br label %for.cond, !dbg !331, !llvm.loop !332

for.end:                                          ; preds = %for.cond
  call void @llvm.dbg.declare(metadata i32* %i2, metadata !334, metadata !DIExpression()), !dbg !336
  store i32 0, i32* %i2, align 4, !dbg !336
  br label %for.cond3, !dbg !337

for.cond3:                                        ; preds = %for.body5, %for.end
  %6 = load i32, i32* %i2, align 4, !dbg !338
  %cmp4 = icmp slt i32 %6, 3, !dbg !340
  br i1 %cmp4, label %for.body5, label %for.end11, !dbg !341

for.body5:                                        ; preds = %for.cond3
  %OPERANDS6 = getelementptr inbounds %struct.INSTR_VAL, %struct.INSTR_VAL* %instr, i32 0, i32 3, !dbg !342
  %wgt_mem = getelementptr inbounds %struct.GEMM_STRUCT_VAL, %struct.GEMM_STRUCT_VAL* %OPERANDS6, i32 0, i32 1, !dbg !344
  %7 = load i32, i32* %wgt_mem, align 4, !dbg !344
  %8 = load i32, i32* %i2, align 4, !dbg !345
  %idxprom7 = sext i32 %8 to i64, !dbg !346
  %arrayidx8 = getelementptr inbounds [3 x i32], [3 x i32]* %wgt, i64 0, i64 %idxprom7, !dbg !346
  store i32 %7, i32* %arrayidx8, align 4, !dbg !347
  %9 = load i32, i32* %i2, align 4, !dbg !348
  %inc10 = add nsw i32 %9, 1, !dbg !348
  store i32 %inc10, i32* %i2, align 4, !dbg !348
  br label %for.cond3, !dbg !349, !llvm.loop !350

for.end11:                                        ; preds = %for.cond3
  %arraydecay = getelementptr inbounds [3 x i32], [3 x i32]* %inp, i64 0, i64 0, !dbg !352
  %arraydecay12 = getelementptr inbounds [3 x i32], [3 x i32]* %wgt, i64 0, i64 0, !dbg !353
  %call = call i32* @_Z14matrixMultiplyPjS_(i32* %arraydecay, i32* %arraydecay12), !dbg !354
  store i32* %call, i32** %arr_val, align 8, !dbg !355
  br label %if.end, !dbg !356

if.end:                                           ; preds = %for.end11, %entry
  %10 = load i32*, i32** %arr_val, align 8, !dbg !357
  ret i32* %10, !dbg !358
}

; Function Attrs: noinline nounwind uwtable
define dso_local i32* @_Z9base_gemm5INSTR(%struct.INSTR* byval(%struct.INSTR) align 8 %myinsn) #0 !dbg !359 {
entry:
  %row = alloca i32, align 4
  %col = alloca i32, align 4
  %i = alloca i32, align 4
  %sum = alloca i32, align 4
  %i26 = alloca i32, align 4
  %j = alloca i32, align 4
  call void @llvm.dbg.declare(metadata %struct.INSTR* %myinsn, metadata !360, metadata !DIExpression()), !dbg !361
  call void @llvm.dbg.declare(metadata i32* %row, metadata !362, metadata !DIExpression()), !dbg !363
  call void @llvm.dbg.declare(metadata i32* %col, metadata !364, metadata !DIExpression()), !dbg !365
  call void @llvm.dbg.declare(metadata i32* %i, metadata !366, metadata !DIExpression()), !dbg !367
  call void @llvm.dbg.declare(metadata i32* %sum, metadata !368, metadata !DIExpression()), !dbg !369
  %OPCODE = getelementptr inbounds %struct.INSTR, %struct.INSTR* %myinsn, i32 0, i32 1, !dbg !370
  %0 = load i32, i32* %OPCODE, align 4, !dbg !370
  %cmp = icmp eq i32 %0, 2, !dbg !372
  br i1 %cmp, label %if.then, label %if.end, !dbg !373

if.then:                                          ; preds = %entry
  store i32 0, i32* %row, align 4, !dbg !374
  br label %for.cond, !dbg !377

for.cond:                                         ; preds = %for.inc23, %if.then
  %1 = load i32, i32* %row, align 4, !dbg !378
  %cmp1 = icmp ult i32 %1, 3, !dbg !380
  br i1 %cmp1, label %for.body, label %for.end25, !dbg !381

for.body:                                         ; preds = %for.cond
  store i32 0, i32* %col, align 4, !dbg !382
  br label %for.cond2, !dbg !385

for.cond2:                                        ; preds = %for.end, %for.body
  %2 = load i32, i32* %col, align 4, !dbg !386
  %cmp3 = icmp ult i32 %2, 3, !dbg !388
  br i1 %cmp3, label %for.body4, label %for.inc23, !dbg !389

for.body4:                                        ; preds = %for.cond2
  store i32 0, i32* %sum, align 4, !dbg !390
  store i32 0, i32* %i, align 4, !dbg !392
  br label %for.cond5, !dbg !394

for.cond5:                                        ; preds = %for.body7, %for.body4
  %3 = load i32, i32* %i, align 4, !dbg !395
  %cmp6 = icmp ult i32 %3, 3, !dbg !397
  br i1 %cmp6, label %for.body7, label %for.end, !dbg !398

for.body7:                                        ; preds = %for.cond5
  %4 = load i32, i32* %row, align 4, !dbg !399
  %idx.ext = zext i32 %4 to i64, !dbg !401
  %add.ptr = getelementptr inbounds [3 x i32], [3 x i32]* getelementptr inbounds ([3 x [3 x i32]], [3 x [3 x i32]]* @inp_mem, i64 0, i64 0), i64 %idx.ext, !dbg !401
  %arraydecay = getelementptr inbounds [3 x i32], [3 x i32]* %add.ptr, i64 0, i64 0, !dbg !402
  %5 = load i32, i32* %i, align 4, !dbg !403
  %idx.ext8 = zext i32 %5 to i64, !dbg !404
  %add.ptr9 = getelementptr inbounds i32, i32* %arraydecay, i64 %idx.ext8, !dbg !404
  %6 = load i32, i32* %add.ptr9, align 4, !dbg !405
  %7 = load i32, i32* %i, align 4, !dbg !406
  %idx.ext10 = zext i32 %7 to i64, !dbg !407
  %add.ptr11 = getelementptr inbounds [3 x i32], [3 x i32]* getelementptr inbounds ([3 x [3 x i32]], [3 x [3 x i32]]* @wgt_mem, i64 0, i64 0), i64 %idx.ext10, !dbg !407
  %arraydecay12 = getelementptr inbounds [3 x i32], [3 x i32]* %add.ptr11, i64 0, i64 0, !dbg !408
  %8 = load i32, i32* %col, align 4, !dbg !409
  %idx.ext13 = zext i32 %8 to i64, !dbg !410
  %add.ptr14 = getelementptr inbounds i32, i32* %arraydecay12, i64 %idx.ext13, !dbg !410
  %9 = load i32, i32* %add.ptr14, align 4, !dbg !411
  %mul = mul i32 %6, %9, !dbg !412
  %10 = load i32, i32* %sum, align 4, !dbg !413
  %add = add i32 %10, %mul, !dbg !413
  store i32 %add, i32* %sum, align 4, !dbg !413
  %11 = load i32, i32* %i, align 4, !dbg !414
  %inc = add i32 %11, 1, !dbg !414
  store i32 %inc, i32* %i, align 4, !dbg !414
  br label %for.cond5, !dbg !415, !llvm.loop !416

for.end:                                          ; preds = %for.cond5
  %12 = load i32, i32* %sum, align 4, !dbg !418
  %13 = load i32, i32* %row, align 4, !dbg !419
  %idx.ext15 = zext i32 %13 to i64, !dbg !420
  %add.ptr16 = getelementptr inbounds [3 x i32], [3 x i32]* getelementptr inbounds ([3 x [3 x i32]], [3 x [3 x i32]]* @product, i64 0, i64 0), i64 %idx.ext15, !dbg !420
  %arraydecay17 = getelementptr inbounds [3 x i32], [3 x i32]* %add.ptr16, i64 0, i64 0, !dbg !421
  %14 = load i32, i32* %col, align 4, !dbg !422
  %idx.ext18 = zext i32 %14 to i64, !dbg !423
  %add.ptr19 = getelementptr inbounds i32, i32* %arraydecay17, i64 %idx.ext18, !dbg !423
  store i32 %12, i32* %add.ptr19, align 4, !dbg !424
  %15 = load i32, i32* %col, align 4, !dbg !425
  %inc21 = add i32 %15, 1, !dbg !425
  store i32 %inc21, i32* %col, align 4, !dbg !425
  br label %for.cond2, !dbg !426, !llvm.loop !427

for.inc23:                                        ; preds = %for.cond2
  %16 = load i32, i32* %row, align 4, !dbg !429
  %inc24 = add i32 %16, 1, !dbg !429
  store i32 %inc24, i32* %row, align 4, !dbg !429
  br label %for.cond, !dbg !430, !llvm.loop !431

for.end25:                                        ; preds = %for.cond
  call void @llvm.dbg.declare(metadata i32* %i26, metadata !433, metadata !DIExpression()), !dbg !435
  store i32 0, i32* %i26, align 4, !dbg !435
  br label %for.cond27, !dbg !436

for.cond27:                                       ; preds = %for.inc42, %for.end25
  %17 = load i32, i32* %i26, align 4, !dbg !437
  %cmp28 = icmp slt i32 %17, 3, !dbg !439
  br i1 %cmp28, label %for.body29, label %if.end, !dbg !440

for.body29:                                       ; preds = %for.cond27
  call void @llvm.dbg.declare(metadata i32* %j, metadata !441, metadata !DIExpression()), !dbg !444
  store i32 0, i32* %j, align 4, !dbg !444
  br label %for.cond30, !dbg !445

for.cond30:                                       ; preds = %for.body32, %for.body29
  %18 = load i32, i32* %j, align 4, !dbg !446
  %cmp31 = icmp slt i32 %18, 3, !dbg !448
  %19 = load i32, i32* %i26, align 4, !dbg !449
  br i1 %cmp31, label %for.body32, label %for.inc42, !dbg !450

for.body32:                                       ; preds = %for.cond30
  %idxprom = sext i32 %19 to i64, !dbg !451
  %arrayidx = getelementptr inbounds [3 x [3 x i32]], [3 x [3 x i32]]* @product, i64 0, i64 %idxprom, !dbg !451
  %20 = load i32, i32* %j, align 4, !dbg !453
  %idxprom33 = sext i32 %20 to i64, !dbg !451
  %arrayidx34 = getelementptr inbounds [3 x i32], [3 x i32]* %arrayidx, i64 0, i64 %idxprom33, !dbg !451
  %21 = load i32, i32* %arrayidx34, align 4, !dbg !451
  %22 = load i32, i32* %i26, align 4, !dbg !454
  %mul35 = mul nsw i32 %22, 3, !dbg !455
  %23 = load i32, i32* %j, align 4, !dbg !456
  %add36 = add nsw i32 %mul35, %23, !dbg !457
  %idxprom37 = sext i32 %add36 to i64, !dbg !458
  %arrayidx38 = getelementptr inbounds [9 x i32], [9 x i32]* @acc_mem_base_flat, i64 0, i64 %idxprom37, !dbg !458
  store i32 %21, i32* %arrayidx38, align 4, !dbg !459
  %24 = load i32, i32* %j, align 4, !dbg !460
  %inc40 = add nsw i32 %24, 1, !dbg !460
  store i32 %inc40, i32* %j, align 4, !dbg !460
  br label %for.cond30, !dbg !461, !llvm.loop !462

for.inc42:                                        ; preds = %for.cond30
  %inc43 = add nsw i32 %19, 1, !dbg !464
  store i32 %inc43, i32* %i26, align 4, !dbg !464
  br label %for.cond27, !dbg !465, !llvm.loop !466

if.end:                                           ; preds = %for.cond27, %entry
  ret i32* getelementptr inbounds ([9 x i32], [9 x i32]* @acc_mem_base_flat, i64 0, i64 0), !dbg !468
}

; Function Attrs: noinline norecurse uwtable
define dso_local i32 @main(i32 %argc, i8** %argv) #2 !dbg !469 {
entry:
  %retval = alloca i32, align 4
  %argc.addr = alloca i32, align 4
  %argv.addr = alloca i8**, align 8
  %inp_mem_row0 = alloca [3 x i32], align 4
  %inp_mem_row1 = alloca [3 x i32], align 4
  %inp_mem_row2 = alloca [3 x i32], align 4
  %wgt_mem_row0 = alloca [3 x i32], align 4
  %wgt_mem_row1 = alloca [3 x i32], align 4
  %wgt_mem_row2 = alloca [3 x i32], align 4
  %acc_mem_row0 = alloca [3 x i32], align 4
  %acc_mem_row1 = alloca [3 x i32], align 4
  %acc_mem_row2 = alloca [3 x i32], align 4
  %acc_stage2 = alloca [9 x i32], align 16
  %acc_stage1 = alloca [9 x i32], align 16
  %acc_stage3 = alloca [9 x i32], align 16
  %acc_mem_ref = alloca i32*, align 8
  %acc_mem_val = alloca i32*, align 8
  %acc_mem_gemm = alloca i32*, align 8
  %opcode = alloca i32, align 4
  %op_type = alloca i32, align 4
  %gemm_base = alloca %struct.GEMM_STRUCT_REF, align 8
  %instruction = alloca %struct.INSTR, align 8
  %gemm_uop = alloca [9 x %struct.GEMM_STRUCT_REF], align 16
  %gemm = alloca [9 x %struct.GEMM_STRUCT_VAL], align 16
  %microop = alloca [9 x %struct.INSTR], align 16
  %microop_val = alloca [9 x %struct.INSTR_VAL], align 16
  %agg.tmp = alloca %struct.INSTR, align 8
  %i = alloca i32, align 4
  %i242 = alloca i32, align 4
  %agg.tmp246 = alloca %struct.INSTR, align 8
  store i32 0, i32* %retval, align 4
  store i32 %argc, i32* %argc.addr, align 4
  call void @llvm.dbg.declare(metadata i32* %argc.addr, metadata !473, metadata !DIExpression()), !dbg !474
  store i8** %argv, i8*** %argv.addr, align 8
  call void @llvm.dbg.declare(metadata i8*** %argv.addr, metadata !475, metadata !DIExpression()), !dbg !476
  call void @llvm.dbg.declare(metadata [3 x i32]* %inp_mem_row0, metadata !477, metadata !DIExpression()), !dbg !478
  call void @llvm.dbg.declare(metadata [3 x i32]* %inp_mem_row1, metadata !479, metadata !DIExpression()), !dbg !480
  call void @llvm.dbg.declare(metadata [3 x i32]* %inp_mem_row2, metadata !481, metadata !DIExpression()), !dbg !482
  call void @llvm.dbg.declare(metadata [3 x i32]* %wgt_mem_row0, metadata !483, metadata !DIExpression()), !dbg !484
  call void @llvm.dbg.declare(metadata [3 x i32]* %wgt_mem_row1, metadata !485, metadata !DIExpression()), !dbg !486
  call void @llvm.dbg.declare(metadata [3 x i32]* %wgt_mem_row2, metadata !487, metadata !DIExpression()), !dbg !488
  call void @llvm.dbg.declare(metadata [3 x i32]* %acc_mem_row0, metadata !489, metadata !DIExpression()), !dbg !490
  call void @llvm.dbg.declare(metadata [3 x i32]* %acc_mem_row1, metadata !491, metadata !DIExpression()), !dbg !492
  call void @llvm.dbg.declare(metadata [3 x i32]* %acc_mem_row2, metadata !493, metadata !DIExpression()), !dbg !494
  call void @llvm.dbg.declare(metadata [9 x i32]* %acc_stage2, metadata !495, metadata !DIExpression()), !dbg !496
  call void @llvm.dbg.declare(metadata [9 x i32]* %acc_stage1, metadata !497, metadata !DIExpression()), !dbg !498
  call void @llvm.dbg.declare(metadata [9 x i32]* %acc_stage3, metadata !499, metadata !DIExpression()), !dbg !500
  call void @llvm.dbg.declare(metadata i32** %acc_mem_ref, metadata !501, metadata !DIExpression()), !dbg !502
  call void @llvm.dbg.declare(metadata i32** %acc_mem_val, metadata !503, metadata !DIExpression()), !dbg !504
  call void @llvm.dbg.declare(metadata i32** %acc_mem_gemm, metadata !505, metadata !DIExpression()), !dbg !506
  call void @_Z9transposePA3_jS0_([3 x i32]* getelementptr inbounds ([3 x [3 x i32]], [3 x [3 x i32]]* @wgt_mem, i64 0, i64 0), [3 x i32]* getelementptr inbounds ([3 x [3 x i32]], [3 x [3 x i32]]* @wgt_mem_prime, i64 0, i64 0)), !dbg !507
  call void @llvm.dbg.declare(metadata i32* %opcode, metadata !508, metadata !DIExpression()), !dbg !509
  call void @llvm.dbg.declare(metadata i32* %op_type, metadata !510, metadata !DIExpression()), !dbg !511
  %arraydecay = getelementptr inbounds [3 x i32], [3 x i32]* %inp_mem_row0, i64 0, i64 0, !dbg !512
  %0 = bitcast i32* %arraydecay to i8*, !dbg !512
  %1 = call i8* @memcpy(i8* %0, i8* bitcast ([3 x [3 x i32]]* @inp_mem to i8*), i64 12), !dbg !512
  %arraydecay1 = getelementptr inbounds [3 x i32], [3 x i32]* %inp_mem_row1, i64 0, i64 0, !dbg !513
  %2 = bitcast i32* %arraydecay1 to i8*, !dbg !513
  %3 = call i8* @memcpy(i8* %2, i8* bitcast (i32* getelementptr inbounds ([3 x [3 x i32]], [3 x [3 x i32]]* @inp_mem, i64 0, i64 1, i64 0) to i8*), i64 12), !dbg !513
  %arraydecay2 = getelementptr inbounds [3 x i32], [3 x i32]* %inp_mem_row2, i64 0, i64 0, !dbg !514
  %4 = bitcast i32* %arraydecay2 to i8*, !dbg !514
  %5 = call i8* @memcpy(i8* %4, i8* bitcast (i32* getelementptr inbounds ([3 x [3 x i32]], [3 x [3 x i32]]* @inp_mem, i64 0, i64 2, i64 0) to i8*), i64 12), !dbg !514
  %arraydecay3 = getelementptr inbounds [3 x i32], [3 x i32]* %wgt_mem_row0, i64 0, i64 0, !dbg !515
  %6 = bitcast i32* %arraydecay3 to i8*, !dbg !515
  %7 = call i8* @memcpy(i8* %6, i8* bitcast ([3 x [3 x i32]]* @wgt_mem_prime to i8*), i64 12), !dbg !515
  %arraydecay4 = getelementptr inbounds [3 x i32], [3 x i32]* %wgt_mem_row1, i64 0, i64 0, !dbg !516
  %8 = bitcast i32* %arraydecay4 to i8*, !dbg !516
  %9 = call i8* @memcpy(i8* %8, i8* bitcast (i32* getelementptr inbounds ([3 x [3 x i32]], [3 x [3 x i32]]* @wgt_mem_prime, i64 0, i64 1, i64 0) to i8*), i64 12), !dbg !516
  %arraydecay5 = getelementptr inbounds [3 x i32], [3 x i32]* %wgt_mem_row2, i64 0, i64 0, !dbg !517
  %10 = bitcast i32* %arraydecay5 to i8*, !dbg !517
  %11 = call i8* @memcpy(i8* %10, i8* bitcast (i32* getelementptr inbounds ([3 x [3 x i32]], [3 x [3 x i32]]* @wgt_mem_prime, i64 0, i64 2, i64 0) to i8*), i64 12), !dbg !517
  %arraydecay6 = getelementptr inbounds [3 x i32], [3 x i32]* %acc_mem_row0, i64 0, i64 0, !dbg !518
  %12 = bitcast i32* %arraydecay6 to i8*, !dbg !518
  %13 = call i8* @memcpy(i8* %12, i8* bitcast ([3 x [3 x i32]]* @acc_mem to i8*), i64 12), !dbg !518
  %arraydecay7 = getelementptr inbounds [3 x i32], [3 x i32]* %acc_mem_row1, i64 0, i64 0, !dbg !519
  %14 = bitcast i32* %arraydecay7 to i8*, !dbg !519
  %15 = call i8* @memcpy(i8* %14, i8* bitcast (i32* getelementptr inbounds ([3 x [3 x i32]], [3 x [3 x i32]]* @acc_mem, i64 0, i64 1, i64 0) to i8*), i64 12), !dbg !519
  %arraydecay8 = getelementptr inbounds [3 x i32], [3 x i32]* %acc_mem_row2, i64 0, i64 0, !dbg !520
  %16 = bitcast i32* %arraydecay8 to i8*, !dbg !520
  %17 = call i8* @memcpy(i8* %16, i8* bitcast (i32* getelementptr inbounds ([3 x [3 x i32]], [3 x [3 x i32]]* @acc_mem, i64 0, i64 2, i64 0) to i8*), i64 12), !dbg !520
  %18 = bitcast i32* %op_type to i8*, !dbg !521
  call void @klee_make_symbolic(i8* %18, i64 4, i8* getelementptr inbounds ([8 x i8], [8 x i8]* @.str, i64 0, i64 0)), !dbg !522
  %19 = bitcast i32* %opcode to i8*, !dbg !523
  call void @klee_make_symbolic(i8* %19, i64 4, i8* getelementptr inbounds ([7 x i8], [7 x i8]* @.str.1, i64 0, i64 0)), !dbg !524
  call void @llvm.dbg.declare(metadata %struct.GEMM_STRUCT_REF* %gemm_base, metadata !525, metadata !DIExpression()), !dbg !526
  %20 = bitcast %struct.GEMM_STRUCT_REF* %gemm_base to i8*, !dbg !526
  %21 = call i8* @memcpy(i8* %20, i8* bitcast (%struct.GEMM_STRUCT_REF* @__const.main.gemm_base to i8*), i64 24), !dbg !526
  call void @llvm.dbg.declare(metadata %struct.INSTR* %instruction, metadata !527, metadata !DIExpression()), !dbg !528
  %ID = getelementptr inbounds %struct.INSTR, %struct.INSTR* %instruction, i32 0, i32 0, !dbg !529
  store i32 0, i32* %ID, align 8, !dbg !529
  %OPCODE = getelementptr inbounds %struct.INSTR, %struct.INSTR* %instruction, i32 0, i32 1, !dbg !529
  store i32 2, i32* %OPCODE, align 4, !dbg !529
  %OPTYPE = getelementptr inbounds %struct.INSTR, %struct.INSTR* %instruction, i32 0, i32 2, !dbg !529
  store i32 0, i32* %OPTYPE, align 8, !dbg !529
  %OPERANDS = getelementptr inbounds %struct.INSTR, %struct.INSTR* %instruction, i32 0, i32 3, !dbg !529
  %22 = bitcast %struct.GEMM_STRUCT_REF* %OPERANDS to i8*, !dbg !530
  %23 = bitcast %struct.GEMM_STRUCT_REF* %gemm_base to i8*, !dbg !530
  %24 = call i8* @memcpy(i8* %22, i8* %23, i64 24), !dbg !530
  call void @llvm.dbg.declare(metadata [9 x %struct.GEMM_STRUCT_REF]* %gemm_uop, metadata !531, metadata !DIExpression()), !dbg !533
  %arrayinit.begin = getelementptr inbounds [9 x %struct.GEMM_STRUCT_REF], [9 x %struct.GEMM_STRUCT_REF]* %gemm_uop, i64 0, i64 0, !dbg !534
  %inp_mem = getelementptr inbounds %struct.GEMM_STRUCT_REF, %struct.GEMM_STRUCT_REF* %arrayinit.begin, i32 0, i32 0, !dbg !535
  %arrayidx = getelementptr inbounds [3 x i32], [3 x i32]* %inp_mem_row0, i64 0, i64 0, !dbg !536
  store i32* %arrayidx, i32** %inp_mem, align 8, !dbg !535
  %wgt_mem = getelementptr inbounds %struct.GEMM_STRUCT_REF, %struct.GEMM_STRUCT_REF* %arrayinit.begin, i32 0, i32 1, !dbg !535
  %arrayidx9 = getelementptr inbounds [3 x i32], [3 x i32]* %wgt_mem_row0, i64 0, i64 0, !dbg !537
  store i32* %arrayidx9, i32** %wgt_mem, align 8, !dbg !535
  %acc_mem = getelementptr inbounds %struct.GEMM_STRUCT_REF, %struct.GEMM_STRUCT_REF* %arrayinit.begin, i32 0, i32 2, !dbg !535
  %arrayidx10 = getelementptr inbounds [3 x i32], [3 x i32]* %acc_mem_row0, i64 0, i64 0, !dbg !538
  store i32* %arrayidx10, i32** %acc_mem, align 8, !dbg !535
  %arrayinit.element = getelementptr inbounds %struct.GEMM_STRUCT_REF, %struct.GEMM_STRUCT_REF* %arrayinit.begin, i64 1, !dbg !534
  %inp_mem11 = getelementptr inbounds %struct.GEMM_STRUCT_REF, %struct.GEMM_STRUCT_REF* %arrayinit.element, i32 0, i32 0, !dbg !539
  %arrayidx12 = getelementptr inbounds [3 x i32], [3 x i32]* %inp_mem_row0, i64 0, i64 0, !dbg !540
  store i32* %arrayidx12, i32** %inp_mem11, align 8, !dbg !539
  %wgt_mem13 = getelementptr inbounds %struct.GEMM_STRUCT_REF, %struct.GEMM_STRUCT_REF* %arrayinit.element, i32 0, i32 1, !dbg !539
  %arrayidx14 = getelementptr inbounds [3 x i32], [3 x i32]* %wgt_mem_row1, i64 0, i64 0, !dbg !541
  store i32* %arrayidx14, i32** %wgt_mem13, align 8, !dbg !539
  %acc_mem15 = getelementptr inbounds %struct.GEMM_STRUCT_REF, %struct.GEMM_STRUCT_REF* %arrayinit.element, i32 0, i32 2, !dbg !539
  %arrayidx16 = getelementptr inbounds [3 x i32], [3 x i32]* %acc_mem_row0, i64 0, i64 1, !dbg !542
  store i32* %arrayidx16, i32** %acc_mem15, align 8, !dbg !539
  %arrayinit.element17 = getelementptr inbounds %struct.GEMM_STRUCT_REF, %struct.GEMM_STRUCT_REF* %arrayinit.element, i64 1, !dbg !534
  %inp_mem18 = getelementptr inbounds %struct.GEMM_STRUCT_REF, %struct.GEMM_STRUCT_REF* %arrayinit.element17, i32 0, i32 0, !dbg !543
  %arrayidx19 = getelementptr inbounds [3 x i32], [3 x i32]* %inp_mem_row0, i64 0, i64 0, !dbg !544
  store i32* %arrayidx19, i32** %inp_mem18, align 8, !dbg !543
  %wgt_mem20 = getelementptr inbounds %struct.GEMM_STRUCT_REF, %struct.GEMM_STRUCT_REF* %arrayinit.element17, i32 0, i32 1, !dbg !543
  %arrayidx21 = getelementptr inbounds [3 x i32], [3 x i32]* %wgt_mem_row2, i64 0, i64 0, !dbg !545
  store i32* %arrayidx21, i32** %wgt_mem20, align 8, !dbg !543
  %acc_mem22 = getelementptr inbounds %struct.GEMM_STRUCT_REF, %struct.GEMM_STRUCT_REF* %arrayinit.element17, i32 0, i32 2, !dbg !543
  %arrayidx23 = getelementptr inbounds [3 x i32], [3 x i32]* %acc_mem_row0, i64 0, i64 2, !dbg !546
  store i32* %arrayidx23, i32** %acc_mem22, align 8, !dbg !543
  %arrayinit.element24 = getelementptr inbounds %struct.GEMM_STRUCT_REF, %struct.GEMM_STRUCT_REF* %arrayinit.element17, i64 1, !dbg !534
  %inp_mem25 = getelementptr inbounds %struct.GEMM_STRUCT_REF, %struct.GEMM_STRUCT_REF* %arrayinit.element24, i32 0, i32 0, !dbg !547
  %arrayidx26 = getelementptr inbounds [3 x i32], [3 x i32]* %inp_mem_row1, i64 0, i64 0, !dbg !548
  store i32* %arrayidx26, i32** %inp_mem25, align 8, !dbg !547
  %wgt_mem27 = getelementptr inbounds %struct.GEMM_STRUCT_REF, %struct.GEMM_STRUCT_REF* %arrayinit.element24, i32 0, i32 1, !dbg !547
  %arrayidx28 = getelementptr inbounds [3 x i32], [3 x i32]* %wgt_mem_row0, i64 0, i64 0, !dbg !549
  store i32* %arrayidx28, i32** %wgt_mem27, align 8, !dbg !547
  %acc_mem29 = getelementptr inbounds %struct.GEMM_STRUCT_REF, %struct.GEMM_STRUCT_REF* %arrayinit.element24, i32 0, i32 2, !dbg !547
  %arrayidx30 = getelementptr inbounds [3 x i32], [3 x i32]* %acc_mem_row1, i64 0, i64 0, !dbg !550
  store i32* %arrayidx30, i32** %acc_mem29, align 8, !dbg !547
  %arrayinit.element31 = getelementptr inbounds %struct.GEMM_STRUCT_REF, %struct.GEMM_STRUCT_REF* %arrayinit.element24, i64 1, !dbg !534
  %inp_mem32 = getelementptr inbounds %struct.GEMM_STRUCT_REF, %struct.GEMM_STRUCT_REF* %arrayinit.element31, i32 0, i32 0, !dbg !551
  %arrayidx33 = getelementptr inbounds [3 x i32], [3 x i32]* %inp_mem_row1, i64 0, i64 0, !dbg !552
  store i32* %arrayidx33, i32** %inp_mem32, align 8, !dbg !551
  %wgt_mem34 = getelementptr inbounds %struct.GEMM_STRUCT_REF, %struct.GEMM_STRUCT_REF* %arrayinit.element31, i32 0, i32 1, !dbg !551
  %arrayidx35 = getelementptr inbounds [3 x i32], [3 x i32]* %wgt_mem_row1, i64 0, i64 0, !dbg !553
  store i32* %arrayidx35, i32** %wgt_mem34, align 8, !dbg !551
  %acc_mem36 = getelementptr inbounds %struct.GEMM_STRUCT_REF, %struct.GEMM_STRUCT_REF* %arrayinit.element31, i32 0, i32 2, !dbg !551
  %arrayidx37 = getelementptr inbounds [3 x i32], [3 x i32]* %acc_mem_row1, i64 0, i64 1, !dbg !554
  store i32* %arrayidx37, i32** %acc_mem36, align 8, !dbg !551
  %arrayinit.element38 = getelementptr inbounds %struct.GEMM_STRUCT_REF, %struct.GEMM_STRUCT_REF* %arrayinit.element31, i64 1, !dbg !534
  %inp_mem39 = getelementptr inbounds %struct.GEMM_STRUCT_REF, %struct.GEMM_STRUCT_REF* %arrayinit.element38, i32 0, i32 0, !dbg !555
  %arrayidx40 = getelementptr inbounds [3 x i32], [3 x i32]* %inp_mem_row1, i64 0, i64 0, !dbg !556
  store i32* %arrayidx40, i32** %inp_mem39, align 8, !dbg !555
  %wgt_mem41 = getelementptr inbounds %struct.GEMM_STRUCT_REF, %struct.GEMM_STRUCT_REF* %arrayinit.element38, i32 0, i32 1, !dbg !555
  %arrayidx42 = getelementptr inbounds [3 x i32], [3 x i32]* %wgt_mem_row2, i64 0, i64 0, !dbg !557
  store i32* %arrayidx42, i32** %wgt_mem41, align 8, !dbg !555
  %acc_mem43 = getelementptr inbounds %struct.GEMM_STRUCT_REF, %struct.GEMM_STRUCT_REF* %arrayinit.element38, i32 0, i32 2, !dbg !555
  %arrayidx44 = getelementptr inbounds [3 x i32], [3 x i32]* %acc_mem_row1, i64 0, i64 2, !dbg !558
  store i32* %arrayidx44, i32** %acc_mem43, align 8, !dbg !555
  %arrayinit.element45 = getelementptr inbounds %struct.GEMM_STRUCT_REF, %struct.GEMM_STRUCT_REF* %arrayinit.element38, i64 1, !dbg !534
  %inp_mem46 = getelementptr inbounds %struct.GEMM_STRUCT_REF, %struct.GEMM_STRUCT_REF* %arrayinit.element45, i32 0, i32 0, !dbg !559
  %arrayidx47 = getelementptr inbounds [3 x i32], [3 x i32]* %inp_mem_row2, i64 0, i64 0, !dbg !560
  store i32* %arrayidx47, i32** %inp_mem46, align 8, !dbg !559
  %wgt_mem48 = getelementptr inbounds %struct.GEMM_STRUCT_REF, %struct.GEMM_STRUCT_REF* %arrayinit.element45, i32 0, i32 1, !dbg !559
  %arrayidx49 = getelementptr inbounds [3 x i32], [3 x i32]* %wgt_mem_row0, i64 0, i64 0, !dbg !561
  store i32* %arrayidx49, i32** %wgt_mem48, align 8, !dbg !559
  %acc_mem50 = getelementptr inbounds %struct.GEMM_STRUCT_REF, %struct.GEMM_STRUCT_REF* %arrayinit.element45, i32 0, i32 2, !dbg !559
  %arrayidx51 = getelementptr inbounds [3 x i32], [3 x i32]* %acc_mem_row2, i64 0, i64 0, !dbg !562
  store i32* %arrayidx51, i32** %acc_mem50, align 8, !dbg !559
  %arrayinit.element52 = getelementptr inbounds %struct.GEMM_STRUCT_REF, %struct.GEMM_STRUCT_REF* %arrayinit.element45, i64 1, !dbg !534
  %inp_mem53 = getelementptr inbounds %struct.GEMM_STRUCT_REF, %struct.GEMM_STRUCT_REF* %arrayinit.element52, i32 0, i32 0, !dbg !563
  %arrayidx54 = getelementptr inbounds [3 x i32], [3 x i32]* %inp_mem_row2, i64 0, i64 0, !dbg !564
  store i32* %arrayidx54, i32** %inp_mem53, align 8, !dbg !563
  %wgt_mem55 = getelementptr inbounds %struct.GEMM_STRUCT_REF, %struct.GEMM_STRUCT_REF* %arrayinit.element52, i32 0, i32 1, !dbg !563
  %arrayidx56 = getelementptr inbounds [3 x i32], [3 x i32]* %wgt_mem_row1, i64 0, i64 0, !dbg !565
  store i32* %arrayidx56, i32** %wgt_mem55, align 8, !dbg !563
  %acc_mem57 = getelementptr inbounds %struct.GEMM_STRUCT_REF, %struct.GEMM_STRUCT_REF* %arrayinit.element52, i32 0, i32 2, !dbg !563
  %arrayidx58 = getelementptr inbounds [3 x i32], [3 x i32]* %acc_mem_row2, i64 0, i64 1, !dbg !566
  store i32* %arrayidx58, i32** %acc_mem57, align 8, !dbg !563
  %arrayinit.element59 = getelementptr inbounds %struct.GEMM_STRUCT_REF, %struct.GEMM_STRUCT_REF* %arrayinit.element52, i64 1, !dbg !534
  %inp_mem60 = getelementptr inbounds %struct.GEMM_STRUCT_REF, %struct.GEMM_STRUCT_REF* %arrayinit.element59, i32 0, i32 0, !dbg !567
  %arrayidx61 = getelementptr inbounds [3 x i32], [3 x i32]* %inp_mem_row2, i64 0, i64 0, !dbg !568
  store i32* %arrayidx61, i32** %inp_mem60, align 8, !dbg !567
  %wgt_mem62 = getelementptr inbounds %struct.GEMM_STRUCT_REF, %struct.GEMM_STRUCT_REF* %arrayinit.element59, i32 0, i32 1, !dbg !567
  %arrayidx63 = getelementptr inbounds [3 x i32], [3 x i32]* %wgt_mem_row2, i64 0, i64 0, !dbg !569
  store i32* %arrayidx63, i32** %wgt_mem62, align 8, !dbg !567
  %acc_mem64 = getelementptr inbounds %struct.GEMM_STRUCT_REF, %struct.GEMM_STRUCT_REF* %arrayinit.element59, i32 0, i32 2, !dbg !567
  %arrayidx65 = getelementptr inbounds [3 x i32], [3 x i32]* %acc_mem_row2, i64 0, i64 2, !dbg !570
  store i32* %arrayidx65, i32** %acc_mem64, align 8, !dbg !567
  call void @llvm.dbg.declare(metadata [9 x %struct.GEMM_STRUCT_VAL]* %gemm, metadata !571, metadata !DIExpression()), !dbg !573
  %arrayinit.begin66 = getelementptr inbounds [9 x %struct.GEMM_STRUCT_VAL], [9 x %struct.GEMM_STRUCT_VAL]* %gemm, i64 0, i64 0, !dbg !574
  %inp_mem67 = getelementptr inbounds %struct.GEMM_STRUCT_VAL, %struct.GEMM_STRUCT_VAL* %arrayinit.begin66, i32 0, i32 0, !dbg !575
  %arrayidx68 = getelementptr inbounds [3 x i32], [3 x i32]* %inp_mem_row0, i64 0, i64 0, !dbg !576
  %25 = load i32, i32* %arrayidx68, align 4, !dbg !576
  store i32 %25, i32* %inp_mem67, align 4, !dbg !575
  %wgt_mem69 = getelementptr inbounds %struct.GEMM_STRUCT_VAL, %struct.GEMM_STRUCT_VAL* %arrayinit.begin66, i32 0, i32 1, !dbg !575
  %arrayidx70 = getelementptr inbounds [3 x i32], [3 x i32]* %wgt_mem_row0, i64 0, i64 0, !dbg !577
  %26 = load i32, i32* %arrayidx70, align 4, !dbg !577
  store i32 %26, i32* %wgt_mem69, align 4, !dbg !575
  %acc_mem71 = getelementptr inbounds %struct.GEMM_STRUCT_VAL, %struct.GEMM_STRUCT_VAL* %arrayinit.begin66, i32 0, i32 2, !dbg !575
  %arrayidx72 = getelementptr inbounds [3 x i32], [3 x i32]* %acc_mem_row0, i64 0, i64 0, !dbg !578
  %27 = load i32, i32* %arrayidx72, align 4, !dbg !578
  store i32 %27, i32* %acc_mem71, align 4, !dbg !575
  %arrayinit.element73 = getelementptr inbounds %struct.GEMM_STRUCT_VAL, %struct.GEMM_STRUCT_VAL* %arrayinit.begin66, i64 1, !dbg !574
  %inp_mem74 = getelementptr inbounds %struct.GEMM_STRUCT_VAL, %struct.GEMM_STRUCT_VAL* %arrayinit.element73, i32 0, i32 0, !dbg !579
  %arrayidx75 = getelementptr inbounds [3 x i32], [3 x i32]* %inp_mem_row0, i64 0, i64 0, !dbg !580
  %28 = load i32, i32* %arrayidx75, align 4, !dbg !580
  store i32 %28, i32* %inp_mem74, align 4, !dbg !579
  %wgt_mem76 = getelementptr inbounds %struct.GEMM_STRUCT_VAL, %struct.GEMM_STRUCT_VAL* %arrayinit.element73, i32 0, i32 1, !dbg !579
  %arrayidx77 = getelementptr inbounds [3 x i32], [3 x i32]* %wgt_mem_row1, i64 0, i64 0, !dbg !581
  %29 = load i32, i32* %arrayidx77, align 4, !dbg !581
  store i32 %29, i32* %wgt_mem76, align 4, !dbg !579
  %acc_mem78 = getelementptr inbounds %struct.GEMM_STRUCT_VAL, %struct.GEMM_STRUCT_VAL* %arrayinit.element73, i32 0, i32 2, !dbg !579
  %arrayidx79 = getelementptr inbounds [3 x i32], [3 x i32]* %acc_mem_row0, i64 0, i64 1, !dbg !582
  %30 = load i32, i32* %arrayidx79, align 4, !dbg !582
  store i32 %30, i32* %acc_mem78, align 4, !dbg !579
  %arrayinit.element80 = getelementptr inbounds %struct.GEMM_STRUCT_VAL, %struct.GEMM_STRUCT_VAL* %arrayinit.element73, i64 1, !dbg !574
  %inp_mem81 = getelementptr inbounds %struct.GEMM_STRUCT_VAL, %struct.GEMM_STRUCT_VAL* %arrayinit.element80, i32 0, i32 0, !dbg !583
  %arrayidx82 = getelementptr inbounds [3 x i32], [3 x i32]* %inp_mem_row0, i64 0, i64 0, !dbg !584
  %31 = load i32, i32* %arrayidx82, align 4, !dbg !584
  store i32 %31, i32* %inp_mem81, align 4, !dbg !583
  %wgt_mem83 = getelementptr inbounds %struct.GEMM_STRUCT_VAL, %struct.GEMM_STRUCT_VAL* %arrayinit.element80, i32 0, i32 1, !dbg !583
  %arrayidx84 = getelementptr inbounds [3 x i32], [3 x i32]* %wgt_mem_row2, i64 0, i64 0, !dbg !585
  %32 = load i32, i32* %arrayidx84, align 4, !dbg !585
  store i32 %32, i32* %wgt_mem83, align 4, !dbg !583
  %acc_mem85 = getelementptr inbounds %struct.GEMM_STRUCT_VAL, %struct.GEMM_STRUCT_VAL* %arrayinit.element80, i32 0, i32 2, !dbg !583
  %arrayidx86 = getelementptr inbounds [3 x i32], [3 x i32]* %acc_mem_row0, i64 0, i64 2, !dbg !586
  %33 = load i32, i32* %arrayidx86, align 4, !dbg !586
  store i32 %33, i32* %acc_mem85, align 4, !dbg !583
  %arrayinit.element87 = getelementptr inbounds %struct.GEMM_STRUCT_VAL, %struct.GEMM_STRUCT_VAL* %arrayinit.element80, i64 1, !dbg !574
  %inp_mem88 = getelementptr inbounds %struct.GEMM_STRUCT_VAL, %struct.GEMM_STRUCT_VAL* %arrayinit.element87, i32 0, i32 0, !dbg !587
  %arrayidx89 = getelementptr inbounds [3 x i32], [3 x i32]* %inp_mem_row1, i64 0, i64 0, !dbg !588
  %34 = load i32, i32* %arrayidx89, align 4, !dbg !588
  store i32 %34, i32* %inp_mem88, align 4, !dbg !587
  %wgt_mem90 = getelementptr inbounds %struct.GEMM_STRUCT_VAL, %struct.GEMM_STRUCT_VAL* %arrayinit.element87, i32 0, i32 1, !dbg !587
  %arrayidx91 = getelementptr inbounds [3 x i32], [3 x i32]* %wgt_mem_row0, i64 0, i64 0, !dbg !589
  %35 = load i32, i32* %arrayidx91, align 4, !dbg !589
  store i32 %35, i32* %wgt_mem90, align 4, !dbg !587
  %acc_mem92 = getelementptr inbounds %struct.GEMM_STRUCT_VAL, %struct.GEMM_STRUCT_VAL* %arrayinit.element87, i32 0, i32 2, !dbg !587
  %arrayidx93 = getelementptr inbounds [3 x i32], [3 x i32]* %acc_mem_row1, i64 0, i64 0, !dbg !590
  %36 = load i32, i32* %arrayidx93, align 4, !dbg !590
  store i32 %36, i32* %acc_mem92, align 4, !dbg !587
  %arrayinit.element94 = getelementptr inbounds %struct.GEMM_STRUCT_VAL, %struct.GEMM_STRUCT_VAL* %arrayinit.element87, i64 1, !dbg !574
  %inp_mem95 = getelementptr inbounds %struct.GEMM_STRUCT_VAL, %struct.GEMM_STRUCT_VAL* %arrayinit.element94, i32 0, i32 0, !dbg !591
  %arrayidx96 = getelementptr inbounds [3 x i32], [3 x i32]* %inp_mem_row1, i64 0, i64 0, !dbg !592
  %37 = load i32, i32* %arrayidx96, align 4, !dbg !592
  store i32 %37, i32* %inp_mem95, align 4, !dbg !591
  %wgt_mem97 = getelementptr inbounds %struct.GEMM_STRUCT_VAL, %struct.GEMM_STRUCT_VAL* %arrayinit.element94, i32 0, i32 1, !dbg !591
  %arrayidx98 = getelementptr inbounds [3 x i32], [3 x i32]* %wgt_mem_row1, i64 0, i64 0, !dbg !593
  %38 = load i32, i32* %arrayidx98, align 4, !dbg !593
  store i32 %38, i32* %wgt_mem97, align 4, !dbg !591
  %acc_mem99 = getelementptr inbounds %struct.GEMM_STRUCT_VAL, %struct.GEMM_STRUCT_VAL* %arrayinit.element94, i32 0, i32 2, !dbg !591
  %arrayidx100 = getelementptr inbounds [3 x i32], [3 x i32]* %acc_mem_row1, i64 0, i64 1, !dbg !594
  %39 = load i32, i32* %arrayidx100, align 4, !dbg !594
  store i32 %39, i32* %acc_mem99, align 4, !dbg !591
  %arrayinit.element101 = getelementptr inbounds %struct.GEMM_STRUCT_VAL, %struct.GEMM_STRUCT_VAL* %arrayinit.element94, i64 1, !dbg !574
  %inp_mem102 = getelementptr inbounds %struct.GEMM_STRUCT_VAL, %struct.GEMM_STRUCT_VAL* %arrayinit.element101, i32 0, i32 0, !dbg !595
  %arrayidx103 = getelementptr inbounds [3 x i32], [3 x i32]* %inp_mem_row1, i64 0, i64 0, !dbg !596
  %40 = load i32, i32* %arrayidx103, align 4, !dbg !596
  store i32 %40, i32* %inp_mem102, align 4, !dbg !595
  %wgt_mem104 = getelementptr inbounds %struct.GEMM_STRUCT_VAL, %struct.GEMM_STRUCT_VAL* %arrayinit.element101, i32 0, i32 1, !dbg !595
  %arrayidx105 = getelementptr inbounds [3 x i32], [3 x i32]* %wgt_mem_row2, i64 0, i64 0, !dbg !597
  %41 = load i32, i32* %arrayidx105, align 4, !dbg !597
  store i32 %41, i32* %wgt_mem104, align 4, !dbg !595
  %acc_mem106 = getelementptr inbounds %struct.GEMM_STRUCT_VAL, %struct.GEMM_STRUCT_VAL* %arrayinit.element101, i32 0, i32 2, !dbg !595
  %arrayidx107 = getelementptr inbounds [3 x i32], [3 x i32]* %acc_mem_row1, i64 0, i64 2, !dbg !598
  %42 = load i32, i32* %arrayidx107, align 4, !dbg !598
  store i32 %42, i32* %acc_mem106, align 4, !dbg !595
  %arrayinit.element108 = getelementptr inbounds %struct.GEMM_STRUCT_VAL, %struct.GEMM_STRUCT_VAL* %arrayinit.element101, i64 1, !dbg !574
  %inp_mem109 = getelementptr inbounds %struct.GEMM_STRUCT_VAL, %struct.GEMM_STRUCT_VAL* %arrayinit.element108, i32 0, i32 0, !dbg !599
  %arrayidx110 = getelementptr inbounds [3 x i32], [3 x i32]* %inp_mem_row2, i64 0, i64 0, !dbg !600
  %43 = load i32, i32* %arrayidx110, align 4, !dbg !600
  store i32 %43, i32* %inp_mem109, align 4, !dbg !599
  %wgt_mem111 = getelementptr inbounds %struct.GEMM_STRUCT_VAL, %struct.GEMM_STRUCT_VAL* %arrayinit.element108, i32 0, i32 1, !dbg !599
  %arrayidx112 = getelementptr inbounds [3 x i32], [3 x i32]* %wgt_mem_row0, i64 0, i64 0, !dbg !601
  %44 = load i32, i32* %arrayidx112, align 4, !dbg !601
  store i32 %44, i32* %wgt_mem111, align 4, !dbg !599
  %acc_mem113 = getelementptr inbounds %struct.GEMM_STRUCT_VAL, %struct.GEMM_STRUCT_VAL* %arrayinit.element108, i32 0, i32 2, !dbg !599
  %arrayidx114 = getelementptr inbounds [3 x i32], [3 x i32]* %acc_mem_row2, i64 0, i64 0, !dbg !602
  %45 = load i32, i32* %arrayidx114, align 4, !dbg !602
  store i32 %45, i32* %acc_mem113, align 4, !dbg !599
  %arrayinit.element115 = getelementptr inbounds %struct.GEMM_STRUCT_VAL, %struct.GEMM_STRUCT_VAL* %arrayinit.element108, i64 1, !dbg !574
  %inp_mem116 = getelementptr inbounds %struct.GEMM_STRUCT_VAL, %struct.GEMM_STRUCT_VAL* %arrayinit.element115, i32 0, i32 0, !dbg !603
  %arrayidx117 = getelementptr inbounds [3 x i32], [3 x i32]* %inp_mem_row2, i64 0, i64 0, !dbg !604
  %46 = load i32, i32* %arrayidx117, align 4, !dbg !604
  store i32 %46, i32* %inp_mem116, align 4, !dbg !603
  %wgt_mem118 = getelementptr inbounds %struct.GEMM_STRUCT_VAL, %struct.GEMM_STRUCT_VAL* %arrayinit.element115, i32 0, i32 1, !dbg !603
  %arrayidx119 = getelementptr inbounds [3 x i32], [3 x i32]* %wgt_mem_row1, i64 0, i64 0, !dbg !605
  %47 = load i32, i32* %arrayidx119, align 4, !dbg !605
  store i32 %47, i32* %wgt_mem118, align 4, !dbg !603
  %acc_mem120 = getelementptr inbounds %struct.GEMM_STRUCT_VAL, %struct.GEMM_STRUCT_VAL* %arrayinit.element115, i32 0, i32 2, !dbg !603
  %arrayidx121 = getelementptr inbounds [3 x i32], [3 x i32]* %acc_mem_row2, i64 0, i64 1, !dbg !606
  %48 = load i32, i32* %arrayidx121, align 4, !dbg !606
  store i32 %48, i32* %acc_mem120, align 4, !dbg !603
  %arrayinit.element122 = getelementptr inbounds %struct.GEMM_STRUCT_VAL, %struct.GEMM_STRUCT_VAL* %arrayinit.element115, i64 1, !dbg !574
  %inp_mem123 = getelementptr inbounds %struct.GEMM_STRUCT_VAL, %struct.GEMM_STRUCT_VAL* %arrayinit.element122, i32 0, i32 0, !dbg !607
  %arrayidx124 = getelementptr inbounds [3 x i32], [3 x i32]* %inp_mem_row2, i64 0, i64 0, !dbg !608
  %49 = load i32, i32* %arrayidx124, align 4, !dbg !608
  store i32 %49, i32* %inp_mem123, align 4, !dbg !607
  %wgt_mem125 = getelementptr inbounds %struct.GEMM_STRUCT_VAL, %struct.GEMM_STRUCT_VAL* %arrayinit.element122, i32 0, i32 1, !dbg !607
  %arrayidx126 = getelementptr inbounds [3 x i32], [3 x i32]* %wgt_mem_row2, i64 0, i64 0, !dbg !609
  %50 = load i32, i32* %arrayidx126, align 4, !dbg !609
  store i32 %50, i32* %wgt_mem125, align 4, !dbg !607
  %acc_mem127 = getelementptr inbounds %struct.GEMM_STRUCT_VAL, %struct.GEMM_STRUCT_VAL* %arrayinit.element122, i32 0, i32 2, !dbg !607
  %arrayidx128 = getelementptr inbounds [3 x i32], [3 x i32]* %acc_mem_row2, i64 0, i64 2, !dbg !610
  %51 = load i32, i32* %arrayidx128, align 4, !dbg !610
  store i32 %51, i32* %acc_mem127, align 4, !dbg !607
  call void @llvm.dbg.declare(metadata [9 x %struct.INSTR]* %microop, metadata !611, metadata !DIExpression()), !dbg !613
  %arrayinit.begin129 = getelementptr inbounds [9 x %struct.INSTR], [9 x %struct.INSTR]* %microop, i64 0, i64 0, !dbg !614
  %ID130 = getelementptr inbounds %struct.INSTR, %struct.INSTR* %arrayinit.begin129, i32 0, i32 0, !dbg !615
  store i32 0, i32* %ID130, align 8, !dbg !615
  %OPCODE131 = getelementptr inbounds %struct.INSTR, %struct.INSTR* %arrayinit.begin129, i32 0, i32 1, !dbg !615
  store i32 2, i32* %OPCODE131, align 4, !dbg !615
  %OPTYPE132 = getelementptr inbounds %struct.INSTR, %struct.INSTR* %arrayinit.begin129, i32 0, i32 2, !dbg !615
  store i32 0, i32* %OPTYPE132, align 8, !dbg !615
  %OPERANDS133 = getelementptr inbounds %struct.INSTR, %struct.INSTR* %arrayinit.begin129, i32 0, i32 3, !dbg !615
  %arrayidx134 = getelementptr inbounds [9 x %struct.GEMM_STRUCT_REF], [9 x %struct.GEMM_STRUCT_REF]* %gemm_uop, i64 0, i64 0, !dbg !616
  %52 = bitcast %struct.GEMM_STRUCT_REF* %OPERANDS133 to i8*, !dbg !616
  %53 = bitcast %struct.GEMM_STRUCT_REF* %arrayidx134 to i8*, !dbg !616
  %54 = call i8* @memcpy(i8* %52, i8* %53, i64 24), !dbg !616
  %arrayinit.element135 = getelementptr inbounds %struct.INSTR, %struct.INSTR* %arrayinit.begin129, i64 1, !dbg !614
  %ID136 = getelementptr inbounds %struct.INSTR, %struct.INSTR* %arrayinit.element135, i32 0, i32 0, !dbg !617
  store i32 1, i32* %ID136, align 8, !dbg !617
  %OPCODE137 = getelementptr inbounds %struct.INSTR, %struct.INSTR* %arrayinit.element135, i32 0, i32 1, !dbg !617
  store i32 2, i32* %OPCODE137, align 4, !dbg !617
  %OPTYPE138 = getelementptr inbounds %struct.INSTR, %struct.INSTR* %arrayinit.element135, i32 0, i32 2, !dbg !617
  store i32 0, i32* %OPTYPE138, align 8, !dbg !617
  %OPERANDS139 = getelementptr inbounds %struct.INSTR, %struct.INSTR* %arrayinit.element135, i32 0, i32 3, !dbg !617
  %arrayidx140 = getelementptr inbounds [9 x %struct.GEMM_STRUCT_REF], [9 x %struct.GEMM_STRUCT_REF]* %gemm_uop, i64 0, i64 1, !dbg !618
  %55 = bitcast %struct.GEMM_STRUCT_REF* %OPERANDS139 to i8*, !dbg !618
  %56 = bitcast %struct.GEMM_STRUCT_REF* %arrayidx140 to i8*, !dbg !618
  %57 = call i8* @memcpy(i8* %55, i8* %56, i64 24), !dbg !618
  %arrayinit.element141 = getelementptr inbounds %struct.INSTR, %struct.INSTR* %arrayinit.element135, i64 1, !dbg !614
  %ID142 = getelementptr inbounds %struct.INSTR, %struct.INSTR* %arrayinit.element141, i32 0, i32 0, !dbg !619
  store i32 2, i32* %ID142, align 8, !dbg !619
  %OPCODE143 = getelementptr inbounds %struct.INSTR, %struct.INSTR* %arrayinit.element141, i32 0, i32 1, !dbg !619
  store i32 2, i32* %OPCODE143, align 4, !dbg !619
  %OPTYPE144 = getelementptr inbounds %struct.INSTR, %struct.INSTR* %arrayinit.element141, i32 0, i32 2, !dbg !619
  store i32 0, i32* %OPTYPE144, align 8, !dbg !619
  %OPERANDS145 = getelementptr inbounds %struct.INSTR, %struct.INSTR* %arrayinit.element141, i32 0, i32 3, !dbg !619
  %arrayidx146 = getelementptr inbounds [9 x %struct.GEMM_STRUCT_REF], [9 x %struct.GEMM_STRUCT_REF]* %gemm_uop, i64 0, i64 2, !dbg !620
  %58 = bitcast %struct.GEMM_STRUCT_REF* %OPERANDS145 to i8*, !dbg !620
  %59 = bitcast %struct.GEMM_STRUCT_REF* %arrayidx146 to i8*, !dbg !620
  %60 = call i8* @memcpy(i8* %58, i8* %59, i64 24), !dbg !620
  %arrayinit.element147 = getelementptr inbounds %struct.INSTR, %struct.INSTR* %arrayinit.element141, i64 1, !dbg !614
  %ID148 = getelementptr inbounds %struct.INSTR, %struct.INSTR* %arrayinit.element147, i32 0, i32 0, !dbg !621
  store i32 3, i32* %ID148, align 8, !dbg !621
  %OPCODE149 = getelementptr inbounds %struct.INSTR, %struct.INSTR* %arrayinit.element147, i32 0, i32 1, !dbg !621
  store i32 2, i32* %OPCODE149, align 4, !dbg !621
  %OPTYPE150 = getelementptr inbounds %struct.INSTR, %struct.INSTR* %arrayinit.element147, i32 0, i32 2, !dbg !621
  store i32 0, i32* %OPTYPE150, align 8, !dbg !621
  %OPERANDS151 = getelementptr inbounds %struct.INSTR, %struct.INSTR* %arrayinit.element147, i32 0, i32 3, !dbg !621
  %arrayidx152 = getelementptr inbounds [9 x %struct.GEMM_STRUCT_REF], [9 x %struct.GEMM_STRUCT_REF]* %gemm_uop, i64 0, i64 3, !dbg !622
  %61 = bitcast %struct.GEMM_STRUCT_REF* %OPERANDS151 to i8*, !dbg !622
  %62 = bitcast %struct.GEMM_STRUCT_REF* %arrayidx152 to i8*, !dbg !622
  %63 = call i8* @memcpy(i8* %61, i8* %62, i64 24), !dbg !622
  %arrayinit.element153 = getelementptr inbounds %struct.INSTR, %struct.INSTR* %arrayinit.element147, i64 1, !dbg !614
  %ID154 = getelementptr inbounds %struct.INSTR, %struct.INSTR* %arrayinit.element153, i32 0, i32 0, !dbg !623
  store i32 4, i32* %ID154, align 8, !dbg !623
  %OPCODE155 = getelementptr inbounds %struct.INSTR, %struct.INSTR* %arrayinit.element153, i32 0, i32 1, !dbg !623
  store i32 2, i32* %OPCODE155, align 4, !dbg !623
  %OPTYPE156 = getelementptr inbounds %struct.INSTR, %struct.INSTR* %arrayinit.element153, i32 0, i32 2, !dbg !623
  store i32 0, i32* %OPTYPE156, align 8, !dbg !623
  %OPERANDS157 = getelementptr inbounds %struct.INSTR, %struct.INSTR* %arrayinit.element153, i32 0, i32 3, !dbg !623
  %arrayidx158 = getelementptr inbounds [9 x %struct.GEMM_STRUCT_REF], [9 x %struct.GEMM_STRUCT_REF]* %gemm_uop, i64 0, i64 4, !dbg !624
  %64 = bitcast %struct.GEMM_STRUCT_REF* %OPERANDS157 to i8*, !dbg !624
  %65 = bitcast %struct.GEMM_STRUCT_REF* %arrayidx158 to i8*, !dbg !624
  %66 = call i8* @memcpy(i8* %64, i8* %65, i64 24), !dbg !624
  %arrayinit.element159 = getelementptr inbounds %struct.INSTR, %struct.INSTR* %arrayinit.element153, i64 1, !dbg !614
  %ID160 = getelementptr inbounds %struct.INSTR, %struct.INSTR* %arrayinit.element159, i32 0, i32 0, !dbg !625
  store i32 5, i32* %ID160, align 8, !dbg !625
  %OPCODE161 = getelementptr inbounds %struct.INSTR, %struct.INSTR* %arrayinit.element159, i32 0, i32 1, !dbg !625
  store i32 2, i32* %OPCODE161, align 4, !dbg !625
  %OPTYPE162 = getelementptr inbounds %struct.INSTR, %struct.INSTR* %arrayinit.element159, i32 0, i32 2, !dbg !625
  store i32 0, i32* %OPTYPE162, align 8, !dbg !625
  %OPERANDS163 = getelementptr inbounds %struct.INSTR, %struct.INSTR* %arrayinit.element159, i32 0, i32 3, !dbg !625
  %arrayidx164 = getelementptr inbounds [9 x %struct.GEMM_STRUCT_REF], [9 x %struct.GEMM_STRUCT_REF]* %gemm_uop, i64 0, i64 5, !dbg !626
  %67 = bitcast %struct.GEMM_STRUCT_REF* %OPERANDS163 to i8*, !dbg !626
  %68 = bitcast %struct.GEMM_STRUCT_REF* %arrayidx164 to i8*, !dbg !626
  %69 = call i8* @memcpy(i8* %67, i8* %68, i64 24), !dbg !626
  %arrayinit.element165 = getelementptr inbounds %struct.INSTR, %struct.INSTR* %arrayinit.element159, i64 1, !dbg !614
  %ID166 = getelementptr inbounds %struct.INSTR, %struct.INSTR* %arrayinit.element165, i32 0, i32 0, !dbg !627
  store i32 6, i32* %ID166, align 8, !dbg !627
  %OPCODE167 = getelementptr inbounds %struct.INSTR, %struct.INSTR* %arrayinit.element165, i32 0, i32 1, !dbg !627
  store i32 2, i32* %OPCODE167, align 4, !dbg !627
  %OPTYPE168 = getelementptr inbounds %struct.INSTR, %struct.INSTR* %arrayinit.element165, i32 0, i32 2, !dbg !627
  store i32 0, i32* %OPTYPE168, align 8, !dbg !627
  %OPERANDS169 = getelementptr inbounds %struct.INSTR, %struct.INSTR* %arrayinit.element165, i32 0, i32 3, !dbg !627
  %arrayidx170 = getelementptr inbounds [9 x %struct.GEMM_STRUCT_REF], [9 x %struct.GEMM_STRUCT_REF]* %gemm_uop, i64 0, i64 6, !dbg !628
  %70 = bitcast %struct.GEMM_STRUCT_REF* %OPERANDS169 to i8*, !dbg !628
  %71 = bitcast %struct.GEMM_STRUCT_REF* %arrayidx170 to i8*, !dbg !628
  %72 = call i8* @memcpy(i8* %70, i8* %71, i64 24), !dbg !628
  %arrayinit.element171 = getelementptr inbounds %struct.INSTR, %struct.INSTR* %arrayinit.element165, i64 1, !dbg !614
  %ID172 = getelementptr inbounds %struct.INSTR, %struct.INSTR* %arrayinit.element171, i32 0, i32 0, !dbg !629
  store i32 7, i32* %ID172, align 8, !dbg !629
  %OPCODE173 = getelementptr inbounds %struct.INSTR, %struct.INSTR* %arrayinit.element171, i32 0, i32 1, !dbg !629
  store i32 2, i32* %OPCODE173, align 4, !dbg !629
  %OPTYPE174 = getelementptr inbounds %struct.INSTR, %struct.INSTR* %arrayinit.element171, i32 0, i32 2, !dbg !629
  store i32 0, i32* %OPTYPE174, align 8, !dbg !629
  %OPERANDS175 = getelementptr inbounds %struct.INSTR, %struct.INSTR* %arrayinit.element171, i32 0, i32 3, !dbg !629
  %arrayidx176 = getelementptr inbounds [9 x %struct.GEMM_STRUCT_REF], [9 x %struct.GEMM_STRUCT_REF]* %gemm_uop, i64 0, i64 7, !dbg !630
  %73 = bitcast %struct.GEMM_STRUCT_REF* %OPERANDS175 to i8*, !dbg !630
  %74 = bitcast %struct.GEMM_STRUCT_REF* %arrayidx176 to i8*, !dbg !630
  %75 = call i8* @memcpy(i8* %73, i8* %74, i64 24), !dbg !630
  %arrayinit.element177 = getelementptr inbounds %struct.INSTR, %struct.INSTR* %arrayinit.element171, i64 1, !dbg !614
  %ID178 = getelementptr inbounds %struct.INSTR, %struct.INSTR* %arrayinit.element177, i32 0, i32 0, !dbg !631
  store i32 8, i32* %ID178, align 8, !dbg !631
  %OPCODE179 = getelementptr inbounds %struct.INSTR, %struct.INSTR* %arrayinit.element177, i32 0, i32 1, !dbg !631
  store i32 2, i32* %OPCODE179, align 4, !dbg !631
  %OPTYPE180 = getelementptr inbounds %struct.INSTR, %struct.INSTR* %arrayinit.element177, i32 0, i32 2, !dbg !631
  store i32 0, i32* %OPTYPE180, align 8, !dbg !631
  %OPERANDS181 = getelementptr inbounds %struct.INSTR, %struct.INSTR* %arrayinit.element177, i32 0, i32 3, !dbg !631
  %arrayidx182 = getelementptr inbounds [9 x %struct.GEMM_STRUCT_REF], [9 x %struct.GEMM_STRUCT_REF]* %gemm_uop, i64 0, i64 8, !dbg !632
  %76 = bitcast %struct.GEMM_STRUCT_REF* %OPERANDS181 to i8*, !dbg !632
  %77 = bitcast %struct.GEMM_STRUCT_REF* %arrayidx182 to i8*, !dbg !632
  %78 = call i8* @memcpy(i8* %76, i8* %77, i64 24), !dbg !632
  call void @llvm.dbg.declare(metadata [9 x %struct.INSTR_VAL]* %microop_val, metadata !633, metadata !DIExpression()), !dbg !635
  %arrayinit.begin183 = getelementptr inbounds [9 x %struct.INSTR_VAL], [9 x %struct.INSTR_VAL]* %microop_val, i64 0, i64 0, !dbg !636
  %ID184 = getelementptr inbounds %struct.INSTR_VAL, %struct.INSTR_VAL* %arrayinit.begin183, i32 0, i32 0, !dbg !637
  store i32 0, i32* %ID184, align 8, !dbg !637
  %OPCODE185 = getelementptr inbounds %struct.INSTR_VAL, %struct.INSTR_VAL* %arrayinit.begin183, i32 0, i32 1, !dbg !637
  store i32 2, i32* %OPCODE185, align 4, !dbg !637
  %OPTYPE186 = getelementptr inbounds %struct.INSTR_VAL, %struct.INSTR_VAL* %arrayinit.begin183, i32 0, i32 2, !dbg !637
  store i32 0, i32* %OPTYPE186, align 8, !dbg !637
  %OPERANDS187 = getelementptr inbounds %struct.INSTR_VAL, %struct.INSTR_VAL* %arrayinit.begin183, i32 0, i32 3, !dbg !637
  %arrayidx188 = getelementptr inbounds [9 x %struct.GEMM_STRUCT_VAL], [9 x %struct.GEMM_STRUCT_VAL]* %gemm, i64 0, i64 0, !dbg !638
  %79 = bitcast %struct.GEMM_STRUCT_VAL* %OPERANDS187 to i8*, !dbg !638
  %80 = bitcast %struct.GEMM_STRUCT_VAL* %arrayidx188 to i8*, !dbg !638
  %81 = call i8* @memcpy(i8* %79, i8* %80, i64 12), !dbg !638
  %arrayinit.element189 = getelementptr inbounds %struct.INSTR_VAL, %struct.INSTR_VAL* %arrayinit.begin183, i64 1, !dbg !636
  %ID190 = getelementptr inbounds %struct.INSTR_VAL, %struct.INSTR_VAL* %arrayinit.element189, i32 0, i32 0, !dbg !639
  store i32 1, i32* %ID190, align 8, !dbg !639
  %OPCODE191 = getelementptr inbounds %struct.INSTR_VAL, %struct.INSTR_VAL* %arrayinit.element189, i32 0, i32 1, !dbg !639
  store i32 2, i32* %OPCODE191, align 4, !dbg !639
  %OPTYPE192 = getelementptr inbounds %struct.INSTR_VAL, %struct.INSTR_VAL* %arrayinit.element189, i32 0, i32 2, !dbg !639
  store i32 0, i32* %OPTYPE192, align 8, !dbg !639
  %OPERANDS193 = getelementptr inbounds %struct.INSTR_VAL, %struct.INSTR_VAL* %arrayinit.element189, i32 0, i32 3, !dbg !639
  %arrayidx194 = getelementptr inbounds [9 x %struct.GEMM_STRUCT_VAL], [9 x %struct.GEMM_STRUCT_VAL]* %gemm, i64 0, i64 1, !dbg !640
  %82 = bitcast %struct.GEMM_STRUCT_VAL* %OPERANDS193 to i8*, !dbg !640
  %83 = bitcast %struct.GEMM_STRUCT_VAL* %arrayidx194 to i8*, !dbg !640
  %84 = call i8* @memcpy(i8* %82, i8* %83, i64 12), !dbg !640
  %arrayinit.element195 = getelementptr inbounds %struct.INSTR_VAL, %struct.INSTR_VAL* %arrayinit.element189, i64 1, !dbg !636
  %ID196 = getelementptr inbounds %struct.INSTR_VAL, %struct.INSTR_VAL* %arrayinit.element195, i32 0, i32 0, !dbg !641
  store i32 2, i32* %ID196, align 8, !dbg !641
  %OPCODE197 = getelementptr inbounds %struct.INSTR_VAL, %struct.INSTR_VAL* %arrayinit.element195, i32 0, i32 1, !dbg !641
  store i32 2, i32* %OPCODE197, align 4, !dbg !641
  %OPTYPE198 = getelementptr inbounds %struct.INSTR_VAL, %struct.INSTR_VAL* %arrayinit.element195, i32 0, i32 2, !dbg !641
  store i32 0, i32* %OPTYPE198, align 8, !dbg !641
  %OPERANDS199 = getelementptr inbounds %struct.INSTR_VAL, %struct.INSTR_VAL* %arrayinit.element195, i32 0, i32 3, !dbg !641
  %arrayidx200 = getelementptr inbounds [9 x %struct.GEMM_STRUCT_VAL], [9 x %struct.GEMM_STRUCT_VAL]* %gemm, i64 0, i64 2, !dbg !642
  %85 = bitcast %struct.GEMM_STRUCT_VAL* %OPERANDS199 to i8*, !dbg !642
  %86 = bitcast %struct.GEMM_STRUCT_VAL* %arrayidx200 to i8*, !dbg !642
  %87 = call i8* @memcpy(i8* %85, i8* %86, i64 12), !dbg !642
  %arrayinit.element201 = getelementptr inbounds %struct.INSTR_VAL, %struct.INSTR_VAL* %arrayinit.element195, i64 1, !dbg !636
  %ID202 = getelementptr inbounds %struct.INSTR_VAL, %struct.INSTR_VAL* %arrayinit.element201, i32 0, i32 0, !dbg !643
  store i32 3, i32* %ID202, align 8, !dbg !643
  %OPCODE203 = getelementptr inbounds %struct.INSTR_VAL, %struct.INSTR_VAL* %arrayinit.element201, i32 0, i32 1, !dbg !643
  store i32 2, i32* %OPCODE203, align 4, !dbg !643
  %OPTYPE204 = getelementptr inbounds %struct.INSTR_VAL, %struct.INSTR_VAL* %arrayinit.element201, i32 0, i32 2, !dbg !643
  store i32 0, i32* %OPTYPE204, align 8, !dbg !643
  %OPERANDS205 = getelementptr inbounds %struct.INSTR_VAL, %struct.INSTR_VAL* %arrayinit.element201, i32 0, i32 3, !dbg !643
  %arrayidx206 = getelementptr inbounds [9 x %struct.GEMM_STRUCT_VAL], [9 x %struct.GEMM_STRUCT_VAL]* %gemm, i64 0, i64 3, !dbg !644
  %88 = bitcast %struct.GEMM_STRUCT_VAL* %OPERANDS205 to i8*, !dbg !644
  %89 = bitcast %struct.GEMM_STRUCT_VAL* %arrayidx206 to i8*, !dbg !644
  %90 = call i8* @memcpy(i8* %88, i8* %89, i64 12), !dbg !644
  %arrayinit.element207 = getelementptr inbounds %struct.INSTR_VAL, %struct.INSTR_VAL* %arrayinit.element201, i64 1, !dbg !636
  %ID208 = getelementptr inbounds %struct.INSTR_VAL, %struct.INSTR_VAL* %arrayinit.element207, i32 0, i32 0, !dbg !645
  store i32 4, i32* %ID208, align 8, !dbg !645
  %OPCODE209 = getelementptr inbounds %struct.INSTR_VAL, %struct.INSTR_VAL* %arrayinit.element207, i32 0, i32 1, !dbg !645
  store i32 2, i32* %OPCODE209, align 4, !dbg !645
  %OPTYPE210 = getelementptr inbounds %struct.INSTR_VAL, %struct.INSTR_VAL* %arrayinit.element207, i32 0, i32 2, !dbg !645
  store i32 0, i32* %OPTYPE210, align 8, !dbg !645
  %OPERANDS211 = getelementptr inbounds %struct.INSTR_VAL, %struct.INSTR_VAL* %arrayinit.element207, i32 0, i32 3, !dbg !645
  %arrayidx212 = getelementptr inbounds [9 x %struct.GEMM_STRUCT_VAL], [9 x %struct.GEMM_STRUCT_VAL]* %gemm, i64 0, i64 4, !dbg !646
  %91 = bitcast %struct.GEMM_STRUCT_VAL* %OPERANDS211 to i8*, !dbg !646
  %92 = bitcast %struct.GEMM_STRUCT_VAL* %arrayidx212 to i8*, !dbg !646
  %93 = call i8* @memcpy(i8* %91, i8* %92, i64 12), !dbg !646
  %arrayinit.element213 = getelementptr inbounds %struct.INSTR_VAL, %struct.INSTR_VAL* %arrayinit.element207, i64 1, !dbg !636
  %ID214 = getelementptr inbounds %struct.INSTR_VAL, %struct.INSTR_VAL* %arrayinit.element213, i32 0, i32 0, !dbg !647
  store i32 5, i32* %ID214, align 8, !dbg !647
  %OPCODE215 = getelementptr inbounds %struct.INSTR_VAL, %struct.INSTR_VAL* %arrayinit.element213, i32 0, i32 1, !dbg !647
  store i32 2, i32* %OPCODE215, align 4, !dbg !647
  %OPTYPE216 = getelementptr inbounds %struct.INSTR_VAL, %struct.INSTR_VAL* %arrayinit.element213, i32 0, i32 2, !dbg !647
  store i32 0, i32* %OPTYPE216, align 8, !dbg !647
  %OPERANDS217 = getelementptr inbounds %struct.INSTR_VAL, %struct.INSTR_VAL* %arrayinit.element213, i32 0, i32 3, !dbg !647
  %arrayidx218 = getelementptr inbounds [9 x %struct.GEMM_STRUCT_VAL], [9 x %struct.GEMM_STRUCT_VAL]* %gemm, i64 0, i64 5, !dbg !648
  %94 = bitcast %struct.GEMM_STRUCT_VAL* %OPERANDS217 to i8*, !dbg !648
  %95 = bitcast %struct.GEMM_STRUCT_VAL* %arrayidx218 to i8*, !dbg !648
  %96 = call i8* @memcpy(i8* %94, i8* %95, i64 12), !dbg !648
  %arrayinit.element219 = getelementptr inbounds %struct.INSTR_VAL, %struct.INSTR_VAL* %arrayinit.element213, i64 1, !dbg !636
  %ID220 = getelementptr inbounds %struct.INSTR_VAL, %struct.INSTR_VAL* %arrayinit.element219, i32 0, i32 0, !dbg !649
  store i32 6, i32* %ID220, align 8, !dbg !649
  %OPCODE221 = getelementptr inbounds %struct.INSTR_VAL, %struct.INSTR_VAL* %arrayinit.element219, i32 0, i32 1, !dbg !649
  store i32 2, i32* %OPCODE221, align 4, !dbg !649
  %OPTYPE222 = getelementptr inbounds %struct.INSTR_VAL, %struct.INSTR_VAL* %arrayinit.element219, i32 0, i32 2, !dbg !649
  store i32 0, i32* %OPTYPE222, align 8, !dbg !649
  %OPERANDS223 = getelementptr inbounds %struct.INSTR_VAL, %struct.INSTR_VAL* %arrayinit.element219, i32 0, i32 3, !dbg !649
  %arrayidx224 = getelementptr inbounds [9 x %struct.GEMM_STRUCT_VAL], [9 x %struct.GEMM_STRUCT_VAL]* %gemm, i64 0, i64 6, !dbg !650
  %97 = bitcast %struct.GEMM_STRUCT_VAL* %OPERANDS223 to i8*, !dbg !650
  %98 = bitcast %struct.GEMM_STRUCT_VAL* %arrayidx224 to i8*, !dbg !650
  %99 = call i8* @memcpy(i8* %97, i8* %98, i64 12), !dbg !650
  %arrayinit.element225 = getelementptr inbounds %struct.INSTR_VAL, %struct.INSTR_VAL* %arrayinit.element219, i64 1, !dbg !636
  %ID226 = getelementptr inbounds %struct.INSTR_VAL, %struct.INSTR_VAL* %arrayinit.element225, i32 0, i32 0, !dbg !651
  store i32 7, i32* %ID226, align 8, !dbg !651
  %OPCODE227 = getelementptr inbounds %struct.INSTR_VAL, %struct.INSTR_VAL* %arrayinit.element225, i32 0, i32 1, !dbg !651
  store i32 2, i32* %OPCODE227, align 4, !dbg !651
  %OPTYPE228 = getelementptr inbounds %struct.INSTR_VAL, %struct.INSTR_VAL* %arrayinit.element225, i32 0, i32 2, !dbg !651
  store i32 0, i32* %OPTYPE228, align 8, !dbg !651
  %OPERANDS229 = getelementptr inbounds %struct.INSTR_VAL, %struct.INSTR_VAL* %arrayinit.element225, i32 0, i32 3, !dbg !651
  %arrayidx230 = getelementptr inbounds [9 x %struct.GEMM_STRUCT_VAL], [9 x %struct.GEMM_STRUCT_VAL]* %gemm, i64 0, i64 7, !dbg !652
  %100 = bitcast %struct.GEMM_STRUCT_VAL* %OPERANDS229 to i8*, !dbg !652
  %101 = bitcast %struct.GEMM_STRUCT_VAL* %arrayidx230 to i8*, !dbg !652
  %102 = call i8* @memcpy(i8* %100, i8* %101, i64 12), !dbg !652
  %arrayinit.element231 = getelementptr inbounds %struct.INSTR_VAL, %struct.INSTR_VAL* %arrayinit.element225, i64 1, !dbg !636
  %ID232 = getelementptr inbounds %struct.INSTR_VAL, %struct.INSTR_VAL* %arrayinit.element231, i32 0, i32 0, !dbg !653
  store i32 8, i32* %ID232, align 8, !dbg !653
  %OPCODE233 = getelementptr inbounds %struct.INSTR_VAL, %struct.INSTR_VAL* %arrayinit.element231, i32 0, i32 1, !dbg !653
  store i32 2, i32* %OPCODE233, align 4, !dbg !653
  %OPTYPE234 = getelementptr inbounds %struct.INSTR_VAL, %struct.INSTR_VAL* %arrayinit.element231, i32 0, i32 2, !dbg !653
  store i32 0, i32* %OPTYPE234, align 8, !dbg !653
  %OPERANDS235 = getelementptr inbounds %struct.INSTR_VAL, %struct.INSTR_VAL* %arrayinit.element231, i32 0, i32 3, !dbg !653
  %arrayidx236 = getelementptr inbounds [9 x %struct.GEMM_STRUCT_VAL], [9 x %struct.GEMM_STRUCT_VAL]* %gemm, i64 0, i64 8, !dbg !654
  %103 = bitcast %struct.GEMM_STRUCT_VAL* %OPERANDS235 to i8*, !dbg !654
  %104 = bitcast %struct.GEMM_STRUCT_VAL* %arrayidx236 to i8*, !dbg !654
  %105 = call i8* @memcpy(i8* %103, i8* %104, i64 12), !dbg !654
  %106 = load i32, i32* %opcode, align 4, !dbg !655
  %cmp = icmp eq i32 %106, 2, !dbg !657
  %107 = load i32, i32* %op_type, align 4, !dbg !658
  %cmp237 = icmp eq i32 %107, 0, !dbg !659
  %or.cond = and i1 %cmp, %cmp237, !dbg !660
  br i1 %or.cond, label %if.then, label %if.end, !dbg !660

if.then:                                          ; preds = %entry
  %108 = bitcast %struct.INSTR* %agg.tmp to i8*, !dbg !661
  %109 = bitcast %struct.INSTR* %instruction to i8*, !dbg !661
  %110 = call i8* @memcpy(i8* %108, i8* %109, i64 40), !dbg !661
  %call = call i32* @_Z9base_gemm5INSTR(%struct.INSTR* byval(%struct.INSTR) align 8 %agg.tmp), !dbg !663
  store i32* %call, i32** %acc_mem_gemm, align 8, !dbg !664
  call void @llvm.dbg.declare(metadata i32* %i, metadata !665, metadata !DIExpression()), !dbg !667
  store i32 0, i32* %i, align 4, !dbg !667
  br label %for.cond, !dbg !668

for.cond:                                         ; preds = %for.body, %if.then
  %111 = load i32, i32* %i, align 4, !dbg !669
  %cmp238 = icmp slt i32 %111, 9, !dbg !671
  br i1 %cmp238, label %for.body, label %for.end, !dbg !672

for.body:                                         ; preds = %for.cond
  %112 = load i32*, i32** %acc_mem_gemm, align 8, !dbg !673
  %113 = load i32, i32* %i, align 4, !dbg !675
  %idxprom = sext i32 %113 to i64, !dbg !673
  %arrayidx239 = getelementptr inbounds i32, i32* %112, i64 %idxprom, !dbg !673
  %114 = load i32, i32* %arrayidx239, align 4, !dbg !673
  %115 = load i32, i32* %i, align 4, !dbg !676
  %idxprom240 = sext i32 %115 to i64, !dbg !677
  %arrayidx241 = getelementptr inbounds [9 x i32], [9 x i32]* %acc_stage1, i64 0, i64 %idxprom240, !dbg !677
  store i32 %114, i32* %arrayidx241, align 4, !dbg !678
  %116 = load i32, i32* %i, align 4, !dbg !679
  %inc = add nsw i32 %116, 1, !dbg !679
  store i32 %inc, i32* %i, align 4, !dbg !679
  br label %for.cond, !dbg !680, !llvm.loop !681

for.end:                                          ; preds = %for.cond
  call void @llvm.dbg.declare(metadata i32* %i242, metadata !683, metadata !DIExpression()), !dbg !685
  store i32 0, i32* %i242, align 4, !dbg !685
  br label %for.cond243, !dbg !686

for.cond243:                                      ; preds = %for.body245, %for.end
  %117 = load i32, i32* %i242, align 4, !dbg !687
  %cmp244 = icmp slt i32 %117, 9, !dbg !689
  br i1 %cmp244, label %for.body245, label %if.end, !dbg !690

for.body245:                                      ; preds = %for.cond243
  %118 = load i32, i32* %i242, align 4, !dbg !691
  %idxprom247 = sext i32 %118 to i64, !dbg !693
  %arrayidx248 = getelementptr inbounds [9 x %struct.INSTR], [9 x %struct.INSTR]* %microop, i64 0, i64 %idxprom247, !dbg !693
  %119 = bitcast %struct.INSTR* %agg.tmp246 to i8*, !dbg !693
  %120 = bitcast %struct.INSTR* %arrayidx248 to i8*, !dbg !693
  %121 = call i8* @memcpy(i8* %119, i8* %120, i64 40), !dbg !693
  %call249 = call i32* @_Z13micro_decoder5INSTR(%struct.INSTR* byval(%struct.INSTR) align 8 %agg.tmp246), !dbg !694
  store i32* %call249, i32** %acc_mem_ref, align 8, !dbg !695
  %122 = load i32*, i32** %acc_mem_ref, align 8, !dbg !696
  %123 = load i32, i32* %i242, align 4, !dbg !697
  %idxprom250 = sext i32 %123 to i64, !dbg !696
  %arrayidx251 = getelementptr inbounds i32, i32* %122, i64 %idxprom250, !dbg !696
  %124 = load i32, i32* %arrayidx251, align 4, !dbg !696
  %125 = load i32, i32* %i242, align 4, !dbg !698
  %idxprom252 = sext i32 %125 to i64, !dbg !699
  %arrayidx253 = getelementptr inbounds [9 x i32], [9 x i32]* %acc_stage2, i64 0, i64 %idxprom252, !dbg !699
  store i32 %124, i32* %arrayidx253, align 4, !dbg !700
  %126 = load i32, i32* %i242, align 4, !dbg !701
  %inc255 = add nsw i32 %126, 1, !dbg !701
  store i32 %inc255, i32* %i242, align 4, !dbg !701
  br label %for.cond243, !dbg !702, !llvm.loop !703

if.end:                                           ; preds = %for.cond243, %entry
  ret i32 0, !dbg !705
}

; Function Attrs: argmemonly nounwind
declare void @llvm.memcpy.p0i8.p0i8.i64(i8* nocapture writeonly, i8* nocapture readonly, i64, i1 immarg) #3

declare dso_local void @klee_make_symbolic(i8*, i64, i8*) #4

; Function Attrs: noinline nounwind uwtable
define dso_local i8* @memcpy(i8*, i8*, i64) #0 !dbg !706 {
  %4 = alloca i8*, align 8
  %5 = alloca i8*, align 8
  %6 = alloca i64, align 8
  %7 = alloca i8*, align 8
  %8 = alloca i8*, align 8
  store i8* %0, i8** %4, align 8
  call void @llvm.dbg.declare(metadata i8** %4, metadata !712, metadata !DIExpression()), !dbg !713
  store i8* %1, i8** %5, align 8
  call void @llvm.dbg.declare(metadata i8** %5, metadata !714, metadata !DIExpression()), !dbg !715
  store i64 %2, i64* %6, align 8
  call void @llvm.dbg.declare(metadata i64* %6, metadata !716, metadata !DIExpression()), !dbg !717
  call void @llvm.dbg.declare(metadata i8** %7, metadata !718, metadata !DIExpression()), !dbg !719
  %9 = load i8*, i8** %4, align 8, !dbg !720
  store i8* %9, i8** %7, align 8, !dbg !719
  call void @llvm.dbg.declare(metadata i8** %8, metadata !721, metadata !DIExpression()), !dbg !722
  %10 = load i8*, i8** %5, align 8, !dbg !723
  store i8* %10, i8** %8, align 8, !dbg !722
  br label %11, !dbg !724

11:                                               ; preds = %15, %3
  %12 = load i64, i64* %6, align 8, !dbg !725
  %13 = add i64 %12, -1, !dbg !725
  store i64 %13, i64* %6, align 8, !dbg !725
  %14 = icmp ugt i64 %12, 0, !dbg !726
  br i1 %14, label %15, label %21, !dbg !724

15:                                               ; preds = %11
  %16 = load i8*, i8** %8, align 8, !dbg !727
  %17 = getelementptr inbounds i8, i8* %16, i32 1, !dbg !727
  store i8* %17, i8** %8, align 8, !dbg !727
  %18 = load i8, i8* %16, align 1, !dbg !728
  %19 = load i8*, i8** %7, align 8, !dbg !729
  %20 = getelementptr inbounds i8, i8* %19, i32 1, !dbg !729
  store i8* %20, i8** %7, align 8, !dbg !729
  store i8 %18, i8* %19, align 1, !dbg !730
  br label %11, !dbg !724, !llvm.loop !731

21:                                               ; preds = %11
  %22 = load i8*, i8** %4, align 8, !dbg !732
  ret i8* %22, !dbg !733
}

attributes #0 = { noinline nounwind uwtable "correctly-rounded-divide-sqrt-fp-math"="false" "disable-tail-calls"="false" "less-precise-fpmad"="false" "min-legal-vector-width"="0" "no-frame-pointer-elim"="true" "no-frame-pointer-elim-non-leaf" "no-infs-fp-math"="false" "no-jump-tables"="false" "no-nans-fp-math"="false" "no-signed-zeros-fp-math"="false" "no-trapping-math"="false" "stack-protector-buffer-size"="8" "target-cpu"="x86-64" "target-features"="+cx8,+fxsr,+mmx,+sse,+sse2,+x87" "unsafe-fp-math"="false" "use-soft-float"="false" }
attributes #1 = { nounwind readnone speculatable }
attributes #2 = { noinline norecurse uwtable "correctly-rounded-divide-sqrt-fp-math"="false" "disable-tail-calls"="false" "less-precise-fpmad"="false" "min-legal-vector-width"="0" "no-frame-pointer-elim"="true" "no-frame-pointer-elim-non-leaf" "no-infs-fp-math"="false" "no-jump-tables"="false" "no-nans-fp-math"="false" "no-signed-zeros-fp-math"="false" "no-trapping-math"="false" "stack-protector-buffer-size"="8" "target-cpu"="x86-64" "target-features"="+cx8,+fxsr,+mmx,+sse,+sse2,+x87" "unsafe-fp-math"="false" "use-soft-float"="false" }
attributes #3 = { argmemonly nounwind }
attributes #4 = { "correctly-rounded-divide-sqrt-fp-math"="false" "disable-tail-calls"="false" "less-precise-fpmad"="false" "no-frame-pointer-elim"="true" "no-frame-pointer-elim-non-leaf" "no-infs-fp-math"="false" "no-nans-fp-math"="false" "no-signed-zeros-fp-math"="false" "no-trapping-math"="false" "stack-protector-buffer-size"="8" "target-cpu"="x86-64" "target-features"="+cx8,+fxsr,+mmx,+sse,+sse2,+x87" "unsafe-fp-math"="false" "use-soft-float"="false" }

!llvm.dbg.cu = !{!2, !124}
!llvm.module.flags = !{!126, !127, !128}
!llvm.ident = !{!129, !130}

!0 = !DIGlobalVariableExpression(var: !1, expr: !DIExpression())
!1 = distinct !DIGlobalVariable(name: "res_index", scope: !2, file: !3, line: 10, type: !15, isLocal: false, isDefinition: true)
!2 = distinct !DICompileUnit(language: DW_LANG_C_plus_plus, file: !3, producer: "clang version 9.0.1 (https://github.com/llvm/llvm-project.git c1a0a213378a458fbea1a5c77b315c7dce08fd05)", isOptimized: false, runtimeVersion: 0, emissionKind: FullDebug, enums: !4, globals: !5, imports: !31, nameTableKind: None)
!3 = !DIFile(filename: "gemm_klee.cpp", directory: "/home/klee/klee_src/examples/isra")
!4 = !{}
!5 = !{!0, !6, !12, !18, !21, !23, !25, !27, !29}
!6 = !DIGlobalVariableExpression(var: !7, expr: !DIExpression())
!7 = distinct !DIGlobalVariable(name: "result", scope: !2, file: !3, line: 11, type: !8, isLocal: false, isDefinition: true)
!8 = !DICompositeType(tag: DW_TAG_array_type, baseType: !9, size: 288, elements: !10)
!9 = !DIBasicType(name: "unsigned int", size: 32, encoding: DW_ATE_unsigned)
!10 = !{!11}
!11 = !DISubrange(count: 9)
!12 = !DIGlobalVariableExpression(var: !13, expr: !DIExpression())
!13 = distinct !DIGlobalVariable(name: "product", scope: !2, file: !3, line: 12, type: !14, isLocal: false, isDefinition: true)
!14 = !DICompositeType(tag: DW_TAG_array_type, baseType: !15, size: 288, elements: !16)
!15 = !DIBasicType(name: "int", size: 32, encoding: DW_ATE_signed)
!16 = !{!17, !17}
!17 = !DISubrange(count: 3)
!18 = !DIGlobalVariableExpression(var: !19, expr: !DIExpression())
!19 = distinct !DIGlobalVariable(name: "inp_mem", scope: !2, file: !3, line: 14, type: !20, isLocal: false, isDefinition: true)
!20 = !DICompositeType(tag: DW_TAG_array_type, baseType: !9, size: 288, elements: !16)
!21 = !DIGlobalVariableExpression(var: !22, expr: !DIExpression())
!22 = distinct !DIGlobalVariable(name: "wgt_mem", scope: !2, file: !3, line: 15, type: !20, isLocal: false, isDefinition: true)
!23 = !DIGlobalVariableExpression(var: !24, expr: !DIExpression())
!24 = distinct !DIGlobalVariable(name: "acc_mem", scope: !2, file: !3, line: 16, type: !20, isLocal: false, isDefinition: true)
!25 = !DIGlobalVariableExpression(var: !26, expr: !DIExpression())
!26 = distinct !DIGlobalVariable(name: "wgt_mem_prime", scope: !2, file: !3, line: 17, type: !20, isLocal: false, isDefinition: true)
!27 = !DIGlobalVariableExpression(var: !28, expr: !DIExpression())
!28 = distinct !DIGlobalVariable(name: "acc_mem_flat", scope: !2, file: !3, line: 18, type: !8, isLocal: false, isDefinition: true)
!29 = !DIGlobalVariableExpression(var: !30, expr: !DIExpression())
!30 = distinct !DIGlobalVariable(name: "acc_mem_base_flat", scope: !2, file: !3, line: 19, type: !8, isLocal: false, isDefinition: true)
!31 = !{!32, !45, !49, !55, !59, !63, !73, !77, !79, !81, !85, !89, !93, !97, !101, !103, !105, !107, !111, !115, !119, !121, !123}
!32 = !DIImportedEntity(tag: DW_TAG_imported_declaration, scope: !33, entity: !34, file: !44, line: 75)
!33 = !DINamespace(name: "std", scope: null)
!34 = !DISubprogram(name: "memchr", scope: !35, file: !35, line: 90, type: !36, flags: DIFlagPrototyped, spFlags: 0)
!35 = !DIFile(filename: "/usr/include/string.h", directory: "")
!36 = !DISubroutineType(types: !37)
!37 = !{!38, !39, !15, !41}
!38 = !DIDerivedType(tag: DW_TAG_pointer_type, baseType: null, size: 64)
!39 = !DIDerivedType(tag: DW_TAG_pointer_type, baseType: !40, size: 64)
!40 = !DIDerivedType(tag: DW_TAG_const_type, baseType: null)
!41 = !DIDerivedType(tag: DW_TAG_typedef, name: "size_t", file: !42, line: 46, baseType: !43)
!42 = !DIFile(filename: "/tmp/llvm-90-install_O_D_A/lib/clang/9.0.1/include/stddef.h", directory: "")
!43 = !DIBasicType(name: "long unsigned int", size: 64, encoding: DW_ATE_unsigned)
!44 = !DIFile(filename: "/usr/lib/gcc/x86_64-linux-gnu/7.5.0/../../../../include/c++/7.5.0/cstring", directory: "")
!45 = !DIImportedEntity(tag: DW_TAG_imported_declaration, scope: !33, entity: !46, file: !44, line: 76)
!46 = !DISubprogram(name: "memcmp", scope: !35, file: !35, line: 63, type: !47, flags: DIFlagPrototyped, spFlags: 0)
!47 = !DISubroutineType(types: !48)
!48 = !{!15, !39, !39, !41}
!49 = !DIImportedEntity(tag: DW_TAG_imported_declaration, scope: !33, entity: !50, file: !44, line: 77)
!50 = !DISubprogram(name: "memcpy", scope: !35, file: !35, line: 42, type: !51, flags: DIFlagPrototyped, spFlags: 0)
!51 = !DISubroutineType(types: !52)
!52 = !{!38, !53, !54, !41}
!53 = !DIDerivedType(tag: DW_TAG_restrict_type, baseType: !38)
!54 = !DIDerivedType(tag: DW_TAG_restrict_type, baseType: !39)
!55 = !DIImportedEntity(tag: DW_TAG_imported_declaration, scope: !33, entity: !56, file: !44, line: 78)
!56 = !DISubprogram(name: "memmove", scope: !35, file: !35, line: 46, type: !57, flags: DIFlagPrototyped, spFlags: 0)
!57 = !DISubroutineType(types: !58)
!58 = !{!38, !38, !39, !41}
!59 = !DIImportedEntity(tag: DW_TAG_imported_declaration, scope: !33, entity: !60, file: !44, line: 79)
!60 = !DISubprogram(name: "memset", scope: !35, file: !35, line: 60, type: !61, flags: DIFlagPrototyped, spFlags: 0)
!61 = !DISubroutineType(types: !62)
!62 = !{!38, !38, !15, !41}
!63 = !DIImportedEntity(tag: DW_TAG_imported_declaration, scope: !33, entity: !64, file: !44, line: 80)
!64 = !DISubprogram(name: "strcat", scope: !35, file: !35, line: 129, type: !65, flags: DIFlagPrototyped, spFlags: 0)
!65 = !DISubroutineType(types: !66)
!66 = !{!67, !69, !70}
!67 = !DIDerivedType(tag: DW_TAG_pointer_type, baseType: !68, size: 64)
!68 = !DIBasicType(name: "char", size: 8, encoding: DW_ATE_signed_char)
!69 = !DIDerivedType(tag: DW_TAG_restrict_type, baseType: !67)
!70 = !DIDerivedType(tag: DW_TAG_restrict_type, baseType: !71)
!71 = !DIDerivedType(tag: DW_TAG_pointer_type, baseType: !72, size: 64)
!72 = !DIDerivedType(tag: DW_TAG_const_type, baseType: !68)
!73 = !DIImportedEntity(tag: DW_TAG_imported_declaration, scope: !33, entity: !74, file: !44, line: 81)
!74 = !DISubprogram(name: "strcmp", scope: !35, file: !35, line: 136, type: !75, flags: DIFlagPrototyped, spFlags: 0)
!75 = !DISubroutineType(types: !76)
!76 = !{!15, !71, !71}
!77 = !DIImportedEntity(tag: DW_TAG_imported_declaration, scope: !33, entity: !78, file: !44, line: 82)
!78 = !DISubprogram(name: "strcoll", scope: !35, file: !35, line: 143, type: !75, flags: DIFlagPrototyped, spFlags: 0)
!79 = !DIImportedEntity(tag: DW_TAG_imported_declaration, scope: !33, entity: !80, file: !44, line: 83)
!80 = !DISubprogram(name: "strcpy", scope: !35, file: !35, line: 121, type: !65, flags: DIFlagPrototyped, spFlags: 0)
!81 = !DIImportedEntity(tag: DW_TAG_imported_declaration, scope: !33, entity: !82, file: !44, line: 84)
!82 = !DISubprogram(name: "strcspn", scope: !35, file: !35, line: 272, type: !83, flags: DIFlagPrototyped, spFlags: 0)
!83 = !DISubroutineType(types: !84)
!84 = !{!41, !71, !71}
!85 = !DIImportedEntity(tag: DW_TAG_imported_declaration, scope: !33, entity: !86, file: !44, line: 85)
!86 = !DISubprogram(name: "strerror", scope: !35, file: !35, line: 396, type: !87, flags: DIFlagPrototyped, spFlags: 0)
!87 = !DISubroutineType(types: !88)
!88 = !{!67, !15}
!89 = !DIImportedEntity(tag: DW_TAG_imported_declaration, scope: !33, entity: !90, file: !44, line: 86)
!90 = !DISubprogram(name: "strlen", scope: !35, file: !35, line: 384, type: !91, flags: DIFlagPrototyped, spFlags: 0)
!91 = !DISubroutineType(types: !92)
!92 = !{!41, !71}
!93 = !DIImportedEntity(tag: DW_TAG_imported_declaration, scope: !33, entity: !94, file: !44, line: 87)
!94 = !DISubprogram(name: "strncat", scope: !35, file: !35, line: 132, type: !95, flags: DIFlagPrototyped, spFlags: 0)
!95 = !DISubroutineType(types: !96)
!96 = !{!67, !69, !70, !41}
!97 = !DIImportedEntity(tag: DW_TAG_imported_declaration, scope: !33, entity: !98, file: !44, line: 88)
!98 = !DISubprogram(name: "strncmp", scope: !35, file: !35, line: 139, type: !99, flags: DIFlagPrototyped, spFlags: 0)
!99 = !DISubroutineType(types: !100)
!100 = !{!15, !71, !71, !41}
!101 = !DIImportedEntity(tag: DW_TAG_imported_declaration, scope: !33, entity: !102, file: !44, line: 89)
!102 = !DISubprogram(name: "strncpy", scope: !35, file: !35, line: 124, type: !95, flags: DIFlagPrototyped, spFlags: 0)
!103 = !DIImportedEntity(tag: DW_TAG_imported_declaration, scope: !33, entity: !104, file: !44, line: 90)
!104 = !DISubprogram(name: "strspn", scope: !35, file: !35, line: 276, type: !83, flags: DIFlagPrototyped, spFlags: 0)
!105 = !DIImportedEntity(tag: DW_TAG_imported_declaration, scope: !33, entity: !106, file: !44, line: 91)
!106 = !DISubprogram(name: "strtok", scope: !35, file: !35, line: 335, type: !65, flags: DIFlagPrototyped, spFlags: 0)
!107 = !DIImportedEntity(tag: DW_TAG_imported_declaration, scope: !33, entity: !108, file: !44, line: 92)
!108 = !DISubprogram(name: "strxfrm", scope: !35, file: !35, line: 146, type: !109, flags: DIFlagPrototyped, spFlags: 0)
!109 = !DISubroutineType(types: !110)
!110 = !{!41, !69, !70, !41}
!111 = !DIImportedEntity(tag: DW_TAG_imported_declaration, scope: !33, entity: !112, file: !44, line: 93)
!112 = !DISubprogram(name: "strchr", scope: !35, file: !35, line: 225, type: !113, flags: DIFlagPrototyped, spFlags: 0)
!113 = !DISubroutineType(types: !114)
!114 = !{!67, !71, !15}
!115 = !DIImportedEntity(tag: DW_TAG_imported_declaration, scope: !33, entity: !116, file: !44, line: 94)
!116 = !DISubprogram(name: "strpbrk", scope: !35, file: !35, line: 302, type: !117, flags: DIFlagPrototyped, spFlags: 0)
!117 = !DISubroutineType(types: !118)
!118 = !{!67, !71, !71}
!119 = !DIImportedEntity(tag: DW_TAG_imported_declaration, scope: !33, entity: !120, file: !44, line: 95)
!120 = !DISubprogram(name: "strrchr", scope: !35, file: !35, line: 252, type: !113, flags: DIFlagPrototyped, spFlags: 0)
!121 = !DIImportedEntity(tag: DW_TAG_imported_declaration, scope: !33, entity: !122, file: !44, line: 96)
!122 = !DISubprogram(name: "strstr", scope: !35, file: !35, line: 329, type: !117, flags: DIFlagPrototyped, spFlags: 0)
!123 = !DIImportedEntity(tag: DW_TAG_imported_module, scope: !2, entity: !33, file: !3, line: 7)
!124 = distinct !DICompileUnit(language: DW_LANG_C99, file: !125, producer: "clang version 9.0.0-2~ubuntu18.04.2 (tags/RELEASE_900/final)", isOptimized: false, runtimeVersion: 0, emissionKind: FullDebug, enums: !4, nameTableKind: None)
!125 = !DIFile(filename: "/tmp/klee_src/runtime/Freestanding/memcpy.c", directory: "/tmp/klee_build90stp_z3/runtime/Freestanding")
!126 = !{i32 2, !"Dwarf Version", i32 4}
!127 = !{i32 2, !"Debug Info Version", i32 3}
!128 = !{i32 1, !"wchar_size", i32 4}
!129 = !{!"clang version 9.0.1 (https://github.com/llvm/llvm-project.git c1a0a213378a458fbea1a5c77b315c7dce08fd05)"}
!130 = !{!"clang version 9.0.0-2~ubuntu18.04.2 (tags/RELEASE_900/final)"}
!131 = distinct !DISubprogram(name: "transpose", linkageName: "_Z9transposePA3_jS0_", scope: !3, file: !3, line: 22, type: !132, scopeLine: 23, flags: DIFlagPrototyped, spFlags: DISPFlagDefinition, unit: !2, retainedNodes: !4)
!132 = !DISubroutineType(types: !133)
!133 = !{null, !134, !134}
!134 = !DIDerivedType(tag: DW_TAG_pointer_type, baseType: !135, size: 64)
!135 = !DICompositeType(tag: DW_TAG_array_type, baseType: !9, size: 96, elements: !136)
!136 = !{!17}
!137 = !DILocalVariable(name: "wgt_mem", arg: 1, scope: !131, file: !3, line: 22, type: !134)
!138 = !DILocation(line: 22, column: 29, scope: !131)
!139 = !DILocalVariable(name: "wgt_mem_prime", arg: 2, scope: !131, file: !3, line: 22, type: !134)
!140 = !DILocation(line: 22, column: 58, scope: !131)
!141 = !DILocalVariable(name: "i", scope: !131, file: !3, line: 24, type: !15)
!142 = !DILocation(line: 24, column: 9, scope: !131)
!143 = !DILocalVariable(name: "j", scope: !131, file: !3, line: 24, type: !15)
!144 = !DILocation(line: 24, column: 12, scope: !131)
!145 = !DILocation(line: 25, column: 12, scope: !146)
!146 = distinct !DILexicalBlock(scope: !131, file: !3, line: 25, column: 5)
!147 = !DILocation(line: 25, column: 10, scope: !146)
!148 = !DILocation(line: 25, column: 17, scope: !149)
!149 = distinct !DILexicalBlock(scope: !146, file: !3, line: 25, column: 5)
!150 = !DILocation(line: 25, column: 19, scope: !149)
!151 = !DILocation(line: 25, column: 5, scope: !146)
!152 = !DILocation(line: 26, column: 16, scope: !153)
!153 = distinct !DILexicalBlock(scope: !149, file: !3, line: 26, column: 9)
!154 = !DILocation(line: 26, column: 14, scope: !153)
!155 = !DILocation(line: 26, column: 21, scope: !156)
!156 = distinct !DILexicalBlock(scope: !153, file: !3, line: 26, column: 9)
!157 = !DILocation(line: 26, column: 23, scope: !156)
!158 = !DILocation(line: 26, column: 9, scope: !153)
!159 = !DILocation(line: 27, column: 35, scope: !156)
!160 = !DILocation(line: 27, column: 43, scope: !156)
!161 = !DILocation(line: 27, column: 46, scope: !156)
!162 = !DILocation(line: 27, column: 13, scope: !156)
!163 = !DILocation(line: 27, column: 27, scope: !156)
!164 = !DILocation(line: 27, column: 30, scope: !156)
!165 = !DILocation(line: 27, column: 33, scope: !156)
!166 = !DILocation(line: 26, column: 31, scope: !156)
!167 = !DILocation(line: 26, column: 9, scope: !156)
!168 = distinct !{!168, !158, !169}
!169 = !DILocation(line: 27, column: 47, scope: !153)
!170 = !DILocation(line: 25, column: 27, scope: !149)
!171 = !DILocation(line: 25, column: 5, scope: !149)
!172 = distinct !{!172, !151, !173}
!173 = !DILocation(line: 27, column: 47, scope: !146)
!174 = !DILocation(line: 28, column: 1, scope: !131)
!175 = distinct !DISubprogram(name: "matrixMultiply", linkageName: "_Z14matrixMultiplyPjS_", scope: !3, file: !3, line: 30, type: !176, scopeLine: 31, flags: DIFlagPrototyped, spFlags: DISPFlagDefinition, unit: !2, retainedNodes: !4)
!176 = !DISubroutineType(types: !177)
!177 = !{!178, !178, !178}
!178 = !DIDerivedType(tag: DW_TAG_pointer_type, baseType: !9, size: 64)
!179 = !DILocalVariable(name: "mat1", arg: 1, scope: !175, file: !3, line: 30, type: !178)
!180 = !DILocation(line: 30, column: 43, scope: !175)
!181 = !DILocalVariable(name: "mat2", arg: 2, scope: !175, file: !3, line: 30, type: !178)
!182 = !DILocation(line: 30, column: 64, scope: !175)
!183 = !DILocalVariable(name: "res", scope: !175, file: !3, line: 32, type: !9)
!184 = !DILocation(line: 32, column: 18, scope: !175)
!185 = !DILocalVariable(name: "i", scope: !186, file: !3, line: 33, type: !15)
!186 = distinct !DILexicalBlock(scope: !175, file: !3, line: 33, column: 5)
!187 = !DILocation(line: 33, column: 13, scope: !186)
!188 = !DILocation(line: 33, column: 9, scope: !186)
!189 = !DILocation(line: 33, column: 20, scope: !190)
!190 = distinct !DILexicalBlock(scope: !186, file: !3, line: 33, column: 5)
!191 = !DILocation(line: 33, column: 22, scope: !190)
!192 = !DILocation(line: 33, column: 5, scope: !186)
!193 = !DILocation(line: 35, column: 16, scope: !194)
!194 = distinct !DILexicalBlock(scope: !190, file: !3, line: 34, column: 5)
!195 = !DILocation(line: 35, column: 21, scope: !194)
!196 = !DILocation(line: 35, column: 26, scope: !194)
!197 = !DILocation(line: 35, column: 31, scope: !194)
!198 = !DILocation(line: 35, column: 24, scope: !194)
!199 = !DILocation(line: 35, column: 13, scope: !194)
!200 = !DILocation(line: 33, column: 28, scope: !190)
!201 = !DILocation(line: 33, column: 5, scope: !190)
!202 = distinct !{!202, !192, !203}
!203 = !DILocation(line: 36, column: 5, scope: !186)
!204 = !DILocation(line: 37, column: 25, scope: !175)
!205 = !DILocation(line: 37, column: 12, scope: !175)
!206 = !DILocation(line: 37, column: 5, scope: !175)
!207 = !DILocation(line: 37, column: 23, scope: !175)
!208 = !DILocation(line: 38, column: 14, scope: !175)
!209 = !DILocation(line: 39, column: 5, scope: !175)
!210 = distinct !DISubprogram(name: "micro_decoder", linkageName: "_Z13micro_decoder5INSTR", scope: !3, file: !3, line: 58, type: !211, scopeLine: 59, flags: DIFlagPrototyped, spFlags: DISPFlagDefinition, unit: !2, retainedNodes: !4)
!211 = !DISubroutineType(types: !212)
!212 = !{!178, !213}
!213 = distinct !DICompositeType(tag: DW_TAG_structure_type, name: "INSTR", file: !214, line: 23, size: 320, flags: DIFlagTypePassByValue, elements: !215, identifier: "_ZTS5INSTR")
!214 = !DIFile(filename: "./gemm_var.h", directory: "/home/klee/klee_src/examples/isra")
!215 = !{!216, !217, !218, !219}
!216 = !DIDerivedType(tag: DW_TAG_member, name: "ID", scope: !213, file: !214, line: 24, baseType: !9, size: 32)
!217 = !DIDerivedType(tag: DW_TAG_member, name: "OPCODE", scope: !213, file: !214, line: 25, baseType: !9, size: 32, offset: 32)
!218 = !DIDerivedType(tag: DW_TAG_member, name: "OPTYPE", scope: !213, file: !214, line: 26, baseType: !9, size: 32, offset: 64)
!219 = !DIDerivedType(tag: DW_TAG_member, name: "OPERANDS", scope: !213, file: !214, line: 27, baseType: !220, size: 192, offset: 128)
!220 = distinct !DICompositeType(tag: DW_TAG_structure_type, name: "GEMM_STRUCT_REF", file: !214, line: 5, size: 192, flags: DIFlagTypePassByValue, elements: !221, identifier: "_ZTS15GEMM_STRUCT_REF")
!221 = !{!222, !223, !224}
!222 = !DIDerivedType(tag: DW_TAG_member, name: "inp_mem", scope: !220, file: !214, line: 6, baseType: !178, size: 64)
!223 = !DIDerivedType(tag: DW_TAG_member, name: "wgt_mem", scope: !220, file: !214, line: 7, baseType: !178, size: 64, offset: 64)
!224 = !DIDerivedType(tag: DW_TAG_member, name: "acc_mem", scope: !220, file: !214, line: 8, baseType: !178, size: 64, offset: 128)
!225 = !DILocalVariable(name: "instr", arg: 1, scope: !210, file: !3, line: 58, type: !213)
!226 = !DILocation(line: 58, column: 35, scope: !210)
!227 = !DILocalVariable(name: "arr_ref", scope: !210, file: !3, line: 60, type: !178)
!228 = !DILocation(line: 60, column: 20, scope: !210)
!229 = !DILocalVariable(name: "inp", scope: !210, file: !3, line: 61, type: !135)
!230 = !DILocation(line: 61, column: 18, scope: !210)
!231 = !DILocalVariable(name: "wgt", scope: !210, file: !3, line: 61, type: !135)
!232 = !DILocation(line: 61, column: 26, scope: !210)
!233 = !DILocation(line: 62, column: 14, scope: !234)
!234 = distinct !DILexicalBlock(scope: !210, file: !3, line: 62, column: 8)
!235 = !DILocation(line: 62, column: 20, scope: !234)
!236 = !DILocation(line: 62, column: 8, scope: !210)
!237 = !DILocalVariable(name: "i", scope: !238, file: !3, line: 63, type: !15)
!238 = distinct !DILexicalBlock(scope: !239, file: !3, line: 63, column: 9)
!239 = distinct !DILexicalBlock(scope: !234, file: !3, line: 62, column: 25)
!240 = !DILocation(line: 63, column: 18, scope: !238)
!241 = !DILocation(line: 63, column: 14, scope: !238)
!242 = !DILocation(line: 63, column: 25, scope: !243)
!243 = distinct !DILexicalBlock(scope: !238, file: !3, line: 63, column: 9)
!244 = !DILocation(line: 63, column: 27, scope: !243)
!245 = !DILocation(line: 63, column: 9, scope: !238)
!246 = !DILocation(line: 64, column: 30, scope: !247)
!247 = distinct !DILexicalBlock(scope: !243, file: !3, line: 63, column: 37)
!248 = !DILocation(line: 64, column: 39, scope: !247)
!249 = !DILocation(line: 64, column: 49, scope: !247)
!250 = !DILocation(line: 64, column: 47, scope: !247)
!251 = !DILocation(line: 64, column: 22, scope: !247)
!252 = !DILocation(line: 64, column: 17, scope: !247)
!253 = !DILocation(line: 64, column: 13, scope: !247)
!254 = !DILocation(line: 64, column: 20, scope: !247)
!255 = !DILocation(line: 63, column: 33, scope: !243)
!256 = !DILocation(line: 63, column: 9, scope: !243)
!257 = distinct !{!257, !245, !258}
!258 = !DILocation(line: 65, column: 9, scope: !238)
!259 = !DILocalVariable(name: "i", scope: !260, file: !3, line: 66, type: !15)
!260 = distinct !DILexicalBlock(scope: !239, file: !3, line: 66, column: 9)
!261 = !DILocation(line: 66, column: 18, scope: !260)
!262 = !DILocation(line: 66, column: 14, scope: !260)
!263 = !DILocation(line: 66, column: 25, scope: !264)
!264 = distinct !DILexicalBlock(scope: !260, file: !3, line: 66, column: 9)
!265 = !DILocation(line: 66, column: 27, scope: !264)
!266 = !DILocation(line: 66, column: 9, scope: !260)
!267 = !DILocation(line: 67, column: 30, scope: !268)
!268 = distinct !DILexicalBlock(scope: !264, file: !3, line: 66, column: 37)
!269 = !DILocation(line: 67, column: 39, scope: !268)
!270 = !DILocation(line: 67, column: 49, scope: !268)
!271 = !DILocation(line: 67, column: 47, scope: !268)
!272 = !DILocation(line: 67, column: 22, scope: !268)
!273 = !DILocation(line: 67, column: 17, scope: !268)
!274 = !DILocation(line: 67, column: 13, scope: !268)
!275 = !DILocation(line: 67, column: 20, scope: !268)
!276 = !DILocation(line: 66, column: 33, scope: !264)
!277 = !DILocation(line: 66, column: 9, scope: !264)
!278 = distinct !{!278, !266, !279}
!279 = !DILocation(line: 68, column: 9, scope: !260)
!280 = !DILocation(line: 69, column: 34, scope: !239)
!281 = !DILocation(line: 69, column: 39, scope: !239)
!282 = !DILocation(line: 69, column: 19, scope: !239)
!283 = !DILocation(line: 69, column: 17, scope: !239)
!284 = !DILocation(line: 70, column: 5, scope: !239)
!285 = !DILocation(line: 71, column: 16, scope: !210)
!286 = !DILocation(line: 71, column: 9, scope: !210)
!287 = distinct !DISubprogram(name: "micro_decoder_val", linkageName: "_Z17micro_decoder_val9INSTR_VAL", scope: !3, file: !3, line: 74, type: !288, scopeLine: 75, flags: DIFlagPrototyped, spFlags: DISPFlagDefinition, unit: !2, retainedNodes: !4)
!288 = !DISubroutineType(types: !289)
!289 = !{!178, !290}
!290 = distinct !DICompositeType(tag: DW_TAG_structure_type, name: "INSTR_VAL", file: !214, line: 37, size: 192, flags: DIFlagTypePassByValue, elements: !291, identifier: "_ZTS9INSTR_VAL")
!291 = !{!292, !293, !294, !295}
!292 = !DIDerivedType(tag: DW_TAG_member, name: "ID", scope: !290, file: !214, line: 38, baseType: !9, size: 32)
!293 = !DIDerivedType(tag: DW_TAG_member, name: "OPCODE", scope: !290, file: !214, line: 39, baseType: !9, size: 32, offset: 32)
!294 = !DIDerivedType(tag: DW_TAG_member, name: "OPTYPE", scope: !290, file: !214, line: 40, baseType: !9, size: 32, offset: 64)
!295 = !DIDerivedType(tag: DW_TAG_member, name: "OPERANDS", scope: !290, file: !214, line: 41, baseType: !296, size: 96, offset: 96)
!296 = distinct !DICompositeType(tag: DW_TAG_structure_type, name: "GEMM_STRUCT_VAL", file: !214, line: 17, size: 96, flags: DIFlagTypePassByValue, elements: !297, identifier: "_ZTS15GEMM_STRUCT_VAL")
!297 = !{!298, !299, !300}
!298 = !DIDerivedType(tag: DW_TAG_member, name: "inp_mem", scope: !296, file: !214, line: 18, baseType: !9, size: 32)
!299 = !DIDerivedType(tag: DW_TAG_member, name: "wgt_mem", scope: !296, file: !214, line: 19, baseType: !9, size: 32, offset: 32)
!300 = !DIDerivedType(tag: DW_TAG_member, name: "acc_mem", scope: !296, file: !214, line: 20, baseType: !9, size: 32, offset: 64)
!301 = !DILocalVariable(name: "instr", arg: 1, scope: !287, file: !3, line: 74, type: !290)
!302 = !DILocation(line: 74, column: 43, scope: !287)
!303 = !DILocalVariable(name: "arr_val", scope: !287, file: !3, line: 76, type: !178)
!304 = !DILocation(line: 76, column: 20, scope: !287)
!305 = !DILocalVariable(name: "inp", scope: !287, file: !3, line: 77, type: !135)
!306 = !DILocation(line: 77, column: 18, scope: !287)
!307 = !DILocalVariable(name: "wgt", scope: !287, file: !3, line: 77, type: !135)
!308 = !DILocation(line: 77, column: 26, scope: !287)
!309 = !DILocation(line: 78, column: 14, scope: !310)
!310 = distinct !DILexicalBlock(scope: !287, file: !3, line: 78, column: 8)
!311 = !DILocation(line: 78, column: 20, scope: !310)
!312 = !DILocation(line: 78, column: 8, scope: !287)
!313 = !DILocalVariable(name: "i", scope: !314, file: !3, line: 79, type: !15)
!314 = distinct !DILexicalBlock(scope: !315, file: !3, line: 79, column: 9)
!315 = distinct !DILexicalBlock(scope: !310, file: !3, line: 78, column: 25)
!316 = !DILocation(line: 79, column: 18, scope: !314)
!317 = !DILocation(line: 79, column: 14, scope: !314)
!318 = !DILocation(line: 79, column: 25, scope: !319)
!319 = distinct !DILexicalBlock(scope: !314, file: !3, line: 79, column: 9)
!320 = !DILocation(line: 79, column: 27, scope: !319)
!321 = !DILocation(line: 79, column: 9, scope: !314)
!322 = !DILocation(line: 80, column: 28, scope: !323)
!323 = distinct !DILexicalBlock(scope: !319, file: !3, line: 79, column: 37)
!324 = !DILocation(line: 80, column: 37, scope: !323)
!325 = !DILocation(line: 80, column: 47, scope: !323)
!326 = !DILocation(line: 80, column: 45, scope: !323)
!327 = !DILocation(line: 80, column: 17, scope: !323)
!328 = !DILocation(line: 80, column: 13, scope: !323)
!329 = !DILocation(line: 80, column: 20, scope: !323)
!330 = !DILocation(line: 79, column: 33, scope: !319)
!331 = !DILocation(line: 79, column: 9, scope: !319)
!332 = distinct !{!332, !321, !333}
!333 = !DILocation(line: 81, column: 9, scope: !314)
!334 = !DILocalVariable(name: "i", scope: !335, file: !3, line: 82, type: !15)
!335 = distinct !DILexicalBlock(scope: !315, file: !3, line: 82, column: 9)
!336 = !DILocation(line: 82, column: 18, scope: !335)
!337 = !DILocation(line: 82, column: 14, scope: !335)
!338 = !DILocation(line: 82, column: 25, scope: !339)
!339 = distinct !DILexicalBlock(scope: !335, file: !3, line: 82, column: 9)
!340 = !DILocation(line: 82, column: 27, scope: !339)
!341 = !DILocation(line: 82, column: 9, scope: !335)
!342 = !DILocation(line: 83, column: 28, scope: !343)
!343 = distinct !DILexicalBlock(scope: !339, file: !3, line: 82, column: 37)
!344 = !DILocation(line: 83, column: 37, scope: !343)
!345 = !DILocation(line: 83, column: 17, scope: !343)
!346 = !DILocation(line: 83, column: 13, scope: !343)
!347 = !DILocation(line: 83, column: 20, scope: !343)
!348 = !DILocation(line: 82, column: 33, scope: !339)
!349 = !DILocation(line: 82, column: 9, scope: !339)
!350 = distinct !{!350, !341, !351}
!351 = !DILocation(line: 84, column: 9, scope: !335)
!352 = !DILocation(line: 85, column: 34, scope: !315)
!353 = !DILocation(line: 85, column: 39, scope: !315)
!354 = !DILocation(line: 85, column: 19, scope: !315)
!355 = !DILocation(line: 85, column: 17, scope: !315)
!356 = !DILocation(line: 86, column: 5, scope: !315)
!357 = !DILocation(line: 87, column: 12, scope: !287)
!358 = !DILocation(line: 87, column: 5, scope: !287)
!359 = distinct !DISubprogram(name: "base_gemm", linkageName: "_Z9base_gemm5INSTR", scope: !3, file: !3, line: 90, type: !211, scopeLine: 90, flags: DIFlagPrototyped, spFlags: DISPFlagDefinition, unit: !2, retainedNodes: !4)
!360 = !DILocalVariable(name: "myinsn", arg: 1, scope: !359, file: !3, line: 90, type: !213)
!361 = !DILocation(line: 90, column: 32, scope: !359)
!362 = !DILocalVariable(name: "row", scope: !359, file: !3, line: 91, type: !9)
!363 = !DILocation(line: 91, column: 18, scope: !359)
!364 = !DILocalVariable(name: "col", scope: !359, file: !3, line: 91, type: !9)
!365 = !DILocation(line: 91, column: 23, scope: !359)
!366 = !DILocalVariable(name: "i", scope: !359, file: !3, line: 91, type: !9)
!367 = !DILocation(line: 91, column: 28, scope: !359)
!368 = !DILocalVariable(name: "sum", scope: !359, file: !3, line: 92, type: !9)
!369 = !DILocation(line: 92, column: 18, scope: !359)
!370 = !DILocation(line: 93, column: 15, scope: !371)
!371 = distinct !DILexicalBlock(scope: !359, file: !3, line: 93, column: 8)
!372 = !DILocation(line: 93, column: 21, scope: !371)
!373 = !DILocation(line: 93, column: 8, scope: !359)
!374 = !DILocation(line: 94, column: 18, scope: !375)
!375 = distinct !DILexicalBlock(scope: !376, file: !3, line: 94, column: 9)
!376 = distinct !DILexicalBlock(scope: !371, file: !3, line: 93, column: 26)
!377 = !DILocation(line: 94, column: 14, scope: !375)
!378 = !DILocation(line: 94, column: 23, scope: !379)
!379 = distinct !DILexicalBlock(scope: !375, file: !3, line: 94, column: 9)
!380 = !DILocation(line: 94, column: 27, scope: !379)
!381 = !DILocation(line: 94, column: 9, scope: !375)
!382 = !DILocation(line: 95, column: 22, scope: !383)
!383 = distinct !DILexicalBlock(scope: !384, file: !3, line: 95, column: 13)
!384 = distinct !DILexicalBlock(scope: !379, file: !3, line: 94, column: 41)
!385 = !DILocation(line: 95, column: 18, scope: !383)
!386 = !DILocation(line: 95, column: 27, scope: !387)
!387 = distinct !DILexicalBlock(scope: !383, file: !3, line: 95, column: 13)
!388 = !DILocation(line: 95, column: 31, scope: !387)
!389 = !DILocation(line: 95, column: 13, scope: !383)
!390 = !DILocation(line: 96, column: 21, scope: !391)
!391 = distinct !DILexicalBlock(scope: !387, file: !3, line: 95, column: 45)
!392 = !DILocation(line: 97, column: 24, scope: !393)
!393 = distinct !DILexicalBlock(scope: !391, file: !3, line: 97, column: 17)
!394 = !DILocation(line: 97, column: 22, scope: !393)
!395 = !DILocation(line: 97, column: 29, scope: !396)
!396 = distinct !DILexicalBlock(scope: !393, file: !3, line: 97, column: 17)
!397 = !DILocation(line: 97, column: 31, scope: !396)
!398 = !DILocation(line: 97, column: 17, scope: !393)
!399 = !DILocation(line: 98, column: 43, scope: !400)
!400 = distinct !DILexicalBlock(scope: !396, file: !3, line: 97, column: 43)
!401 = !DILocation(line: 98, column: 41, scope: !400)
!402 = !DILocation(line: 98, column: 31, scope: !400)
!403 = !DILocation(line: 98, column: 50, scope: !400)
!404 = !DILocation(line: 98, column: 48, scope: !400)
!405 = !DILocation(line: 98, column: 29, scope: !400)
!406 = !DILocation(line: 98, column: 71, scope: !400)
!407 = !DILocation(line: 98, column: 69, scope: !400)
!408 = !DILocation(line: 98, column: 59, scope: !400)
!409 = !DILocation(line: 98, column: 76, scope: !400)
!410 = !DILocation(line: 98, column: 74, scope: !400)
!411 = !DILocation(line: 98, column: 57, scope: !400)
!412 = !DILocation(line: 98, column: 54, scope: !400)
!413 = !DILocation(line: 98, column: 25, scope: !400)
!414 = !DILocation(line: 97, column: 39, scope: !396)
!415 = !DILocation(line: 97, column: 17, scope: !396)
!416 = distinct !{!416, !398, !417}
!417 = !DILocation(line: 99, column: 17, scope: !393)
!418 = !DILocation(line: 100, column: 45, scope: !391)
!419 = !DILocation(line: 100, column: 31, scope: !391)
!420 = !DILocation(line: 100, column: 29, scope: !391)
!421 = !DILocation(line: 100, column: 19, scope: !391)
!422 = !DILocation(line: 100, column: 38, scope: !391)
!423 = !DILocation(line: 100, column: 36, scope: !391)
!424 = !DILocation(line: 100, column: 43, scope: !391)
!425 = !DILocation(line: 95, column: 41, scope: !387)
!426 = !DILocation(line: 95, column: 13, scope: !387)
!427 = distinct !{!427, !389, !428}
!428 = !DILocation(line: 101, column: 13, scope: !383)
!429 = !DILocation(line: 94, column: 37, scope: !379)
!430 = !DILocation(line: 94, column: 9, scope: !379)
!431 = distinct !{!431, !381, !432}
!432 = !DILocation(line: 102, column: 9, scope: !375)
!433 = !DILocalVariable(name: "i", scope: !434, file: !3, line: 103, type: !15)
!434 = distinct !DILexicalBlock(scope: !376, file: !3, line: 103, column: 9)
!435 = !DILocation(line: 103, column: 18, scope: !434)
!436 = !DILocation(line: 103, column: 14, scope: !434)
!437 = !DILocation(line: 103, column: 25, scope: !438)
!438 = distinct !DILexicalBlock(scope: !434, file: !3, line: 103, column: 9)
!439 = !DILocation(line: 103, column: 27, scope: !438)
!440 = !DILocation(line: 103, column: 9, scope: !434)
!441 = !DILocalVariable(name: "j", scope: !442, file: !3, line: 104, type: !15)
!442 = distinct !DILexicalBlock(scope: !443, file: !3, line: 104, column: 13)
!443 = distinct !DILexicalBlock(scope: !438, file: !3, line: 103, column: 39)
!444 = !DILocation(line: 104, column: 22, scope: !442)
!445 = !DILocation(line: 104, column: 18, scope: !442)
!446 = !DILocation(line: 104, column: 29, scope: !447)
!447 = distinct !DILexicalBlock(scope: !442, file: !3, line: 104, column: 13)
!448 = !DILocation(line: 104, column: 31, scope: !447)
!449 = !DILocation(line: 0, scope: !438)
!450 = !DILocation(line: 104, column: 13, scope: !442)
!451 = !DILocation(line: 105, column: 50, scope: !452)
!452 = distinct !DILexicalBlock(scope: !447, file: !3, line: 104, column: 43)
!453 = !DILocation(line: 105, column: 61, scope: !452)
!454 = !DILocation(line: 105, column: 35, scope: !452)
!455 = !DILocation(line: 105, column: 37, scope: !452)
!456 = !DILocation(line: 105, column: 45, scope: !452)
!457 = !DILocation(line: 105, column: 43, scope: !452)
!458 = !DILocation(line: 105, column: 17, scope: !452)
!459 = !DILocation(line: 105, column: 48, scope: !452)
!460 = !DILocation(line: 104, column: 39, scope: !447)
!461 = !DILocation(line: 104, column: 13, scope: !447)
!462 = distinct !{!462, !450, !463}
!463 = !DILocation(line: 106, column: 13, scope: !442)
!464 = !DILocation(line: 103, column: 35, scope: !438)
!465 = !DILocation(line: 103, column: 9, scope: !438)
!466 = distinct !{!466, !440, !467}
!467 = !DILocation(line: 107, column: 9, scope: !434)
!468 = !DILocation(line: 109, column: 5, scope: !359)
!469 = distinct !DISubprogram(name: "main", scope: !3, file: !3, line: 112, type: !470, scopeLine: 112, flags: DIFlagPrototyped, spFlags: DISPFlagDefinition, unit: !2, retainedNodes: !4)
!470 = !DISubroutineType(types: !471)
!471 = !{!15, !15, !472}
!472 = !DIDerivedType(tag: DW_TAG_pointer_type, baseType: !71, size: 64)
!473 = !DILocalVariable(name: "argc", arg: 1, scope: !469, file: !3, line: 112, type: !15)
!474 = !DILocation(line: 112, column: 14, scope: !469)
!475 = !DILocalVariable(name: "argv", arg: 2, scope: !469, file: !3, line: 112, type: !472)
!476 = !DILocation(line: 112, column: 32, scope: !469)
!477 = !DILocalVariable(name: "inp_mem_row0", scope: !469, file: !3, line: 114, type: !135)
!478 = !DILocation(line: 114, column: 18, scope: !469)
!479 = !DILocalVariable(name: "inp_mem_row1", scope: !469, file: !3, line: 114, type: !135)
!480 = !DILocation(line: 114, column: 37, scope: !469)
!481 = !DILocalVariable(name: "inp_mem_row2", scope: !469, file: !3, line: 114, type: !135)
!482 = !DILocation(line: 114, column: 56, scope: !469)
!483 = !DILocalVariable(name: "wgt_mem_row0", scope: !469, file: !3, line: 115, type: !135)
!484 = !DILocation(line: 115, column: 18, scope: !469)
!485 = !DILocalVariable(name: "wgt_mem_row1", scope: !469, file: !3, line: 115, type: !135)
!486 = !DILocation(line: 115, column: 37, scope: !469)
!487 = !DILocalVariable(name: "wgt_mem_row2", scope: !469, file: !3, line: 115, type: !135)
!488 = !DILocation(line: 115, column: 56, scope: !469)
!489 = !DILocalVariable(name: "acc_mem_row0", scope: !469, file: !3, line: 116, type: !135)
!490 = !DILocation(line: 116, column: 18, scope: !469)
!491 = !DILocalVariable(name: "acc_mem_row1", scope: !469, file: !3, line: 116, type: !135)
!492 = !DILocation(line: 116, column: 37, scope: !469)
!493 = !DILocalVariable(name: "acc_mem_row2", scope: !469, file: !3, line: 116, type: !135)
!494 = !DILocation(line: 116, column: 56, scope: !469)
!495 = !DILocalVariable(name: "acc_stage2", scope: !469, file: !3, line: 117, type: !8)
!496 = !DILocation(line: 117, column: 18, scope: !469)
!497 = !DILocalVariable(name: "acc_stage1", scope: !469, file: !3, line: 118, type: !8)
!498 = !DILocation(line: 118, column: 18, scope: !469)
!499 = !DILocalVariable(name: "acc_stage3", scope: !469, file: !3, line: 119, type: !8)
!500 = !DILocation(line: 119, column: 18, scope: !469)
!501 = !DILocalVariable(name: "acc_mem_ref", scope: !469, file: !3, line: 120, type: !178)
!502 = !DILocation(line: 120, column: 20, scope: !469)
!503 = !DILocalVariable(name: "acc_mem_val", scope: !469, file: !3, line: 121, type: !178)
!504 = !DILocation(line: 121, column: 20, scope: !469)
!505 = !DILocalVariable(name: "acc_mem_gemm", scope: !469, file: !3, line: 122, type: !178)
!506 = !DILocation(line: 122, column: 20, scope: !469)
!507 = !DILocation(line: 123, column: 5, scope: !469)
!508 = !DILocalVariable(name: "opcode", scope: !469, file: !3, line: 124, type: !9)
!509 = !DILocation(line: 124, column: 18, scope: !469)
!510 = !DILocalVariable(name: "op_type", scope: !469, file: !3, line: 124, type: !9)
!511 = !DILocation(line: 124, column: 26, scope: !469)
!512 = !DILocation(line: 126, column: 5, scope: !469)
!513 = !DILocation(line: 127, column: 5, scope: !469)
!514 = !DILocation(line: 128, column: 5, scope: !469)
!515 = !DILocation(line: 129, column: 5, scope: !469)
!516 = !DILocation(line: 130, column: 5, scope: !469)
!517 = !DILocation(line: 131, column: 5, scope: !469)
!518 = !DILocation(line: 132, column: 5, scope: !469)
!519 = !DILocation(line: 133, column: 5, scope: !469)
!520 = !DILocation(line: 134, column: 5, scope: !469)
!521 = !DILocation(line: 135, column: 24, scope: !469)
!522 = !DILocation(line: 135, column: 5, scope: !469)
!523 = !DILocation(line: 136, column: 24, scope: !469)
!524 = !DILocation(line: 136, column: 5, scope: !469)
!525 = !DILocalVariable(name: "gemm_base", scope: !469, file: !3, line: 138, type: !220)
!526 = !DILocation(line: 138, column: 21, scope: !469)
!527 = !DILocalVariable(name: "instruction", scope: !469, file: !3, line: 139, type: !213)
!528 = !DILocation(line: 139, column: 11, scope: !469)
!529 = !DILocation(line: 139, column: 25, scope: !469)
!530 = !DILocation(line: 139, column: 33, scope: !469)
!531 = !DILocalVariable(name: "gemm_uop", scope: !469, file: !3, line: 143, type: !532)
!532 = !DICompositeType(tag: DW_TAG_array_type, baseType: !220, size: 1728, elements: !10)
!533 = !DILocation(line: 143, column: 21, scope: !469)
!534 = !DILocation(line: 143, column: 35, scope: !469)
!535 = !DILocation(line: 143, column: 36, scope: !469)
!536 = !DILocation(line: 143, column: 38, scope: !469)
!537 = !DILocation(line: 143, column: 55, scope: !469)
!538 = !DILocation(line: 143, column: 72, scope: !469)
!539 = !DILocation(line: 143, column: 89, scope: !469)
!540 = !DILocation(line: 143, column: 91, scope: !469)
!541 = !DILocation(line: 143, column: 108, scope: !469)
!542 = !DILocation(line: 143, column: 125, scope: !469)
!543 = !DILocation(line: 144, column: 36, scope: !469)
!544 = !DILocation(line: 144, column: 38, scope: !469)
!545 = !DILocation(line: 144, column: 55, scope: !469)
!546 = !DILocation(line: 144, column: 72, scope: !469)
!547 = !DILocation(line: 144, column: 89, scope: !469)
!548 = !DILocation(line: 144, column: 91, scope: !469)
!549 = !DILocation(line: 144, column: 108, scope: !469)
!550 = !DILocation(line: 144, column: 125, scope: !469)
!551 = !DILocation(line: 145, column: 36, scope: !469)
!552 = !DILocation(line: 145, column: 38, scope: !469)
!553 = !DILocation(line: 145, column: 55, scope: !469)
!554 = !DILocation(line: 145, column: 72, scope: !469)
!555 = !DILocation(line: 145, column: 89, scope: !469)
!556 = !DILocation(line: 145, column: 91, scope: !469)
!557 = !DILocation(line: 145, column: 108, scope: !469)
!558 = !DILocation(line: 145, column: 125, scope: !469)
!559 = !DILocation(line: 146, column: 36, scope: !469)
!560 = !DILocation(line: 146, column: 38, scope: !469)
!561 = !DILocation(line: 146, column: 55, scope: !469)
!562 = !DILocation(line: 146, column: 72, scope: !469)
!563 = !DILocation(line: 146, column: 89, scope: !469)
!564 = !DILocation(line: 146, column: 91, scope: !469)
!565 = !DILocation(line: 146, column: 108, scope: !469)
!566 = !DILocation(line: 146, column: 125, scope: !469)
!567 = !DILocation(line: 147, column: 36, scope: !469)
!568 = !DILocation(line: 147, column: 38, scope: !469)
!569 = !DILocation(line: 147, column: 55, scope: !469)
!570 = !DILocation(line: 147, column: 72, scope: !469)
!571 = !DILocalVariable(name: "gemm", scope: !469, file: !3, line: 150, type: !572)
!572 = !DICompositeType(tag: DW_TAG_array_type, baseType: !296, size: 864, elements: !10)
!573 = !DILocation(line: 150, column: 21, scope: !469)
!574 = !DILocation(line: 150, column: 31, scope: !469)
!575 = !DILocation(line: 150, column: 32, scope: !469)
!576 = !DILocation(line: 150, column: 33, scope: !469)
!577 = !DILocation(line: 150, column: 49, scope: !469)
!578 = !DILocation(line: 150, column: 65, scope: !469)
!579 = !DILocation(line: 150, column: 82, scope: !469)
!580 = !DILocation(line: 150, column: 83, scope: !469)
!581 = !DILocation(line: 150, column: 99, scope: !469)
!582 = !DILocation(line: 150, column: 115, scope: !469)
!583 = !DILocation(line: 151, column: 32, scope: !469)
!584 = !DILocation(line: 151, column: 33, scope: !469)
!585 = !DILocation(line: 151, column: 49, scope: !469)
!586 = !DILocation(line: 151, column: 65, scope: !469)
!587 = !DILocation(line: 151, column: 82, scope: !469)
!588 = !DILocation(line: 151, column: 83, scope: !469)
!589 = !DILocation(line: 151, column: 99, scope: !469)
!590 = !DILocation(line: 151, column: 115, scope: !469)
!591 = !DILocation(line: 152, column: 32, scope: !469)
!592 = !DILocation(line: 152, column: 33, scope: !469)
!593 = !DILocation(line: 152, column: 49, scope: !469)
!594 = !DILocation(line: 152, column: 65, scope: !469)
!595 = !DILocation(line: 152, column: 82, scope: !469)
!596 = !DILocation(line: 152, column: 83, scope: !469)
!597 = !DILocation(line: 152, column: 99, scope: !469)
!598 = !DILocation(line: 152, column: 115, scope: !469)
!599 = !DILocation(line: 153, column: 32, scope: !469)
!600 = !DILocation(line: 153, column: 33, scope: !469)
!601 = !DILocation(line: 153, column: 49, scope: !469)
!602 = !DILocation(line: 153, column: 65, scope: !469)
!603 = !DILocation(line: 153, column: 82, scope: !469)
!604 = !DILocation(line: 153, column: 83, scope: !469)
!605 = !DILocation(line: 153, column: 99, scope: !469)
!606 = !DILocation(line: 153, column: 115, scope: !469)
!607 = !DILocation(line: 154, column: 32, scope: !469)
!608 = !DILocation(line: 154, column: 33, scope: !469)
!609 = !DILocation(line: 154, column: 49, scope: !469)
!610 = !DILocation(line: 154, column: 65, scope: !469)
!611 = !DILocalVariable(name: "microop", scope: !469, file: !3, line: 158, type: !612)
!612 = !DICompositeType(tag: DW_TAG_array_type, baseType: !213, size: 2880, elements: !10)
!613 = !DILocation(line: 158, column: 11, scope: !469)
!614 = !DILocation(line: 158, column: 24, scope: !469)
!615 = !DILocation(line: 158, column: 25, scope: !469)
!616 = !DILocation(line: 158, column: 32, scope: !469)
!617 = !DILocation(line: 158, column: 45, scope: !469)
!618 = !DILocation(line: 158, column: 52, scope: !469)
!619 = !DILocation(line: 158, column: 65, scope: !469)
!620 = !DILocation(line: 158, column: 72, scope: !469)
!621 = !DILocation(line: 158, column: 85, scope: !469)
!622 = !DILocation(line: 158, column: 92, scope: !469)
!623 = !DILocation(line: 159, column: 25, scope: !469)
!624 = !DILocation(line: 159, column: 32, scope: !469)
!625 = !DILocation(line: 159, column: 46, scope: !469)
!626 = !DILocation(line: 159, column: 53, scope: !469)
!627 = !DILocation(line: 159, column: 66, scope: !469)
!628 = !DILocation(line: 159, column: 73, scope: !469)
!629 = !DILocation(line: 159, column: 86, scope: !469)
!630 = !DILocation(line: 159, column: 93, scope: !469)
!631 = !DILocation(line: 159, column: 106, scope: !469)
!632 = !DILocation(line: 159, column: 113, scope: !469)
!633 = !DILocalVariable(name: "microop_val", scope: !469, file: !3, line: 161, type: !634)
!634 = !DICompositeType(tag: DW_TAG_array_type, baseType: !290, size: 1728, elements: !10)
!635 = !DILocation(line: 161, column: 15, scope: !469)
!636 = !DILocation(line: 161, column: 32, scope: !469)
!637 = !DILocation(line: 161, column: 33, scope: !469)
!638 = !DILocation(line: 161, column: 40, scope: !469)
!639 = !DILocation(line: 161, column: 49, scope: !469)
!640 = !DILocation(line: 161, column: 56, scope: !469)
!641 = !DILocation(line: 161, column: 65, scope: !469)
!642 = !DILocation(line: 161, column: 72, scope: !469)
!643 = !DILocation(line: 161, column: 81, scope: !469)
!644 = !DILocation(line: 161, column: 88, scope: !469)
!645 = !DILocation(line: 162, column: 33, scope: !469)
!646 = !DILocation(line: 162, column: 40, scope: !469)
!647 = !DILocation(line: 162, column: 50, scope: !469)
!648 = !DILocation(line: 162, column: 57, scope: !469)
!649 = !DILocation(line: 162, column: 66, scope: !469)
!650 = !DILocation(line: 162, column: 73, scope: !469)
!651 = !DILocation(line: 162, column: 82, scope: !469)
!652 = !DILocation(line: 162, column: 89, scope: !469)
!653 = !DILocation(line: 162, column: 98, scope: !469)
!654 = !DILocation(line: 162, column: 105, scope: !469)
!655 = !DILocation(line: 164, column: 9, scope: !656)
!656 = distinct !DILexicalBlock(scope: !469, file: !3, line: 164, column: 8)
!657 = !DILocation(line: 164, column: 16, scope: !656)
!658 = !DILocation(line: 164, column: 27, scope: !656)
!659 = !DILocation(line: 164, column: 35, scope: !656)
!660 = !DILocation(line: 164, column: 22, scope: !656)
!661 = !DILocation(line: 165, column: 34, scope: !662)
!662 = distinct !DILexicalBlock(scope: !656, file: !3, line: 164, column: 42)
!663 = !DILocation(line: 165, column: 24, scope: !662)
!664 = !DILocation(line: 165, column: 22, scope: !662)
!665 = !DILocalVariable(name: "i", scope: !666, file: !3, line: 167, type: !15)
!666 = distinct !DILexicalBlock(scope: !662, file: !3, line: 167, column: 9)
!667 = !DILocation(line: 167, column: 18, scope: !666)
!668 = !DILocation(line: 167, column: 14, scope: !666)
!669 = !DILocation(line: 167, column: 22, scope: !670)
!670 = distinct !DILexicalBlock(scope: !666, file: !3, line: 167, column: 9)
!671 = !DILocation(line: 167, column: 23, scope: !670)
!672 = !DILocation(line: 167, column: 9, scope: !666)
!673 = !DILocation(line: 168, column: 27, scope: !674)
!674 = distinct !DILexicalBlock(scope: !670, file: !3, line: 167, column: 30)
!675 = !DILocation(line: 168, column: 40, scope: !674)
!676 = !DILocation(line: 168, column: 24, scope: !674)
!677 = !DILocation(line: 168, column: 13, scope: !674)
!678 = !DILocation(line: 168, column: 26, scope: !674)
!679 = !DILocation(line: 167, column: 27, scope: !670)
!680 = !DILocation(line: 167, column: 9, scope: !670)
!681 = distinct !{!681, !672, !682}
!682 = !DILocation(line: 169, column: 9, scope: !666)
!683 = !DILocalVariable(name: "i", scope: !684, file: !3, line: 171, type: !15)
!684 = distinct !DILexicalBlock(scope: !662, file: !3, line: 171, column: 9)
!685 = !DILocation(line: 171, column: 18, scope: !684)
!686 = !DILocation(line: 171, column: 14, scope: !684)
!687 = !DILocation(line: 171, column: 22, scope: !688)
!688 = distinct !DILexicalBlock(scope: !684, file: !3, line: 171, column: 9)
!689 = !DILocation(line: 171, column: 23, scope: !688)
!690 = !DILocation(line: 171, column: 9, scope: !684)
!691 = !DILocation(line: 172, column: 49, scope: !692)
!692 = distinct !DILexicalBlock(scope: !688, file: !3, line: 171, column: 30)
!693 = !DILocation(line: 172, column: 41, scope: !692)
!694 = !DILocation(line: 172, column: 27, scope: !692)
!695 = !DILocation(line: 172, column: 25, scope: !692)
!696 = !DILocation(line: 173, column: 27, scope: !692)
!697 = !DILocation(line: 173, column: 39, scope: !692)
!698 = !DILocation(line: 173, column: 24, scope: !692)
!699 = !DILocation(line: 173, column: 13, scope: !692)
!700 = !DILocation(line: 173, column: 26, scope: !692)
!701 = !DILocation(line: 171, column: 27, scope: !688)
!702 = !DILocation(line: 171, column: 9, scope: !688)
!703 = distinct !{!703, !690, !704}
!704 = !DILocation(line: 174, column: 9, scope: !684)
!705 = !DILocation(line: 186, column: 5, scope: !469)
!706 = distinct !DISubprogram(name: "memcpy", scope: !707, file: !707, line: 12, type: !708, scopeLine: 12, flags: DIFlagPrototyped, spFlags: DISPFlagDefinition, unit: !124, retainedNodes: !4)
!707 = !DIFile(filename: "klee_src/runtime/Freestanding/memcpy.c", directory: "/tmp")
!708 = !DISubroutineType(types: !709)
!709 = !{!38, !38, !39, !710}
!710 = !DIDerivedType(tag: DW_TAG_typedef, name: "size_t", file: !711, line: 46, baseType: !43)
!711 = !DIFile(filename: "/usr/lib/llvm-9/lib/clang/9.0.0/include/stddef.h", directory: "")
!712 = !DILocalVariable(name: "destaddr", arg: 1, scope: !706, file: !707, line: 12, type: !38)
!713 = !DILocation(line: 12, column: 20, scope: !706)
!714 = !DILocalVariable(name: "srcaddr", arg: 2, scope: !706, file: !707, line: 12, type: !39)
!715 = !DILocation(line: 12, column: 42, scope: !706)
!716 = !DILocalVariable(name: "len", arg: 3, scope: !706, file: !707, line: 12, type: !710)
!717 = !DILocation(line: 12, column: 58, scope: !706)
!718 = !DILocalVariable(name: "dest", scope: !706, file: !707, line: 13, type: !67)
!719 = !DILocation(line: 13, column: 9, scope: !706)
!720 = !DILocation(line: 13, column: 16, scope: !706)
!721 = !DILocalVariable(name: "src", scope: !706, file: !707, line: 14, type: !71)
!722 = !DILocation(line: 14, column: 15, scope: !706)
!723 = !DILocation(line: 14, column: 21, scope: !706)
!724 = !DILocation(line: 16, column: 3, scope: !706)
!725 = !DILocation(line: 16, column: 13, scope: !706)
!726 = !DILocation(line: 16, column: 16, scope: !706)
!727 = !DILocation(line: 17, column: 19, scope: !706)
!728 = !DILocation(line: 17, column: 15, scope: !706)
!729 = !DILocation(line: 17, column: 10, scope: !706)
!730 = !DILocation(line: 17, column: 13, scope: !706)
!731 = distinct !{!731, !724, !727}
!732 = !DILocation(line: 18, column: 10, scope: !706)
!733 = !DILocation(line: 18, column: 3, scope: !706)
