; ModuleID = 'store_v1.bc'
source_filename = "store_v1.cc"
target datalayout = "e-m:e-i64:64-f80:128-n8:16:32:64-S128"
target triple = "x86_64-pc-linux-gnu"

%"class.std::ios_base::Init" = type { i8 }
%struct._IO_FILE = type { i32, i8*, i8*, i8*, i8*, i8*, i8*, i8*, i8*, i8*, i8*, i8*, %struct._IO_marker*, %struct._IO_FILE*, i32, i32, i64, i16, i8, [1 x i8], i8*, i64, i8*, i8*, i8*, i8*, i64, i32, [20 x i8] }
%struct._IO_marker = type { %struct._IO_marker*, %struct._IO_FILE*, i32 }
%struct.ap_uint = type { %struct.ap_int_base }
%struct.ap_int_base = type { %struct.ssdm_int_sim }
%struct.ssdm_int_sim = type { %class.ap_private }
%class.ap_private = type { i8 }
%struct.ap_uint.0 = type { %struct.ap_int_base.1 }
%struct.ap_int_base.1 = type { %struct.ssdm_int_sim.2 }
%struct.ssdm_int_sim.2 = type { %class.ap_private.3 }
%class.ap_private.3 = type { [2 x i64] }
%struct.ap_range_ref = type { %struct.ap_int_base.1*, i32, i32 }
%struct.ap_uint.4 = type { %struct.ap_int_base.5 }
%struct.ap_int_base.5 = type { %struct.ssdm_int_sim.6 }
%struct.ssdm_int_sim.6 = type { %class.ap_private.7 }
%class.ap_private.7 = type { i8 }
%struct.ap_uint.8 = type { %struct.ap_int_base.9 }
%struct.ap_int_base.9 = type { %struct.ssdm_int_sim.10 }
%struct.ssdm_int_sim.10 = type { %class.ap_private.11 }
%class.ap_private.11 = type { i8 }
%struct.ap_uint.12 = type { %struct.ap_int_base.13 }
%struct.ap_int_base.13 = type { %struct.ssdm_int_sim.14 }
%struct.ssdm_int_sim.14 = type { %class.ap_private.15 }
%class.ap_private.15 = type { i16 }
%struct.ap_int = type { %struct.ap_int_base.16 }
%struct.ap_int_base.16 = type { %struct.ssdm_int_sim.17 }
%struct.ssdm_int_sim.17 = type { %class.ap_private.18 }
%class.ap_private.18 = type { [2 x i64] }
%struct.ap_int.22 = type { %struct.ap_int_base.19 }
%struct.ap_int_base.19 = type { %struct.ssdm_int_sim.20 }
%struct.ssdm_int_sim.20 = type { %class.ap_private.21 }
%class.ap_private.21 = type { [2 x i64] }
%struct.ap_int.26 = type { %struct.ap_int_base.23 }
%struct.ap_int_base.23 = type { %struct.ssdm_int_sim.24 }
%struct.ssdm_int_sim.24 = type { %class.ap_private.25 }
%class.ap_private.25 = type { [2 x i64] }
%struct.ap_int.27 = type { %struct.ap_int_base.28 }
%struct.ap_int_base.28 = type { %struct.ssdm_int_sim.29 }
%struct.ssdm_int_sim.29 = type { %class.ap_private.30 }
%class.ap_private.30 = type { [2 x i64] }
%struct.ap_int.34 = type { %struct.ap_int_base.31 }
%struct.ap_int_base.31 = type { %struct.ssdm_int_sim.32 }
%struct.ssdm_int_sim.32 = type { %class.ap_private.33 }
%class.ap_private.33 = type { i64 }
%class.ap_private.40 = type { [2 x i64] }
%class.ap_private.39 = type { [4 x i64] }
%struct.ap_int.35 = type { %struct.ap_int_base.36 }
%struct.ap_int_base.36 = type { %struct.ssdm_int_sim.37 }
%struct.ssdm_int_sim.37 = type { %class.ap_private.38 }
%class.ap_private.38 = type { i32 }
%struct.ap_int_base.43 = type { %struct.ssdm_int_sim.44 }
%struct.ssdm_int_sim.44 = type { %class.ap_private.45 }
%class.ap_private.45 = type { i8 }
%struct._private_range_ref = type { %class.ap_private.3*, i32, i32 }
%struct._private_bit_ref = type <{ %class.ap_private.3*, i32, [4 x i8] }>
%class.ap_private.41 = type { i32 }
%class.ap_private.42 = type { i64 }

$_ZN7ap_uintILi8EEC2Ev = comdat any

$_ZN7ap_uintILi8EED2Ev = comdat any

$_ZN7ap_uintILi8EEaSERKS0_ = comdat any

$_ZN7ap_uintILi128EEC2Ev = comdat any

$_ZN7ap_uintILi128EEC2Ei = comdat any

$_ZN7ap_uintILi128EEaSERKS0_ = comdat any

$_ZN7ap_uintILi128EED2Ev = comdat any

$_ZN11ap_int_baseILi128ELb0EEclEii = comdat any

$_ZN12ap_range_refILi128ELb0EEaSILi8ELb0EEERS0_RK11ap_int_baseIXT_EXT0_EE = comdat any

$_ZN7ap_uintILi3EEC2ILi128ELb0EEERK12ap_range_refIXT_EXT0_EE = comdat any

$_ZNK11ap_int_baseILi3ELb0EEcvyEv = comdat any

$_ZN7ap_uintILi3EED2Ev = comdat any

$_ZN7ap_uintILi2EEC2ILi128ELb0EEERK12ap_range_refIXT_EXT0_EE = comdat any

$_ZNK11ap_int_baseILi2ELb0EEcvyEv = comdat any

$_ZN7ap_uintILi2EED2Ev = comdat any

$_ZN7ap_uintILi16EEC2Ev = comdat any

$_ZN7ap_uintILi16EEC2ILi128ELb0EEERK12ap_range_refIXT_EXT0_EE = comdat any

$_ZN7ap_uintILi16EEaSERKS0_ = comdat any

$_ZN7ap_uintILi16EED2Ev = comdat any

$_ZNK12ap_range_refILi128ELb0EEcvyEv = comdat any

$_ZNK11ap_int_baseILi16ELb0EEcvyEv = comdat any

$_ZplILi67ELb1ELi67ELb1EEN11ap_int_baseIXT_EXT0_EE5RTypeIXT1_EXT2_EE4plusERKS1_RKS0_IXT1_EXT2_EE = comdat any

$_ZplILi66ELb1ELi66ELb1EEN11ap_int_baseIXT_EXT0_EE5RTypeIXT1_EXT2_EE4plusERKS1_RKS0_IXT1_EXT2_EE = comdat any

$_ZN6ap_intILi66EEC2ILi16EEERK7ap_uintIXT_EE = comdat any

$_ZmlILi64ELb1ELi64ELb1EEN11ap_int_baseIXT_EXT0_EE5RTypeIXT1_EXT2_EE4multERKS1_RKS0_IXT1_EXT2_EE = comdat any

$_ZN6ap_intILi64EEC2Ei = comdat any

$_ZN6ap_intILi66EEC2ILi128EEERKS_IXT_EE = comdat any

$_ZN6ap_intILi67EEC2Ei = comdat any

$_ZNK11ap_int_baseILi68ELb1EEcvxEv = comdat any

$_ZN6ap_intILi68EED2Ev = comdat any

$_ZN6ap_intILi67EED2Ev = comdat any

$_ZN6ap_intILi66EED2Ev = comdat any

$_ZN6ap_intILi128EED2Ev = comdat any

$_ZN6ap_intILi64EED2Ev = comdat any

$_ZN6ap_intILi66EEC2Ej = comdat any

$_ZN6ap_intILi32EEC2Ei = comdat any

$_ZltILi32ELb1EEbRK11ap_int_baseIXT_EXT0_EEi = comdat any

$_ZN7ap_uintILi8EEC2Ei = comdat any

$_ZNK11ap_int_baseILi32ELb1EEcvxEv = comdat any

$_ZN11ap_int_baseILi32ELb1EEppEv = comdat any

$_ZN6ap_intILi32EED2Ev = comdat any

$_ZN11ap_int_baseILi8ELb0EED2Ev = comdat any

$_ZN12ssdm_int_simILi8ELb0EED2Ev = comdat any

$_ZN10ap_privateILi8ELb0ELb1EED2Ev = comdat any

$_ZN10ap_privateILi8ELb0ELb1EE12check_canaryEv = comdat any

$__clang_call_terminate = comdat any

$_ZN12ssdm_int_simILi128ELb0EED2Ev = comdat any

$_ZN10ap_privateILi128ELb0ELb0EED2Ev = comdat any

$_ZN10ap_privateILi128ELb0ELb0EE12check_canaryEv = comdat any

$_ZN11ap_int_baseILi3ELb0EED2Ev = comdat any

$_ZN12ssdm_int_simILi3ELb0EED2Ev = comdat any

$_ZN10ap_privateILi3ELb0ELb1EED2Ev = comdat any

$_ZN10ap_privateILi3ELb0ELb1EE12check_canaryEv = comdat any

$_ZN11ap_int_baseILi2ELb0EED2Ev = comdat any

$_ZN12ssdm_int_simILi2ELb0EED2Ev = comdat any

$_ZN10ap_privateILi2ELb0ELb1EED2Ev = comdat any

$_ZN10ap_privateILi2ELb0ELb1EE12check_canaryEv = comdat any

$_ZN11ap_int_baseILi16ELb0EED2Ev = comdat any

$_ZN12ssdm_int_simILi16ELb0EED2Ev = comdat any

$_ZN10ap_privateILi16ELb0ELb1EED2Ev = comdat any

$_ZN10ap_privateILi16ELb0ELb1EE12check_canaryEv = comdat any

$_ZN12ssdm_int_simILi68ELb1EED2Ev = comdat any

$_ZN10ap_privateILi68ELb1ELb0EED2Ev = comdat any

$_ZN10ap_privateILi68ELb1ELb0EE12check_canaryEv = comdat any

$_ZN12ssdm_int_simILi67ELb1EED2Ev = comdat any

$_ZN10ap_privateILi67ELb1ELb0EED2Ev = comdat any

$_ZN10ap_privateILi67ELb1ELb0EE12check_canaryEv = comdat any

$_ZN11ap_int_baseILi66ELb1EED2Ev = comdat any

$_ZN12ssdm_int_simILi66ELb1EED2Ev = comdat any

$_ZN10ap_privateILi66ELb1ELb0EED2Ev = comdat any

$_ZN10ap_privateILi66ELb1ELb0EE12check_canaryEv = comdat any

$_ZN12ssdm_int_simILi128ELb1EED2Ev = comdat any

$_ZN10ap_privateILi128ELb1ELb0EED2Ev = comdat any

$_ZN10ap_privateILi128ELb1ELb0EE12check_canaryEv = comdat any

$_ZN11ap_int_baseILi64ELb1EED2Ev = comdat any

$_ZN12ssdm_int_simILi64ELb1EED2Ev = comdat any

$_ZN10ap_privateILi64ELb1ELb1EED2Ev = comdat any

$_ZN10ap_privateILi64ELb1ELb1EE12check_canaryEv = comdat any

$_ZN12ssdm_int_simILi32ELb1EED2Ev = comdat any

$_ZN10ap_privateILi32ELb1ELb1EED2Ev = comdat any

$_ZN10ap_privateILi32ELb1ELb1EE12check_canaryEv = comdat any

$_ZN11ap_int_baseILi8ELb0EEC2Ev = comdat any

$_ZN12ssdm_int_simILi8ELb0EEC2Ev = comdat any

$_ZN10ap_privateILi8ELb0ELb1EEC2Ev = comdat any

$_ZN10ap_privateILi8ELb0ELb1EE10set_canaryEv = comdat any

$_ZNV10ap_privateILi8ELb0ELb1EE15clearUnusedBitsEv = comdat any

$_ZN10ap_privateILi8ELb0ELb1EEaSERKS0_ = comdat any

$_ZNK10ap_privateILi8ELb0ELb1EE7get_VALEv = comdat any

$_ZN12ssdm_int_simILi128ELb0EEC2Ev = comdat any

$_ZN10ap_privateILi128ELb0ELb0EEC2Ev = comdat any

$_ZN10ap_privateILi128ELb0ELb0EE10set_canaryEv = comdat any

$_ZNV10ap_privateILi128ELb0ELb0EE15clearUnusedBitsEv = comdat any

$_ZN10ap_privateILi128ELb0ELb0EEaSEi = comdat any

$_ZN10ap_privateILi32ELb1ELb1EEC2Ei = comdat any

$_ZN10ap_privateILi128ELb0ELb0EEaSILi32ELb1EEERS0_RKS_IXT_EXT0_EXleT_Li64EEE = comdat any

$_ZN10ap_privateILi32ELb1ELb1EE10set_canaryEv = comdat any

$_ZNV10ap_privateILi32ELb1ELb1EE15clearUnusedBitsEv = comdat any

$_ZN10ap_privateILi128ELb0ELb0EE13cpSextOrTruncILi32ELb1EEEvRKS_IXT_EXT0_EXleT_Li64EEE = comdat any

$_ZN10ap_privateILi128ELb0ELb0EE6cpSextILi32ELb1EEEvRKS_IXT_EXT0_EXleT_Li64EEE = comdat any

$_ZNK10ap_privateILi32ELb1ELb1EE10isNegativeEv = comdat any

$_ZN10ap_privateILi128ELb0ELb0EE6cpZextILi32ELb1EEEvRKS_IXT_EXT0_EXleT_Li64EEE = comdat any

$_ZNK10ap_privateILi32ELb1ELb1EE8get_pValEi = comdat any

$_ZN10ap_privateILi128ELb0ELb0EEaSERKS0_ = comdat any

$_ZNK10ap_privateILi128ELb0ELb0EE8get_pValEv = comdat any

$_ZN11ap_int_baseILi128ELb0EE5rangeEii = comdat any

$_ZN12ap_range_refILi128ELb0EEC2EP11ap_int_baseILi128ELb0EEii = comdat any

$_ZN11ap_int_baseILi128ELb0EEC2ILi8ELb0EEERKS_IXT_EXT0_EE = comdat any

$_Z21_AP_ROOT_op_set_rangeI10ap_privateILi128ELb0ELb0EEiiS1_ERT_S3_RKT0_RKT1_RKT2_ = comdat any

$_ZN11ap_int_baseILi128ELb0EED2Ev = comdat any

$_ZN10ap_privateILi128ELb0ELb0EEaSILi8ELb0EEERS0_RKS_IXT_EXT0_EXleT_Li64EEE = comdat any

$_ZN10ap_privateILi128ELb0ELb0EE13cpZextOrTruncILi8ELb0EEEvRKS_IXT_EXT0_EXleT_Li64EEE = comdat any

$_ZN10ap_privateILi128ELb0ELb0EE6cpZextILi8ELb0EEEvRKS_IXT_EXT0_EXleT_Li64EEE = comdat any

$_ZNK10ap_privateILi8ELb0ELb1EE8get_pValEi = comdat any

$_ZN10ap_privateILi128ELb0ELb0EE5rangeEii = comdat any

$_ZN18_private_range_refILi128ELb0EEaSILi128ELb0EEERS0_RK10ap_privateIXT_EXT0_EXleT_Li64EEE = comdat any

$_ZN18_private_range_refILi128ELb0EEC2EP10ap_privateILi128ELb0ELb0EEii = comdat any

$_ZN10ap_privateILi128ELb0ELb0EEC2ERKS0_ = comdat any

$_ZN10ap_privateILi128ELb0ELb0EEixEi = comdat any

$_ZNK16_private_bit_refILi128ELb0EEcvbEv = comdat any

$_ZN10ap_privateILi128ELb0ELb0EE3setEj = comdat any

$_ZN10ap_privateILi128ELb0ELb0EE5clearEj = comdat any

$_ZN10ap_privateILi128ELb0ELb0EEC2Eib = comdat any

$_ZlSILi128ELb0EER10ap_privateIXT_EXT0_EXleT_Li64EEES2_i = comdat any

$_ZrSILi128ELb0EER10ap_privateIXT_EXT0_EXleT_Li64EEES2_i = comdat any

$_ZN10ap_privateILi128ELb0ELb0EEaNILi128ELb0EEERS0_RKS_IXT_EXT0_EXleT_Li64EEE = comdat any

$_ZN10ap_privateILi128ELb0ELb0EE4flipEv = comdat any

$_ZN10ap_privateILi128ELb0ELb0EEoRILi128ELb0EEERS0_RKS_IXT_EXT0_EXleT_Li64EEE = comdat any

$_ZN16_private_bit_refILi128ELb0EEC2ER10ap_privateILi128ELb0ELb0EEi = comdat any

$_ZNK10ap_privateILi128ELb0ELb0EE7get_bitEi = comdat any

$_ZN10ap_privateILi128ELb0ELb0EE7maskBitEj = comdat any

$_ZN10ap_privateILi128ELb0ELb0EE9whichWordEj = comdat any

$_ZN10ap_privateILi128ELb0ELb0EE8whichBitEj = comdat any

$_ZNK10ap_privateILi128ELb0ELb0EElsEi = comdat any

$_ZNK10ap_privateILi128ELb0ELb0EErsEi = comdat any

$_ZNK10ap_privateILi128ELb0ELb0EE3shlEj = comdat any

$_ZNK10ap_privateILi128ELb0ELb0EE10isNegativeEv = comdat any

$_ZNK10ap_privateILi128ELb0ELb0EE4lshrEj = comdat any

$_ZN10ap_privateILi128ELb0ELb0EE8get_pValEv = comdat any

$_ZN8AESL_std3minIiEET_S1_S1_ = comdat any

$_ZNK10ap_privateILi128ELb0ELb0EE8get_pValEi = comdat any

$_ZN11ap_int_baseILi3ELb0EEC2ILi128ELb0EEERK12ap_range_refIXT_EXT0_EE = comdat any

$_ZN12ssdm_int_simILi3ELb0EEC2Ev = comdat any

$_ZNK12ap_range_refILi128ELb0EE3getEv = comdat any

$_ZN10ap_privateILi3ELb0ELb1EEaSILi128ELb0EEERS0_RKS_IXT_EXT0_EXleT_Li64EEE = comdat any

$_ZN10ap_privateILi3ELb0ELb1EEC2Ev = comdat any

$_ZN10ap_privateILi3ELb0ELb1EE10set_canaryEv = comdat any

$_ZNV10ap_privateILi3ELb0ELb1EE15clearUnusedBitsEv = comdat any

$_ZN11ap_int_baseILi128ELb0EEC2Ev = comdat any

$_ZN10ap_privateILi128ELb0ELb0EEaSILi128ELb0EEERS0_RK18_private_range_refIXT_EXT0_EE = comdat any

$_ZN10ap_privateILi128ELb0ELb0EEC2ILi128ELb0EEERK18_private_range_refIXT_EXT0_EE = comdat any

$_ZNK18_private_range_refILi128ELb0EE3getEv = comdat any

$_ZN10ap_privateILi128ELb0ELb0EE6reportEv = comdat any

$_ZNK10ap_privateILi128ELb0ELb0EE7get_VALEv = comdat any

$_ZNK10ap_privateILi3ELb0ELb1EEcvhEv = comdat any

$_ZNK10ap_privateILi3ELb0ELb1EE7get_VALEv = comdat any

$_ZN11ap_int_baseILi2ELb0EEC2ILi128ELb0EEERK12ap_range_refIXT_EXT0_EE = comdat any

$_ZN12ssdm_int_simILi2ELb0EEC2Ev = comdat any

$_ZN10ap_privateILi2ELb0ELb1EEaSILi128ELb0EEERS0_RKS_IXT_EXT0_EXleT_Li64EEE = comdat any

$_ZN10ap_privateILi2ELb0ELb1EEC2Ev = comdat any

$_ZN10ap_privateILi2ELb0ELb1EE10set_canaryEv = comdat any

$_ZNV10ap_privateILi2ELb0ELb1EE15clearUnusedBitsEv = comdat any

$_ZNK10ap_privateILi2ELb0ELb1EEcvhEv = comdat any

$_ZNK10ap_privateILi2ELb0ELb1EE7get_VALEv = comdat any

$_ZN11ap_int_baseILi16ELb0EEC2Ev = comdat any

$_ZN12ssdm_int_simILi16ELb0EEC2Ev = comdat any

$_ZN10ap_privateILi16ELb0ELb1EEC2Ev = comdat any

$_ZN10ap_privateILi16ELb0ELb1EE10set_canaryEv = comdat any

$_ZNV10ap_privateILi16ELb0ELb1EE15clearUnusedBitsEv = comdat any

$_ZN11ap_int_baseILi16ELb0EEC2ILi128ELb0EEERK12ap_range_refIXT_EXT0_EE = comdat any

$_ZN10ap_privateILi16ELb0ELb1EEaSILi128ELb0EEERS0_RKS_IXT_EXT0_EXleT_Li64EEE = comdat any

$_ZN10ap_privateILi16ELb0ELb1EEaSERKS0_ = comdat any

$_ZNK10ap_privateILi16ELb0ELb1EE7get_VALEv = comdat any

$_ZNK12ap_range_refILi128ELb0EE9to_uint64Ev = comdat any

$_ZNK18_private_range_refILi128ELb0EEcvyEv = comdat any

$_ZNK18_private_range_refILi128ELb0EE9to_uint64Ev = comdat any

$_ZNK10ap_privateILi128ELb0ELb0EE9to_uint64Ev = comdat any

$_ZNK10ap_privateILi16ELb0ELb1EEcvtEv = comdat any

$_ZN11ap_int_baseILi66ELb1EEC2Ev = comdat any

$_ZN10ap_privateILi66ELb1ELb0EEaSILi16ELb0EEERS0_RKS_IXT_EXT0_EXleT_Li64EEE = comdat any

$_ZN12ssdm_int_simILi66ELb1EEC2Ev = comdat any

$_ZN10ap_privateILi66ELb1ELb0EEC2Ev = comdat any

$_ZN10ap_privateILi66ELb1ELb0EE10set_canaryEv = comdat any

$_ZNV10ap_privateILi66ELb1ELb0EE15clearUnusedBitsEv = comdat any

$_ZN10ap_privateILi66ELb1ELb0EE13cpZextOrTruncILi16ELb0EEEvRKS_IXT_EXT0_EXleT_Li64EEE = comdat any

$_ZN10ap_privateILi66ELb1ELb0EE6cpZextILi16ELb0EEEvRKS_IXT_EXT0_EXleT_Li64EEE = comdat any

$_ZNK10ap_privateILi16ELb0ELb1EE8get_pValEi = comdat any

$_ZN11ap_int_baseILi64ELb1EEC2Ev = comdat any

$_ZN10ap_privateILi64ELb1ELb1EEaSEi = comdat any

$_ZN12ssdm_int_simILi64ELb1EEC2Ev = comdat any

$_ZN10ap_privateILi64ELb1ELb1EEC2Ev = comdat any

$_ZN10ap_privateILi64ELb1ELb1EE10set_canaryEv = comdat any

$_ZNV10ap_privateILi64ELb1ELb1EE15clearUnusedBitsEv = comdat any

$_ZN11ap_int_baseILi128ELb1EEC2ILi64ELb1EEERKS_IXT_EXT0_EE = comdat any

$_ZN11ap_int_baseILi128ELb1EEC2Ev = comdat any

$_ZNK10ap_privateILi128ELb1ELb0EEmlILi128ELb1EEENS0_5RTypeIXT_EXT0_EE4multERKS_IXT_EXT0_EXleT_Li64EEE = comdat any

$_ZN10ap_privateILi128ELb1ELb0EEaSILi256ELb1EEERS0_RKS_IXT_EXT0_EXleT_Li64EEE = comdat any

$_ZN10ap_privateILi256ELb1ELb0EED2Ev = comdat any

$_ZN6ap_intILi128EEC2ILi128ELb1EEERK11ap_int_baseIXT_EXT0_EE = comdat any

$_ZN11ap_int_baseILi128ELb1EED2Ev = comdat any

$_ZN12ssdm_int_simILi128ELb1EEC2Ev = comdat any

$_ZN10ap_privateILi128ELb1ELb0EEaSILi64ELb1EEERS0_RKS_IXT_EXT0_EXleT_Li64EEE = comdat any

$_ZN10ap_privateILi128ELb1ELb0EEC2Ev = comdat any

$_ZN10ap_privateILi128ELb1ELb0EE10set_canaryEv = comdat any

$_ZNV10ap_privateILi128ELb1ELb0EE15clearUnusedBitsEv = comdat any

$_ZN10ap_privateILi128ELb1ELb0EE13cpSextOrTruncILi64ELb1EEEvRKS_IXT_EXT0_EXleT_Li64EEE = comdat any

$_ZN10ap_privateILi128ELb1ELb0EE6cpSextILi64ELb1EEEvRKS_IXT_EXT0_EXleT_Li64EEE = comdat any

$_ZNK10ap_privateILi64ELb1ELb1EE10isNegativeEv = comdat any

$_ZN10ap_privateILi128ELb1ELb0EE6cpZextILi64ELb1EEEvRKS_IXT_EXT0_EXleT_Li64EEE = comdat any

$_ZNK10ap_privateILi64ELb1ELb1EE8get_pValEi = comdat any

$_ZN10ap_privateILi256ELb1ELb0EEC2ILi128ELb1EEERKS_IXT_EXT0_ELb0EE = comdat any

$_ZN10ap_privateILi256ELb1ELb0EEmLILi128ELb1EEERS0_RKS_IXT_EXT0_EXleT_Li64EEE = comdat any

$_ZN10ap_privateILi256ELb1ELb0EE10set_canaryEv = comdat any

$_ZN10ap_privateILi256ELb1ELb0EEaSILi128ELb1EEERS0_RKS_IXT_EXT0_EXleT_Li64EEE = comdat any

$_ZN10ap_privateILi256ELb1ELb0EE12check_canaryEv = comdat any

$_ZN10ap_privateILi256ELb1ELb0EE13cpSextOrTruncILi128ELb1EEEvRKS_IXT_EXT0_EXleT_Li64EEE = comdat any

$_ZNV10ap_privateILi256ELb1ELb0EE15clearUnusedBitsEv = comdat any

$_ZN10ap_privateILi256ELb1ELb0EE6cpSextILi128ELb1EEEvRKS_IXT_EXT0_EXleT_Li64EEE = comdat any

$_ZNK10ap_privateILi128ELb1ELb0EE10isNegativeEv = comdat any

$_ZN10ap_privateILi256ELb1ELb0EE6cpZextILi128ELb1EEEvRKS_IXT_EXT0_EXleT_Li64EEE = comdat any

$_ZNK10ap_privateILi128ELb1ELb0EE8get_pValEi = comdat any

$_ZNK10ap_privateILi256ELb1ELb0EE13getActiveBitsEv = comdat any

$_ZN10ap_privateILi256ELb1ELb0EE9whichWordEj = comdat any

$_ZN10ap_privateILi256ELb1ELb0EE5clearEv = comdat any

$_ZN10ap_privateILi256ELb1ELb0EE8get_pValEv = comdat any

$_ZNK10ap_privateILi256ELb1ELb0EE10isNegativeEv = comdat any

$_ZNK10ap_privateILi256ELb1ELb0EE17countLeadingZerosEv = comdat any

$_ZN10ap_privateILi128ELb1ELb0EE13cpSextOrTruncILi256ELb1EEEvRKS_IXT_EXT0_EXleT_Li64EEE = comdat any

$_ZNK10ap_privateILi256ELb1ELb0EE8get_pValEi = comdat any

$_ZN10ap_privateILi128ELb1ELb0EEaSERKS0_ = comdat any

$_ZNK10ap_privateILi128ELb1ELb0EE8get_pValEv = comdat any

$_ZN10ap_privateILi66ELb1ELb0EEaSILi128ELb1EEERS0_RKS_IXT_EXT0_EXleT_Li64EEE = comdat any

$_ZN10ap_privateILi66ELb1ELb0EE13cpSextOrTruncILi128ELb1EEEvRKS_IXT_EXT0_EXleT_Li64EEE = comdat any

$_ZN11ap_int_baseILi67ELb1EEC2ILi66ELb1EEERKS_IXT_EXT0_EE = comdat any

$_ZN11ap_int_baseILi67ELb1EEC2Ev = comdat any

$_ZNK10ap_privateILi67ELb1ELb0EEplILi67ELb1EEENS0_5RTypeIXT_EXT0_EE4plusERKS_IXT_EXT0_EXleT_Li64EEE = comdat any

$_ZN10ap_privateILi67ELb1ELb0EEaSILi68ELb1EEERS0_RKS_IXT_EXT0_EXleT_Li64EEE = comdat any

$_ZN6ap_intILi67EEC2ILi67ELb1EEERK11ap_int_baseIXT_EXT0_EE = comdat any

$_ZN11ap_int_baseILi67ELb1EED2Ev = comdat any

$_ZN12ssdm_int_simILi67ELb1EEC2Ev = comdat any

$_ZN10ap_privateILi67ELb1ELb0EEaSILi66ELb1EEERS0_RKS_IXT_EXT0_EXleT_Li64EEE = comdat any

$_ZN10ap_privateILi67ELb1ELb0EEC2Ev = comdat any

$_ZN10ap_privateILi67ELb1ELb0EE10set_canaryEv = comdat any

$_ZNV10ap_privateILi67ELb1ELb0EE15clearUnusedBitsEv = comdat any

$_ZN10ap_privateILi67ELb1ELb0EE13cpSextOrTruncILi66ELb1EEEvRKS_IXT_EXT0_EXleT_Li64EEE = comdat any

$_ZN10ap_privateILi67ELb1ELb0EE6cpSextILi66ELb1EEEvRKS_IXT_EXT0_EXleT_Li64EEE = comdat any

$_ZNK10ap_privateILi66ELb1ELb0EE10isNegativeEv = comdat any

$_ZN10ap_privateILi67ELb1ELb0EE6cpZextILi66ELb1EEEvRKS_IXT_EXT0_EXleT_Li64EEE = comdat any

$_ZNK10ap_privateILi66ELb1ELb0EE8get_pValEi = comdat any

$_ZN10ap_privateILi68ELb1ELb0EEC2Ev = comdat any

$_ZN10ap_privateILi68ELb1ELb0EEC2ILi67ELb1EEERKS_IXT_EXT0_ELb0EE = comdat any

$_ZN10ap_privateILi68ELb1ELb0EE8get_pValEv = comdat any

$_ZNV10ap_privateILi68ELb1ELb0EE15clearUnusedBitsEv = comdat any

$_ZN10ap_privateILi68ELb1ELb0EE10set_canaryEv = comdat any

$_ZN10ap_privateILi68ELb1ELb0EEaSILi67ELb1EEERS0_RKS_IXT_EXT0_EXleT_Li64EEE = comdat any

$_ZN10ap_privateILi68ELb1ELb0EE13cpSextOrTruncILi67ELb1EEEvRKS_IXT_EXT0_EXleT_Li64EEE = comdat any

$_ZN10ap_privateILi68ELb1ELb0EE6cpSextILi67ELb1EEEvRKS_IXT_EXT0_EXleT_Li64EEE = comdat any

$_ZNK10ap_privateILi67ELb1ELb0EE10isNegativeEv = comdat any

$_ZN10ap_privateILi68ELb1ELb0EE6cpZextILi67ELb1EEEvRKS_IXT_EXT0_EXleT_Li64EEE = comdat any

$_ZNK10ap_privateILi67ELb1ELb0EE8get_pValEi = comdat any

$_ZN8AESL_std3minIjEET_S1_S1_ = comdat any

$_ZN8AESL_std3minImEET_S1_S1_ = comdat any

$_ZN10ap_privateILi67ELb1ELb0EE13cpSextOrTruncILi68ELb1EEEvRKS_IXT_EXT0_EXleT_Li64EEE = comdat any

$_ZNK10ap_privateILi68ELb1ELb0EE8get_pValEi = comdat any

$_ZN10ap_privateILi67ELb1ELb0EEaSERKS0_ = comdat any

$_ZNK10ap_privateILi67ELb1ELb0EE8get_pValEv = comdat any

$_ZN10ap_privateILi67ELb1ELb0EEaSEi = comdat any

$_ZN10ap_privateILi67ELb1ELb0EEaSILi32ELb1EEERS0_RKS_IXT_EXT0_EXleT_Li64EEE = comdat any

$_ZN10ap_privateILi67ELb1ELb0EE13cpSextOrTruncILi32ELb1EEEvRKS_IXT_EXT0_EXleT_Li64EEE = comdat any

$_ZN10ap_privateILi67ELb1ELb0EE6cpSextILi32ELb1EEEvRKS_IXT_EXT0_EXleT_Li64EEE = comdat any

$_ZN10ap_privateILi67ELb1ELb0EE6cpZextILi32ELb1EEEvRKS_IXT_EXT0_EXleT_Li64EEE = comdat any

$_ZN11ap_int_baseILi68ELb1EEC2ILi67ELb1EEERKS_IXT_EXT0_EE = comdat any

$_ZN11ap_int_baseILi68ELb1EEC2Ev = comdat any

$_ZNK10ap_privateILi68ELb1ELb0EEplILi68ELb1EEENS0_5RTypeIXT_EXT0_EE4plusERKS_IXT_EXT0_EXleT_Li64EEE = comdat any

$_ZN10ap_privateILi68ELb1ELb0EEaSILi69ELb1EEERS0_RKS_IXT_EXT0_EXleT_Li64EEE = comdat any

$_ZN10ap_privateILi69ELb1ELb0EED2Ev = comdat any

$_ZN6ap_intILi68EEC2ILi68ELb1EEERK11ap_int_baseIXT_EXT0_EE = comdat any

$_ZN11ap_int_baseILi68ELb1EED2Ev = comdat any

$_ZN12ssdm_int_simILi68ELb1EEC2Ev = comdat any

$_ZN10ap_privateILi69ELb1ELb0EEC2Ev = comdat any

$_ZN10ap_privateILi69ELb1ELb0EEC2ILi68ELb1EEERKS_IXT_EXT0_ELb0EE = comdat any

$_ZN10ap_privateILi69ELb1ELb0EE8get_pValEv = comdat any

$_ZNV10ap_privateILi69ELb1ELb0EE15clearUnusedBitsEv = comdat any

$_ZN10ap_privateILi69ELb1ELb0EE10set_canaryEv = comdat any

$_ZN10ap_privateILi69ELb1ELb0EE12check_canaryEv = comdat any

$_ZN10ap_privateILi69ELb1ELb0EEaSILi68ELb1EEERS0_RKS_IXT_EXT0_EXleT_Li64EEE = comdat any

$_ZN10ap_privateILi69ELb1ELb0EE13cpSextOrTruncILi68ELb1EEEvRKS_IXT_EXT0_EXleT_Li64EEE = comdat any

$_ZN10ap_privateILi69ELb1ELb0EE6cpSextILi68ELb1EEEvRKS_IXT_EXT0_EXleT_Li64EEE = comdat any

$_ZNK10ap_privateILi68ELb1ELb0EE10isNegativeEv = comdat any

$_ZN10ap_privateILi69ELb1ELb0EE6cpZextILi68ELb1EEEvRKS_IXT_EXT0_EXleT_Li64EEE = comdat any

$_ZN10ap_privateILi68ELb1ELb0EE13cpSextOrTruncILi69ELb1EEEvRKS_IXT_EXT0_EXleT_Li64EEE = comdat any

$_ZNK10ap_privateILi69ELb1ELb0EE8get_pValEi = comdat any

$_ZN10ap_privateILi68ELb1ELb0EEaSERKS0_ = comdat any

$_ZNK10ap_privateILi68ELb1ELb0EE8get_pValEv = comdat any

$_ZNK10ap_privateILi68ELb1ELb0EEcvlEv = comdat any

$_ZNK10ap_privateILi68ELb1ELb0EE7get_VALEv = comdat any

$_ZN10ap_privateILi66ELb1ELb0EEaSEj = comdat any

$_ZN10ap_privateILi32ELb0ELb1EEC2Ej = comdat any

$_ZN10ap_privateILi66ELb1ELb0EEaSILi32ELb0EEERS0_RKS_IXT_EXT0_EXleT_Li64EEE = comdat any

$_ZN10ap_privateILi32ELb0ELb1EED2Ev = comdat any

$_ZN10ap_privateILi32ELb0ELb1EE10set_canaryEv = comdat any

$_ZNV10ap_privateILi32ELb0ELb1EE15clearUnusedBitsEv = comdat any

$_ZN10ap_privateILi32ELb0ELb1EE12check_canaryEv = comdat any

$_ZN10ap_privateILi66ELb1ELb0EE13cpZextOrTruncILi32ELb0EEEvRKS_IXT_EXT0_EXleT_Li64EEE = comdat any

$_ZN10ap_privateILi66ELb1ELb0EE6cpZextILi32ELb0EEEvRKS_IXT_EXT0_EXleT_Li64EEE = comdat any

$_ZNK10ap_privateILi32ELb0ELb1EE8get_pValEi = comdat any

$_ZN11ap_int_baseILi32ELb1EEC2Ev = comdat any

$_ZN10ap_privateILi32ELb1ELb1EEaSEi = comdat any

$_ZN12ssdm_int_simILi32ELb1EEC2Ev = comdat any

$_ZN10ap_privateILi32ELb1ELb1EEC2Ev = comdat any

$_ZNK11ap_int_baseILi32ELb1EEltILi32ELb1EEEbRKS_IXT_EXT0_EE = comdat any

$_ZN11ap_int_baseILi32ELb1EEC2Ei = comdat any

$_ZN11ap_int_baseILi32ELb1EED2Ev = comdat any

$_ZNK10ap_privateILi32ELb1ELb1EEltILi32ELb1EEEbRKS_IXT_EXT0_EXleT_Li64EEE = comdat any

$_ZN10ap_privateILi33ELb1ELb1EEC2ILi32ELb1ELb1EEERKS_IXT_EXT0_EXT1_EE = comdat any

$_ZNK10ap_privateILi33ELb1ELb1EE3sltILi33ELb1EEEbRKS_IXT_EXT0_EXleT_Li64EEE = comdat any

$_ZN10ap_privateILi33ELb1ELb1EED2Ev = comdat any

$_ZNK10ap_privateILi32ELb1ELb1EE7get_VALEv = comdat any

$_ZN10ap_privateILi33ELb1ELb1EE10set_canaryEv = comdat any

$_ZNV10ap_privateILi33ELb1ELb1EE15clearUnusedBitsEv = comdat any

$_ZN10ap_privateILi33ELb1ELb1EE12check_canaryEv = comdat any

$_ZNK10ap_privateILi33ELb1ELb1EE7get_VALEv = comdat any

$_ZN11ap_int_baseILi32ELb1EEpLILi1ELb0EEERS0_RKS_IXT_EXT0_EE = comdat any

$_ZN11ap_int_baseILi1ELb0EEC2Ei = comdat any

$_ZN11ap_int_baseILi1ELb0EED2Ev = comdat any

$_ZN10ap_privateILi32ELb1ELb1EEpLILi1ELb0EEERS0_RKS_IXT_EXT0_EXleT_Li64EEE = comdat any

$_ZNK10ap_privateILi1ELb0ELb1EE7get_VALEv = comdat any

$_ZN12ssdm_int_simILi1ELb0EEC2Ev = comdat any

$_ZN10ap_privateILi1ELb0ELb1EEaSEi = comdat any

$_ZN12ssdm_int_simILi1ELb0EED2Ev = comdat any

$_ZN10ap_privateILi1ELb0ELb1EEC2Ev = comdat any

$_ZN10ap_privateILi1ELb0ELb1EE10set_canaryEv = comdat any

$_ZNV10ap_privateILi1ELb0ELb1EE15clearUnusedBitsEv = comdat any

$_ZN10ap_privateILi1ELb0ELb1EE12check_canaryEv = comdat any

$_ZN10ap_privateILi1ELb0ELb1EED2Ev = comdat any

$_ZNK10ap_privateILi32ELb1ELb1EEcviEv = comdat any

$_ZN10ap_privateILi8ELb0ELb1EEaSEi = comdat any

$_ZZN10ap_privateILi128ELb0ELb0EE6cpSextILi32ELb1EEEvRKS_IXT_EXT0_EXleT_Li64EEEE4mask_0 = comdat any

$_ZZNK10ap_privateILi32ELb1ELb1EE10isNegativeEvE9sign_mask = comdat any

$_ZZNK10ap_privateILi128ELb0ELb0EE10isNegativeEvE4mask = comdat any

$_ZZN10ap_privateILi128ELb1ELb0EE6cpSextILi64ELb1EEEvRKS_IXT_EXT0_EXleT_Li64EEEE4mask_0 = comdat any

$_ZZNK10ap_privateILi64ELb1ELb1EE10isNegativeEvE9sign_mask = comdat any

$_ZZN10ap_privateILi256ELb1ELb0EE6cpSextILi128ELb1EEEvRKS_IXT_EXT0_EXleT_Li64EEEE4mask_0 = comdat any

$_ZZNK10ap_privateILi128ELb1ELb0EE10isNegativeEvE4mask = comdat any

$_ZZNK10ap_privateILi256ELb1ELb0EE10isNegativeEvE4mask = comdat any

$_ZZN10ap_privateILi67ELb1ELb0EE6cpSextILi66ELb1EEEvRKS_IXT_EXT0_EXleT_Li64EEEE4mask = comdat any

$_ZZN10ap_privateILi67ELb1ELb0EE6cpSextILi66ELb1EEEvRKS_IXT_EXT0_EXleT_Li64EEEE4mask_0 = comdat any

$_ZZNK10ap_privateILi66ELb1ELb0EE10isNegativeEvE4mask = comdat any

$_ZZN10ap_privateILi68ELb1ELb0EE6cpSextILi67ELb1EEEvRKS_IXT_EXT0_EXleT_Li64EEEE4mask = comdat any

$_ZZN10ap_privateILi68ELb1ELb0EE6cpSextILi67ELb1EEEvRKS_IXT_EXT0_EXleT_Li64EEEE4mask_0 = comdat any

$_ZZNK10ap_privateILi67ELb1ELb0EE10isNegativeEvE4mask = comdat any

$_ZZN10ap_privateILi67ELb1ELb0EE6cpSextILi32ELb1EEEvRKS_IXT_EXT0_EXleT_Li64EEEE4mask_0 = comdat any

$_ZZN10ap_privateILi69ELb1ELb0EE6cpSextILi68ELb1EEEvRKS_IXT_EXT0_EXleT_Li64EEEE4mask = comdat any

$_ZZN10ap_privateILi69ELb1ELb0EE6cpSextILi68ELb1EEEvRKS_IXT_EXT0_EXleT_Li64EEEE4mask_0 = comdat any

$_ZZNK10ap_privateILi68ELb1ELb0EE10isNegativeEvE4mask = comdat any

@_ZStL8__ioinit = internal global %"class.std::ios_base::Init" zeroinitializer, align 1, !dbg !0
@_ZZN10ap_privateILi128ELb0ELb0EE6cpSextILi32ELb1EEEvRKS_IXT_EXT0_EXleT_Li64EEEE4mask_0 = linkonce_odr dso_local constant i64 -4294967296, comdat, align 8, !dbg !19
@_ZZNK10ap_privateILi32ELb1ELb1EE10isNegativeEvE9sign_mask = linkonce_odr dso_local constant i64 2147483648, comdat, align 8, !dbg !15481
@stderr = external dso_local global %struct._IO_FILE*, align 8
@.str = private unnamed_addr constant [41 x i8] c"ERROR: Hi(%d)out of bound(%d) in range()\00", align 1
@.str.1 = private unnamed_addr constant [2 x i8] c"\0A\00", align 1
@.str.2 = private unnamed_addr constant [41 x i8] c"ERROR: Lo(%d)out of bound(%d) in range()\00", align 1
@.str.3 = private unnamed_addr constant [68 x i8] c"WARNING: Higher bound (%d) and lower bound (%d) cannot be negative.\00", align 1
@.str.4 = private unnamed_addr constant [66 x i8] c"WARNING: Higher bound (%d) or lower bound (%d) out of range (%d).\00", align 1
@.str.5 = private unnamed_addr constant [56 x i8] c"WARNING: Index of bit vector  (%d) cannot be negative.\0A\00", align 1
@.str.6 = private unnamed_addr constant [54 x i8] c"WARNING: Index of bit vector (%d) out of range (%d).\0A\00", align 1
@.str.7 = private unnamed_addr constant [43 x i8] c"Attempting to read bit with negative index\00", align 1
@.str.8 = private unnamed_addr constant [55 x i8] c"i >= 0 && \22Attempting to read bit with negative index\22\00", align 1
@.str.9 = private unnamed_addr constant [27 x i8] c"./include/etc/ap_private.h\00", align 1
@__PRETTY_FUNCTION__._ZNK10ap_privateILi128ELb0ELb0EE7get_bitEi = private unnamed_addr constant [99 x i8] c"bool ap_private<128, false, false>::get_bit(int) const [_AP_W = 128, _AP_S = false, _AP_C = false]\00", align 1
@.str.10 = private unnamed_addr constant [34 x i8] c"Attempting to read bit beyond MSB\00", align 1
@.str.11 = private unnamed_addr constant [49 x i8] c"i < _AP_W && \22Attempting to read bit beyond MSB\22\00", align 1
@_ZZNK10ap_privateILi128ELb0ELb0EE10isNegativeEvE4mask = linkonce_odr dso_local constant i64 -9223372036854775808, comdat, align 8, !dbg !15484
@.str.12 = private unnamed_addr constant [30 x i8] c"Invalid shift amount, too big\00", align 1
@.str.13 = private unnamed_addr constant [56 x i8] c"shiftAmt <= BitWidth && \22Invalid shift amount, too big\22\00", align 1
@__PRETTY_FUNCTION__._ZNK10ap_privateILi128ELb0ELb0EE3shlEj = private unnamed_addr constant [127 x i8] c"ap_private<_AP_W, _AP_S, false> ap_private<128, false, false>::shl(uint32_t) const [_AP_W = 128, _AP_S = false, _AP_C = false]\00", align 1
@_ZZN10ap_privateILi128ELb1ELb0EE6cpSextILi64ELb1EEEvRKS_IXT_EXT0_EXleT_Li64EEEE4mask_0 = linkonce_odr dso_local constant i64 0, comdat, align 8, !dbg !15487
@_ZZNK10ap_privateILi64ELb1ELb1EE10isNegativeEvE9sign_mask = linkonce_odr dso_local constant i64 -9223372036854775808, comdat, align 8, !dbg !15496
@_ZZN10ap_privateILi256ELb1ELb0EE6cpSextILi128ELb1EEEvRKS_IXT_EXT0_EXleT_Li64EEEE4mask_0 = linkonce_odr dso_local constant i64 0, comdat, align 8, !dbg !15499
@_ZZNK10ap_privateILi128ELb1ELb0EE10isNegativeEvE4mask = linkonce_odr dso_local constant i64 -9223372036854775808, comdat, align 8, !dbg !15507
@.str.14 = private unnamed_addr constant [9 x i8] c"xlen > 0\00", align 1
@__PRETTY_FUNCTION__._ZN14ap_private_opsL3mulEPmPKmjS2_jj = private unnamed_addr constant [103 x i8] c"void ap_private_ops::mul(uint64_t *, const uint64_t *, uint32_t, const uint64_t *, uint32_t, uint32_t)\00", align 1
@.str.15 = private unnamed_addr constant [9 x i8] c"ylen > 0\00", align 1
@.str.16 = private unnamed_addr constant [23 x i8] c"destlen >= xlen + ylen\00", align 1
@_ZZN14ap_private_opsL5mul_1EPmPKmjmE12two_power_32 = internal constant i64 4294967296, align 8, !dbg !15510
@_ZZNK10ap_privateILi256ELb1ELb0EE10isNegativeEvE4mask = linkonce_odr dso_local constant i64 -9223372036854775808, comdat, align 8, !dbg !15516
@_ZZN10ap_privateILi67ELb1ELb0EE6cpSextILi66ELb1EEEvRKS_IXT_EXT0_EXleT_Li64EEEE4mask = linkonce_odr dso_local constant i64 -4, comdat, align 8, !dbg !15519
@_ZZN10ap_privateILi67ELb1ELb0EE6cpSextILi66ELb1EEEvRKS_IXT_EXT0_EXleT_Li64EEEE4mask_0 = linkonce_odr dso_local constant i64 -4, comdat, align 8, !dbg !15527
@_ZZNK10ap_privateILi66ELb1ELb0EE10isNegativeEvE4mask = linkonce_odr dso_local constant i64 2, comdat, align 8, !dbg !15529
@_ZZN10ap_privateILi68ELb1ELb0EE6cpSextILi67ELb1EEEvRKS_IXT_EXT0_EXleT_Li64EEEE4mask = linkonce_odr dso_local constant i64 -8, comdat, align 8, !dbg !15532
@_ZZN10ap_privateILi68ELb1ELb0EE6cpSextILi67ELb1EEEvRKS_IXT_EXT0_EXleT_Li64EEEE4mask_0 = linkonce_odr dso_local constant i64 -8, comdat, align 8, !dbg !15540
@_ZZNK10ap_privateILi67ELb1ELb0EE10isNegativeEvE4mask = linkonce_odr dso_local constant i64 4, comdat, align 8, !dbg !15542
@_ZZN10ap_privateILi67ELb1ELb0EE6cpSextILi32ELb1EEEvRKS_IXT_EXT0_EXleT_Li64EEEE4mask_0 = linkonce_odr dso_local constant i64 -4294967296, comdat, align 8, !dbg !15545
@_ZZN10ap_privateILi69ELb1ELb0EE6cpSextILi68ELb1EEEvRKS_IXT_EXT0_EXleT_Li64EEEE4mask = linkonce_odr dso_local constant i64 -16, comdat, align 8, !dbg !15553
@_ZZN10ap_privateILi69ELb1ELb0EE6cpSextILi68ELb1EEEvRKS_IXT_EXT0_EXleT_Li64EEEE4mask_0 = linkonce_odr dso_local constant i64 -16, comdat, align 8, !dbg !15561
@_ZZNK10ap_privateILi68ELb1ELb0EE10isNegativeEvE4mask = linkonce_odr dso_local constant i64 8, comdat, align 8, !dbg !15563
@llvm.global_ctors = appending global [1 x { i32, void ()*, i8* }] [{ i32, void ()*, i8* } { i32 65535, void ()* @_GLOBAL__sub_I_store_v1.cc, i8* null }]
@__dso_handle = hidden global i8* null, align 8, !dbg !17058
@.str.17 = private unnamed_addr constant [8 x i8] c"IGNORED\00", align 1
@.str.1.18 = private unnamed_addr constant [16 x i8] c"overshift error\00", align 1
@.str.2.19 = private unnamed_addr constant [14 x i8] c"overshift.err\00", align 1

; Function Attrs: noinline uwtable
define internal void @__cxx_global_var_init() #0 section ".text.startup" !dbg !17074 {
  call void @_ZNSt8ios_base4InitC1Ev(%"class.std::ios_base::Init"* @_ZStL8__ioinit), !dbg !17075
  %1 = call i32 @__cxa_atexit(void (i8*)* bitcast (void (%"class.std::ios_base::Init"*)* @_ZNSt8ios_base4InitD1Ev to void (i8*)*), i8* getelementptr inbounds (%"class.std::ios_base::Init", %"class.std::ios_base::Init"* @_ZStL8__ioinit, i32 0, i32 0), i8* bitcast (i8** @__dso_handle to i8*)) #3, !dbg !17075
  ret void, !dbg !17075
}

declare dso_local void @_ZNSt8ios_base4InitC1Ev(%"class.std::ios_base::Init"*) unnamed_addr #1

; Function Attrs: nounwind
declare dso_local void @_ZNSt8ios_base4InitD1Ev(%"class.std::ios_base::Init"*) unnamed_addr #2

; Function Attrs: nounwind
declare dso_local i32 @__cxa_atexit(void (i8*)*, i8*, i8*) #3

; Function Attrs: noinline uwtable
define dso_local void @_Z16default_functionjjPA1_A16_7ap_uintILi8EEPS0_(i32, i32, [1 x [16 x %struct.ap_uint]]*, %struct.ap_uint*) #0 personality i8* bitcast (i32 (...)* @__gxx_personality_v0 to i8*) !dbg !17076 {
  %5 = alloca i32, align 4
  %6 = alloca i32, align 4
  %7 = alloca [1 x [16 x %struct.ap_uint]]*, align 8
  %8 = alloca %struct.ap_uint*, align 8
  %9 = alloca i32, align 4
  %10 = alloca i32, align 4
  %11 = alloca i32, align 4
  %12 = alloca i32, align 4
  %13 = alloca i32, align 4
  %14 = alloca i32, align 4
  %15 = alloca i32, align 4
  %16 = alloca i32, align 4
  %17 = alloca i32, align 4
  %18 = alloca i32, align 4
  %19 = alloca [16 x %struct.ap_uint], align 16
  %20 = alloca i8*
  %21 = alloca i32
  %22 = alloca i32, align 4
  %23 = alloca %struct.ap_uint.0, align 8
  %24 = alloca i32, align 4
  %25 = alloca %struct.ap_uint.0, align 8
  %26 = alloca i32, align 4
  %27 = alloca %struct.ap_uint.0, align 8
  %28 = alloca i32, align 4
  %29 = alloca %struct.ap_range_ref, align 8
  %30 = alloca i32, align 4
  %31 = alloca %struct.ap_uint.0, align 8
  %32 = alloca i32, align 4
  %33 = alloca i32, align 4
  %34 = alloca i32, align 4
  %35 = alloca %struct.ap_uint.4, align 1
  %36 = alloca %struct.ap_range_ref, align 8
  %37 = alloca i32, align 4
  %38 = alloca i32, align 4
  %39 = alloca %struct.ap_uint.8, align 1
  %40 = alloca %struct.ap_range_ref, align 8
  %41 = alloca %struct.ap_uint.0, align 8
  %42 = alloca i32, align 4
  %43 = alloca %struct.ap_uint.12, align 2
  %44 = alloca i32, align 4
  %45 = alloca %struct.ap_uint.12, align 2
  %46 = alloca %struct.ap_range_ref, align 8
  %47 = alloca i32, align 4
  %48 = alloca i32, align 4
  %49 = alloca %struct.ap_range_ref, align 8
  %50 = alloca i32, align 4
  %51 = alloca i32, align 4
  %52 = alloca %struct.ap_uint.12, align 2
  %53 = alloca %struct.ap_range_ref, align 8
  %54 = alloca i32, align 4
  %55 = alloca i32, align 4
  %56 = alloca %struct.ap_uint.12, align 2
  %57 = alloca %struct.ap_range_ref, align 8
  %58 = alloca i32, align 4
  %59 = alloca i32, align 4
  %60 = alloca %struct.ap_uint.12, align 2
  %61 = alloca %struct.ap_range_ref, align 8
  %62 = alloca i32, align 4
  %63 = alloca i32, align 4
  %64 = alloca i32, align 4
  %65 = alloca i32, align 4
  %66 = alloca i32, align 4
  %67 = alloca i32, align 4
  %68 = alloca %struct.ap_int, align 8
  %69 = alloca %struct.ap_int.22, align 8
  %70 = alloca %struct.ap_int.26, align 8
  %71 = alloca %struct.ap_int.26, align 8
  %72 = alloca %struct.ap_int.27, align 8
  %73 = alloca %struct.ap_int.34, align 8
  %74 = alloca %struct.ap_int.34, align 8
  %75 = alloca %struct.ap_int.22, align 8
  %76 = alloca i32, align 4
  %77 = alloca i32, align 4
  %78 = alloca %struct.ap_int, align 8
  %79 = alloca %struct.ap_int.22, align 8
  %80 = alloca %struct.ap_int.26, align 8
  %81 = alloca %struct.ap_int.26, align 8
  %82 = alloca %struct.ap_int.27, align 8
  %83 = alloca %struct.ap_int.34, align 8
  %84 = alloca %struct.ap_int.34, align 8
  %85 = alloca %struct.ap_int.22, align 8
  %86 = alloca i32, align 4
  %87 = alloca i32, align 4
  %88 = alloca i32, align 4
  %89 = alloca i32, align 4
  store i32 %0, i32* %5, align 4
  call void @llvm.dbg.declare(metadata i32* %5, metadata !17422, metadata !DIExpression()), !dbg !17423
  store i32 %1, i32* %6, align 4
  call void @llvm.dbg.declare(metadata i32* %6, metadata !17424, metadata !DIExpression()), !dbg !17425
  store [1 x [16 x %struct.ap_uint]]* %2, [1 x [16 x %struct.ap_uint]]** %7, align 8
  call void @llvm.dbg.declare(metadata [1 x [16 x %struct.ap_uint]]** %7, metadata !17426, metadata !DIExpression()), !dbg !17427
  store %struct.ap_uint* %3, %struct.ap_uint** %8, align 8
  call void @llvm.dbg.declare(metadata %struct.ap_uint** %8, metadata !17428, metadata !DIExpression()), !dbg !17429
  call void @llvm.dbg.declare(metadata i32* %9, metadata !17430, metadata !DIExpression()), !dbg !17431
  call void @llvm.dbg.declare(metadata i32* %10, metadata !17432, metadata !DIExpression()), !dbg !17433
  call void @llvm.dbg.declare(metadata i32* %11, metadata !17434, metadata !DIExpression()), !dbg !17435
  call void @llvm.dbg.label(metadata !17436), !dbg !17437
  call void @llvm.dbg.declare(metadata i32* %12, metadata !17438, metadata !DIExpression()), !dbg !17440
  store i32 0, i32* %12, align 4, !dbg !17440
  br label %90, !dbg !17441

90:                                               ; preds = %93, %4
  %91 = load i32, i32* %12, align 4, !dbg !17442
  %92 = icmp slt i32 %91, 1, !dbg !17444
  br i1 %92, label %93, label %97, !dbg !17445

93:                                               ; preds = %90
  %94 = load i32, i32* %5, align 4, !dbg !17446
  store i32 %94, i32* %11, align 4, !dbg !17448
  %95 = load i32, i32* %12, align 4, !dbg !17449
  %96 = add nsw i32 %95, 1, !dbg !17449
  store i32 %96, i32* %12, align 4, !dbg !17449
  br label %90, !dbg !17450, !llvm.loop !17451

97:                                               ; preds = %90
  call void @llvm.dbg.declare(metadata i32* %13, metadata !17453, metadata !DIExpression()), !dbg !17454
  call void @llvm.dbg.label(metadata !17455), !dbg !17456
  call void @llvm.dbg.declare(metadata i32* %14, metadata !17457, metadata !DIExpression()), !dbg !17459
  store i32 0, i32* %14, align 4, !dbg !17459
  br label %98, !dbg !17460

98:                                               ; preds = %101, %97
  %99 = load i32, i32* %14, align 4, !dbg !17461
  %100 = icmp slt i32 %99, 1, !dbg !17463
  br i1 %100, label %101, label %104, !dbg !17464

101:                                              ; preds = %98
  store i32 2, i32* %13, align 4, !dbg !17465
  %102 = load i32, i32* %14, align 4, !dbg !17467
  %103 = add nsw i32 %102, 1, !dbg !17467
  store i32 %103, i32* %14, align 4, !dbg !17467
  br label %98, !dbg !17468, !llvm.loop !17469

104:                                              ; preds = %98
  call void @llvm.dbg.label(metadata !17471), !dbg !17472
  call void @llvm.dbg.declare(metadata i32* %15, metadata !17473, metadata !DIExpression()), !dbg !17475
  store i32 0, i32* %15, align 4, !dbg !17475
  br label %105, !dbg !17476

105:                                              ; preds = %585, %104
  %106 = load i32, i32* %15, align 4, !dbg !17477
  %107 = load i32, i32* %13, align 4, !dbg !17479
  %108 = icmp slt i32 %106, %107, !dbg !17480
  br i1 %108, label %109, label %588, !dbg !17481

109:                                              ; preds = %105
  call void @llvm.dbg.declare(metadata i32* %16, metadata !17482, metadata !DIExpression()), !dbg !17484
  call void @llvm.dbg.label(metadata !17485), !dbg !17486
  call void @llvm.dbg.declare(metadata i32* %17, metadata !17487, metadata !DIExpression()), !dbg !17489
  store i32 0, i32* %17, align 4, !dbg !17489
  br label %110, !dbg !17490

110:                                              ; preds = %113, %109
  %111 = load i32, i32* %17, align 4, !dbg !17491
  %112 = icmp slt i32 %111, 1, !dbg !17493
  br i1 %112, label %113, label %117, !dbg !17494

113:                                              ; preds = %110
  %114 = load i32, i32* %6, align 4, !dbg !17495
  store i32 %114, i32* %16, align 4, !dbg !17497
  %115 = load i32, i32* %17, align 4, !dbg !17498
  %116 = add nsw i32 %115, 1, !dbg !17498
  store i32 %116, i32* %17, align 4, !dbg !17498
  br label %110, !dbg !17499, !llvm.loop !17500

117:                                              ; preds = %110
  call void @llvm.dbg.label(metadata !17502), !dbg !17503
  call void @llvm.dbg.declare(metadata i32* %18, metadata !17504, metadata !DIExpression()), !dbg !17506
  store i32 0, i32* %18, align 4, !dbg !17506
  br label %118, !dbg !17507

118:                                              ; preds = %573, %117
  %119 = load i32, i32* %18, align 4, !dbg !17508
  %120 = load i32, i32* %16, align 4, !dbg !17510
  %121 = icmp slt i32 %119, %120, !dbg !17511
  br i1 %121, label %122, label %585, !dbg !17512

122:                                              ; preds = %118
  call void @llvm.dbg.declare(metadata [16 x %struct.ap_uint]* %19, metadata !17513, metadata !DIExpression()), !dbg !17517
  %123 = getelementptr inbounds [16 x %struct.ap_uint], [16 x %struct.ap_uint]* %19, i32 0, i32 0, !dbg !17517
  %124 = getelementptr inbounds %struct.ap_uint, %struct.ap_uint* %123, i64 16, !dbg !17517
  br label %125, !dbg !17517

125:                                              ; preds = %127, %122
  %126 = phi %struct.ap_uint* [ %123, %122 ], [ %128, %127 ], !dbg !17517
  invoke void @_ZN7ap_uintILi8EEC2Ev(%struct.ap_uint* %126)
          to label %127 unwind label %148, !dbg !17517

127:                                              ; preds = %125
  %128 = getelementptr inbounds %struct.ap_uint, %struct.ap_uint* %126, i64 1, !dbg !17517
  %129 = icmp eq %struct.ap_uint* %128, %124, !dbg !17517
  br i1 %129, label %130, label %125, !dbg !17517

130:                                              ; preds = %127
  call void @llvm.dbg.label(metadata !17518), !dbg !17519
  call void @llvm.dbg.declare(metadata i32* %22, metadata !17520, metadata !DIExpression()), !dbg !17522
  store i32 0, i32* %22, align 4, !dbg !17522
  br label %131, !dbg !17523

131:                                              ; preds = %145, %130
  %132 = load i32, i32* %22, align 4, !dbg !17524
  %133 = icmp slt i32 %132, 16, !dbg !17526
  br i1 %133, label %134, label %161, !dbg !17527

134:                                              ; preds = %131
  %135 = load %struct.ap_uint*, %struct.ap_uint** %8, align 8, !dbg !17528
  %136 = load i32, i32* %11, align 4, !dbg !17530
  %137 = load i32, i32* %22, align 4, !dbg !17531
  %138 = add nsw i32 %136, %137, !dbg !17532
  %139 = sext i32 %138 to i64, !dbg !17528
  %140 = getelementptr inbounds %struct.ap_uint, %struct.ap_uint* %135, i64 %139, !dbg !17528
  %141 = load i32, i32* %22, align 4, !dbg !17533
  %142 = sext i32 %141 to i64, !dbg !17534
  %143 = getelementptr inbounds [16 x %struct.ap_uint], [16 x %struct.ap_uint]* %19, i64 0, i64 %142, !dbg !17534
  %144 = invoke dereferenceable(1) %struct.ap_uint* @_ZN7ap_uintILi8EEaSERKS0_(%struct.ap_uint* %143, %struct.ap_uint* dereferenceable(1) %140)
          to label %145 unwind label %157, !dbg !17535

145:                                              ; preds = %134
  %146 = load i32, i32* %22, align 4, !dbg !17536
  %147 = add nsw i32 %146, 1, !dbg !17536
  store i32 %147, i32* %22, align 4, !dbg !17536
  br label %131, !dbg !17537, !llvm.loop !17538

148:                                              ; preds = %125
  %149 = landingpad { i8*, i32 }
          cleanup, !dbg !17540
  %150 = extractvalue { i8*, i32 } %149, 0, !dbg !17540
  store i8* %150, i8** %20, align 8, !dbg !17540
  %151 = extractvalue { i8*, i32 } %149, 1, !dbg !17540
  store i32 %151, i32* %21, align 4, !dbg !17540
  %152 = icmp eq %struct.ap_uint* %123, %126, !dbg !17517
  br i1 %152, label %589, label %153, !dbg !17517

153:                                              ; preds = %153, %148
  %154 = phi %struct.ap_uint* [ %126, %148 ], [ %155, %153 ], !dbg !17517
  %155 = getelementptr inbounds %struct.ap_uint, %struct.ap_uint* %154, i64 -1, !dbg !17517
  call void @_ZN7ap_uintILi8EED2Ev(%struct.ap_uint* %155) #3, !dbg !17517
  %156 = icmp eq %struct.ap_uint* %155, %123, !dbg !17517
  br i1 %156, label %589, label %153, !dbg !17517

157:                                              ; preds = %161, %134
  %158 = landingpad { i8*, i32 }
          cleanup, !dbg !17541
  %159 = extractvalue { i8*, i32 } %158, 0, !dbg !17541
  store i8* %159, i8** %20, align 8, !dbg !17541
  %160 = extractvalue { i8*, i32 } %158, 1, !dbg !17541
  store i32 %160, i32* %21, align 4, !dbg !17541
  br label %578, !dbg !17541

161:                                              ; preds = %131
  call void @llvm.dbg.declare(metadata %struct.ap_uint.0* %23, metadata !17542, metadata !DIExpression()), !dbg !17543
  invoke void @_ZN7ap_uintILi128EEC2Ev(%struct.ap_uint.0* %23)
          to label %162 unwind label %157, !dbg !17543

162:                                              ; preds = %161
  call void @llvm.dbg.label(metadata !17544), !dbg !17545
  call void @llvm.dbg.declare(metadata i32* %24, metadata !17546, metadata !DIExpression()), !dbg !17548
  store i32 0, i32* %24, align 4, !dbg !17548
  br label %163, !dbg !17549

163:                                              ; preds = %214, %162
  %164 = load i32, i32* %24, align 4, !dbg !17550
  %165 = icmp slt i32 %164, 1, !dbg !17552
  br i1 %165, label %166, label %218, !dbg !17553

166:                                              ; preds = %163
  call void @llvm.dbg.declare(metadata %struct.ap_uint.0* %25, metadata !17554, metadata !DIExpression()), !dbg !17556
  invoke void @_ZN7ap_uintILi128EEC2Ev(%struct.ap_uint.0* %25)
          to label %167 unwind label %177, !dbg !17556

167:                                              ; preds = %166
  call void @llvm.dbg.label(metadata !17557), !dbg !17558
  call void @llvm.dbg.declare(metadata i32* %26, metadata !17559, metadata !DIExpression()), !dbg !17561
  store i32 0, i32* %26, align 4, !dbg !17561
  br label %168, !dbg !17562

168:                                              ; preds = %174, %167
  %169 = load i32, i32* %26, align 4, !dbg !17563
  %170 = icmp slt i32 %169, 1, !dbg !17565
  br i1 %170, label %171, label %189, !dbg !17566

171:                                              ; preds = %168
  invoke void @_ZN7ap_uintILi128EEC2Ei(%struct.ap_uint.0* %27, i32 0)
          to label %172 unwind label %181, !dbg !17567

172:                                              ; preds = %171
  %173 = invoke dereferenceable(16) %struct.ap_uint.0* @_ZN7ap_uintILi128EEaSERKS0_(%struct.ap_uint.0* %25, %struct.ap_uint.0* dereferenceable(16) %27)
          to label %174 unwind label %185, !dbg !17569

174:                                              ; preds = %172
  call void @_ZN7ap_uintILi128EED2Ev(%struct.ap_uint.0* %27) #3, !dbg !17570
  %175 = load i32, i32* %26, align 4, !dbg !17571
  %176 = add nsw i32 %175, 1, !dbg !17571
  store i32 %176, i32* %26, align 4, !dbg !17571
  br label %168, !dbg !17572, !llvm.loop !17573

177:                                              ; preds = %218, %166
  %178 = landingpad { i8*, i32 }
          cleanup, !dbg !17575
  %179 = extractvalue { i8*, i32 } %178, 0, !dbg !17575
  store i8* %179, i8** %20, align 8, !dbg !17575
  %180 = extractvalue { i8*, i32 } %178, 1, !dbg !17575
  store i32 %180, i32* %21, align 4, !dbg !17575
  br label %577, !dbg !17575

181:                                              ; preds = %212, %207, %193, %171
  %182 = landingpad { i8*, i32 }
          cleanup, !dbg !17576
  %183 = extractvalue { i8*, i32 } %182, 0, !dbg !17576
  store i8* %183, i8** %20, align 8, !dbg !17576
  %184 = extractvalue { i8*, i32 } %182, 1, !dbg !17576
  store i32 %184, i32* %21, align 4, !dbg !17576
  br label %217, !dbg !17576

185:                                              ; preds = %172
  %186 = landingpad { i8*, i32 }
          cleanup, !dbg !17576
  %187 = extractvalue { i8*, i32 } %186, 0, !dbg !17576
  store i8* %187, i8** %20, align 8, !dbg !17576
  %188 = extractvalue { i8*, i32 } %186, 1, !dbg !17576
  store i32 %188, i32* %21, align 4, !dbg !17576
  call void @_ZN7ap_uintILi128EED2Ev(%struct.ap_uint.0* %27) #3, !dbg !17570
  br label %217, !dbg !17570

189:                                              ; preds = %168
  call void @llvm.dbg.label(metadata !17577), !dbg !17578
  call void @llvm.dbg.declare(metadata i32* %28, metadata !17579, metadata !DIExpression()), !dbg !17581
  store i32 0, i32* %28, align 4, !dbg !17581
  br label %190, !dbg !17582

190:                                              ; preds = %209, %189
  %191 = load i32, i32* %28, align 4, !dbg !17583
  %192 = icmp slt i32 %191, 16, !dbg !17585
  br i1 %192, label %193, label %212, !dbg !17586

193:                                              ; preds = %190
  %194 = load i32, i32* %24, align 4, !dbg !17587
  %195 = mul nsw i32 %194, 16, !dbg !17589
  %196 = load i32, i32* %28, align 4, !dbg !17590
  %197 = add nsw i32 %195, %196, !dbg !17591
  %198 = sext i32 %197 to i64, !dbg !17592
  %199 = getelementptr inbounds [16 x %struct.ap_uint], [16 x %struct.ap_uint]* %19, i64 0, i64 %198, !dbg !17592
  %200 = bitcast %struct.ap_uint* %199 to %struct.ap_int_base*, !dbg !17592
  %201 = bitcast %struct.ap_uint.0* %25 to %struct.ap_int_base.1*, !dbg !17593
  %202 = load i32, i32* %28, align 4, !dbg !17594
  %203 = mul nsw i32 %202, 8, !dbg !17595
  %204 = add nsw i32 %203, 7, !dbg !17596
  %205 = load i32, i32* %28, align 4, !dbg !17597
  %206 = mul nsw i32 %205, 8, !dbg !17598
  invoke void @_ZN11ap_int_baseILi128ELb0EEclEii(%struct.ap_range_ref* sret %29, %struct.ap_int_base.1* %201, i32 %204, i32 %206)
          to label %207 unwind label %181, !dbg !17593

207:                                              ; preds = %193
  %208 = invoke dereferenceable(16) %struct.ap_range_ref* @_ZN12ap_range_refILi128ELb0EEaSILi8ELb0EEERS0_RK11ap_int_baseIXT_EXT0_EE(%struct.ap_range_ref* %29, %struct.ap_int_base* dereferenceable(1) %200)
          to label %209 unwind label %181, !dbg !17599

209:                                              ; preds = %207
  %210 = load i32, i32* %28, align 4, !dbg !17600
  %211 = add nsw i32 %210, 1, !dbg !17600
  store i32 %211, i32* %28, align 4, !dbg !17600
  br label %190, !dbg !17601, !llvm.loop !17602

212:                                              ; preds = %190
  %213 = invoke dereferenceable(16) %struct.ap_uint.0* @_ZN7ap_uintILi128EEaSERKS0_(%struct.ap_uint.0* %23, %struct.ap_uint.0* dereferenceable(16) %25)
          to label %214 unwind label %181, !dbg !17604

214:                                              ; preds = %212
  call void @_ZN7ap_uintILi128EED2Ev(%struct.ap_uint.0* %25) #3, !dbg !17605
  %215 = load i32, i32* %24, align 4, !dbg !17606
  %216 = add nsw i32 %215, 1, !dbg !17606
  store i32 %216, i32* %24, align 4, !dbg !17606
  br label %163, !dbg !17607, !llvm.loop !17608

217:                                              ; preds = %185, %181
  call void @_ZN7ap_uintILi128EED2Ev(%struct.ap_uint.0* %25) #3, !dbg !17605
  br label %577, !dbg !17605

218:                                              ; preds = %163
  call void @llvm.dbg.declare(metadata i32* %30, metadata !17610, metadata !DIExpression()), !dbg !17611
  call void @llvm.dbg.declare(metadata %struct.ap_uint.0* %31, metadata !17612, metadata !DIExpression()), !dbg !17613
  invoke void @_ZN7ap_uintILi128EEC2Ev(%struct.ap_uint.0* %31)
          to label %219 unwind label %177, !dbg !17613

219:                                              ; preds = %218
  call void @llvm.dbg.label(metadata !17614), !dbg !17615
  call void @llvm.dbg.declare(metadata i32* %32, metadata !17616, metadata !DIExpression()), !dbg !17618
  store i32 0, i32* %32, align 4, !dbg !17618
  br label %220, !dbg !17619

220:                                              ; preds = %225, %219
  %221 = load i32, i32* %32, align 4, !dbg !17620
  %222 = icmp slt i32 %221, 1, !dbg !17622
  br i1 %222, label %223, label %232, !dbg !17623

223:                                              ; preds = %220
  %224 = invoke dereferenceable(16) %struct.ap_uint.0* @_ZN7ap_uintILi128EEaSERKS0_(%struct.ap_uint.0* %31, %struct.ap_uint.0* dereferenceable(16) %23)
          to label %225 unwind label %228, !dbg !17624

225:                                              ; preds = %223
  %226 = load i32, i32* %32, align 4, !dbg !17626
  %227 = add nsw i32 %226, 1, !dbg !17626
  store i32 %227, i32* %32, align 4, !dbg !17626
  br label %220, !dbg !17627, !llvm.loop !17628

228:                                              ; preds = %271, %256, %254, %238, %236, %223
  %229 = landingpad { i8*, i32 }
          cleanup, !dbg !17630
  %230 = extractvalue { i8*, i32 } %229, 0, !dbg !17630
  store i8* %230, i8** %20, align 8, !dbg !17630
  %231 = extractvalue { i8*, i32 } %229, 1, !dbg !17630
  store i32 %231, i32* %21, align 4, !dbg !17630
  br label %576, !dbg !17630

232:                                              ; preds = %220
  call void @llvm.dbg.declare(metadata i32* %33, metadata !17631, metadata !DIExpression()), !dbg !17632
  call void @llvm.dbg.label(metadata !17633), !dbg !17634
  call void @llvm.dbg.declare(metadata i32* %34, metadata !17635, metadata !DIExpression()), !dbg !17637
  store i32 0, i32* %34, align 4, !dbg !17637
  br label %233, !dbg !17638

233:                                              ; preds = %242, %232
  %234 = load i32, i32* %34, align 4, !dbg !17639
  %235 = icmp slt i32 %234, 1, !dbg !17641
  br i1 %235, label %236, label %250, !dbg !17642

236:                                              ; preds = %233
  %237 = bitcast %struct.ap_uint.0* %31 to %struct.ap_int_base.1*, !dbg !17643
  invoke void @_ZN11ap_int_baseILi128ELb0EEclEii(%struct.ap_range_ref* sret %36, %struct.ap_int_base.1* %237, i32 2, i32 0)
          to label %238 unwind label %228, !dbg !17643

238:                                              ; preds = %236
  invoke void @_ZN7ap_uintILi3EEC2ILi128ELb0EEERK12ap_range_refIXT_EXT0_EE(%struct.ap_uint.4* %35, %struct.ap_range_ref* dereferenceable(16) %36)
          to label %239 unwind label %228, !dbg !17645

239:                                              ; preds = %238
  %240 = bitcast %struct.ap_uint.4* %35 to %struct.ap_int_base.5*, !dbg !17646
  %241 = invoke i64 @_ZNK11ap_int_baseILi3ELb0EEcvyEv(%struct.ap_int_base.5* %240)
          to label %242 unwind label %246, !dbg !17646

242:                                              ; preds = %239
  %243 = trunc i64 %241 to i32, !dbg !17646
  store i32 %243, i32* %33, align 4, !dbg !17647
  call void @_ZN7ap_uintILi3EED2Ev(%struct.ap_uint.4* %35) #3, !dbg !17648
  %244 = load i32, i32* %34, align 4, !dbg !17649
  %245 = add nsw i32 %244, 1, !dbg !17649
  store i32 %245, i32* %34, align 4, !dbg !17649
  br label %233, !dbg !17650, !llvm.loop !17651

246:                                              ; preds = %239
  %247 = landingpad { i8*, i32 }
          cleanup, !dbg !17653
  %248 = extractvalue { i8*, i32 } %247, 0, !dbg !17653
  store i8* %248, i8** %20, align 8, !dbg !17653
  %249 = extractvalue { i8*, i32 } %247, 1, !dbg !17653
  store i32 %249, i32* %21, align 4, !dbg !17653
  call void @_ZN7ap_uintILi3EED2Ev(%struct.ap_uint.4* %35) #3, !dbg !17648
  br label %576, !dbg !17648

250:                                              ; preds = %233
  call void @llvm.dbg.declare(metadata i32* %37, metadata !17654, metadata !DIExpression()), !dbg !17655
  call void @llvm.dbg.label(metadata !17656), !dbg !17657
  call void @llvm.dbg.declare(metadata i32* %38, metadata !17658, metadata !DIExpression()), !dbg !17660
  store i32 0, i32* %38, align 4, !dbg !17660
  br label %251, !dbg !17661

251:                                              ; preds = %260, %250
  %252 = load i32, i32* %38, align 4, !dbg !17662
  %253 = icmp slt i32 %252, 1, !dbg !17664
  br i1 %253, label %254, label %268, !dbg !17665

254:                                              ; preds = %251
  %255 = bitcast %struct.ap_uint.0* %31 to %struct.ap_int_base.1*, !dbg !17666
  invoke void @_ZN11ap_int_baseILi128ELb0EEclEii(%struct.ap_range_ref* sret %40, %struct.ap_int_base.1* %255, i32 8, i32 7)
          to label %256 unwind label %228, !dbg !17666

256:                                              ; preds = %254
  invoke void @_ZN7ap_uintILi2EEC2ILi128ELb0EEERK12ap_range_refIXT_EXT0_EE(%struct.ap_uint.8* %39, %struct.ap_range_ref* dereferenceable(16) %40)
          to label %257 unwind label %228, !dbg !17668

257:                                              ; preds = %256
  %258 = bitcast %struct.ap_uint.8* %39 to %struct.ap_int_base.9*, !dbg !17669
  %259 = invoke i64 @_ZNK11ap_int_baseILi2ELb0EEcvyEv(%struct.ap_int_base.9* %258)
          to label %260 unwind label %264, !dbg !17669

260:                                              ; preds = %257
  %261 = trunc i64 %259 to i32, !dbg !17669
  store i32 %261, i32* %37, align 4, !dbg !17670
  call void @_ZN7ap_uintILi2EED2Ev(%struct.ap_uint.8* %39) #3, !dbg !17671
  %262 = load i32, i32* %38, align 4, !dbg !17672
  %263 = add nsw i32 %262, 1, !dbg !17672
  store i32 %263, i32* %38, align 4, !dbg !17672
  br label %251, !dbg !17673, !llvm.loop !17674

264:                                              ; preds = %257
  %265 = landingpad { i8*, i32 }
          cleanup, !dbg !17676
  %266 = extractvalue { i8*, i32 } %265, 0, !dbg !17676
  store i8* %266, i8** %20, align 8, !dbg !17676
  %267 = extractvalue { i8*, i32 } %265, 1, !dbg !17676
  store i32 %267, i32* %21, align 4, !dbg !17676
  call void @_ZN7ap_uintILi2EED2Ev(%struct.ap_uint.8* %39) #3, !dbg !17671
  br label %576, !dbg !17671

268:                                              ; preds = %251
  %269 = load i32, i32* %33, align 4, !dbg !17677
  %270 = icmp eq i32 %269, 1, !dbg !17679
  br i1 %270, label %271, label %564, !dbg !17680

271:                                              ; preds = %268
  call void @llvm.dbg.declare(metadata %struct.ap_uint.0* %41, metadata !17681, metadata !DIExpression()), !dbg !17683
  invoke void @_ZN7ap_uintILi128EEC2Ev(%struct.ap_uint.0* %41)
          to label %272 unwind label %228, !dbg !17683

272:                                              ; preds = %271
  call void @llvm.dbg.label(metadata !17684), !dbg !17685
  call void @llvm.dbg.declare(metadata i32* %42, metadata !17686, metadata !DIExpression()), !dbg !17688
  store i32 0, i32* %42, align 4, !dbg !17688
  br label %273, !dbg !17689

273:                                              ; preds = %278, %272
  %274 = load i32, i32* %42, align 4, !dbg !17690
  %275 = icmp slt i32 %274, 1, !dbg !17692
  br i1 %275, label %276, label %285, !dbg !17693

276:                                              ; preds = %273
  %277 = invoke dereferenceable(16) %struct.ap_uint.0* @_ZN7ap_uintILi128EEaSERKS0_(%struct.ap_uint.0* %41, %struct.ap_uint.0* dereferenceable(16) %31)
          to label %278 unwind label %281, !dbg !17694

278:                                              ; preds = %276
  %279 = load i32, i32* %42, align 4, !dbg !17696
  %280 = add nsw i32 %279, 1, !dbg !17696
  store i32 %280, i32* %42, align 4, !dbg !17696
  br label %273, !dbg !17697, !llvm.loop !17698

281:                                              ; preds = %285, %276
  %282 = landingpad { i8*, i32 }
          cleanup, !dbg !17700
  %283 = extractvalue { i8*, i32 } %282, 0, !dbg !17700
  store i8* %283, i8** %20, align 8, !dbg !17700
  %284 = extractvalue { i8*, i32 } %282, 1, !dbg !17700
  store i32 %284, i32* %21, align 4, !dbg !17700
  br label %563, !dbg !17700

285:                                              ; preds = %273
  call void @llvm.dbg.declare(metadata %struct.ap_uint.12* %43, metadata !17701, metadata !DIExpression()), !dbg !17702
  invoke void @_ZN7ap_uintILi16EEC2Ev(%struct.ap_uint.12* %43)
          to label %286 unwind label %281, !dbg !17702

286:                                              ; preds = %285
  call void @llvm.dbg.label(metadata !17703), !dbg !17704
  call void @llvm.dbg.declare(metadata i32* %44, metadata !17705, metadata !DIExpression()), !dbg !17707
  store i32 0, i32* %44, align 4, !dbg !17707
  br label %287, !dbg !17708

287:                                              ; preds = %295, %286
  %288 = load i32, i32* %44, align 4, !dbg !17709
  %289 = icmp slt i32 %288, 1, !dbg !17711
  br i1 %289, label %290, label %306, !dbg !17712

290:                                              ; preds = %287
  %291 = bitcast %struct.ap_uint.0* %41 to %struct.ap_int_base.1*, !dbg !17713
  invoke void @_ZN11ap_int_baseILi128ELb0EEclEii(%struct.ap_range_ref* sret %46, %struct.ap_int_base.1* %291, i32 24, i32 9)
          to label %292 unwind label %298, !dbg !17713

292:                                              ; preds = %290
  invoke void @_ZN7ap_uintILi16EEC2ILi128ELb0EEERK12ap_range_refIXT_EXT0_EE(%struct.ap_uint.12* %45, %struct.ap_range_ref* dereferenceable(16) %46)
          to label %293 unwind label %298, !dbg !17715

293:                                              ; preds = %292
  %294 = invoke dereferenceable(2) %struct.ap_uint.12* @_ZN7ap_uintILi16EEaSERKS0_(%struct.ap_uint.12* %43, %struct.ap_uint.12* dereferenceable(2) %45)
          to label %295 unwind label %302, !dbg !17716

295:                                              ; preds = %293
  call void @_ZN7ap_uintILi16EED2Ev(%struct.ap_uint.12* %45) #3, !dbg !17717
  %296 = load i32, i32* %44, align 4, !dbg !17718
  %297 = add nsw i32 %296, 1, !dbg !17718
  store i32 %297, i32* %44, align 4, !dbg !17718
  br label %287, !dbg !17719, !llvm.loop !17720

298:                                              ; preds = %525, %453, %386, %360, %358, %342, %340, %324, %322, %312, %310, %292, %290
  %299 = landingpad { i8*, i32 }
          cleanup, !dbg !17722
  %300 = extractvalue { i8*, i32 } %299, 0, !dbg !17722
  store i8* %300, i8** %20, align 8, !dbg !17722
  %301 = extractvalue { i8*, i32 } %299, 1, !dbg !17722
  store i32 %301, i32* %21, align 4, !dbg !17722
  br label %562, !dbg !17722

302:                                              ; preds = %293
  %303 = landingpad { i8*, i32 }
          cleanup, !dbg !17722
  %304 = extractvalue { i8*, i32 } %303, 0, !dbg !17722
  store i8* %304, i8** %20, align 8, !dbg !17722
  %305 = extractvalue { i8*, i32 } %303, 1, !dbg !17722
  store i32 %305, i32* %21, align 4, !dbg !17722
  call void @_ZN7ap_uintILi16EED2Ev(%struct.ap_uint.12* %45) #3, !dbg !17717
  br label %562, !dbg !17717

306:                                              ; preds = %287
  call void @llvm.dbg.declare(metadata i32* %47, metadata !17723, metadata !DIExpression()), !dbg !17724
  call void @llvm.dbg.label(metadata !17725), !dbg !17726
  call void @llvm.dbg.declare(metadata i32* %48, metadata !17727, metadata !DIExpression()), !dbg !17729
  store i32 0, i32* %48, align 4, !dbg !17729
  br label %307, !dbg !17730

307:                                              ; preds = %314, %306
  %308 = load i32, i32* %48, align 4, !dbg !17731
  %309 = icmp slt i32 %308, 1, !dbg !17733
  br i1 %309, label %310, label %318, !dbg !17734

310:                                              ; preds = %307
  %311 = bitcast %struct.ap_uint.0* %41 to %struct.ap_int_base.1*, !dbg !17735
  invoke void @_ZN11ap_int_baseILi128ELb0EEclEii(%struct.ap_range_ref* sret %49, %struct.ap_int_base.1* %311, i32 56, i32 25)
          to label %312 unwind label %298, !dbg !17735

312:                                              ; preds = %310
  %313 = invoke i64 @_ZNK12ap_range_refILi128ELb0EEcvyEv(%struct.ap_range_ref* %49)
          to label %314 unwind label %298, !dbg !17735

314:                                              ; preds = %312
  %315 = trunc i64 %313 to i32, !dbg !17735
  store i32 %315, i32* %47, align 4, !dbg !17737
  %316 = load i32, i32* %48, align 4, !dbg !17738
  %317 = add nsw i32 %316, 1, !dbg !17738
  store i32 %317, i32* %48, align 4, !dbg !17738
  br label %307, !dbg !17739, !llvm.loop !17740

318:                                              ; preds = %307
  call void @llvm.dbg.declare(metadata i32* %50, metadata !17742, metadata !DIExpression()), !dbg !17743
  call void @llvm.dbg.label(metadata !17744), !dbg !17745
  call void @llvm.dbg.declare(metadata i32* %51, metadata !17746, metadata !DIExpression()), !dbg !17748
  store i32 0, i32* %51, align 4, !dbg !17748
  br label %319, !dbg !17749

319:                                              ; preds = %328, %318
  %320 = load i32, i32* %51, align 4, !dbg !17750
  %321 = icmp slt i32 %320, 1, !dbg !17752
  br i1 %321, label %322, label %336, !dbg !17753

322:                                              ; preds = %319
  %323 = bitcast %struct.ap_uint.0* %41 to %struct.ap_int_base.1*, !dbg !17754
  invoke void @_ZN11ap_int_baseILi128ELb0EEclEii(%struct.ap_range_ref* sret %53, %struct.ap_int_base.1* %323, i32 79, i32 64)
          to label %324 unwind label %298, !dbg !17754

324:                                              ; preds = %322
  invoke void @_ZN7ap_uintILi16EEC2ILi128ELb0EEERK12ap_range_refIXT_EXT0_EE(%struct.ap_uint.12* %52, %struct.ap_range_ref* dereferenceable(16) %53)
          to label %325 unwind label %298, !dbg !17756

325:                                              ; preds = %324
  %326 = bitcast %struct.ap_uint.12* %52 to %struct.ap_int_base.13*, !dbg !17757
  %327 = invoke i64 @_ZNK11ap_int_baseILi16ELb0EEcvyEv(%struct.ap_int_base.13* %326)
          to label %328 unwind label %332, !dbg !17757

328:                                              ; preds = %325
  %329 = trunc i64 %327 to i32, !dbg !17757
  store i32 %329, i32* %50, align 4, !dbg !17758
  call void @_ZN7ap_uintILi16EED2Ev(%struct.ap_uint.12* %52) #3, !dbg !17759
  %330 = load i32, i32* %51, align 4, !dbg !17760
  %331 = add nsw i32 %330, 1, !dbg !17760
  store i32 %331, i32* %51, align 4, !dbg !17760
  br label %319, !dbg !17761, !llvm.loop !17762

332:                                              ; preds = %325
  %333 = landingpad { i8*, i32 }
          cleanup, !dbg !17764
  %334 = extractvalue { i8*, i32 } %333, 0, !dbg !17764
  store i8* %334, i8** %20, align 8, !dbg !17764
  %335 = extractvalue { i8*, i32 } %333, 1, !dbg !17764
  store i32 %335, i32* %21, align 4, !dbg !17764
  call void @_ZN7ap_uintILi16EED2Ev(%struct.ap_uint.12* %52) #3, !dbg !17759
  br label %562, !dbg !17759

336:                                              ; preds = %319
  call void @llvm.dbg.declare(metadata i32* %54, metadata !17765, metadata !DIExpression()), !dbg !17766
  call void @llvm.dbg.label(metadata !17767), !dbg !17768
  call void @llvm.dbg.declare(metadata i32* %55, metadata !17769, metadata !DIExpression()), !dbg !17771
  store i32 0, i32* %55, align 4, !dbg !17771
  br label %337, !dbg !17772

337:                                              ; preds = %346, %336
  %338 = load i32, i32* %55, align 4, !dbg !17773
  %339 = icmp slt i32 %338, 1, !dbg !17775
  br i1 %339, label %340, label %354, !dbg !17776

340:                                              ; preds = %337
  %341 = bitcast %struct.ap_uint.0* %41 to %struct.ap_int_base.1*, !dbg !17777
  invoke void @_ZN11ap_int_baseILi128ELb0EEclEii(%struct.ap_range_ref* sret %57, %struct.ap_int_base.1* %341, i32 95, i32 80)
          to label %342 unwind label %298, !dbg !17777

342:                                              ; preds = %340
  invoke void @_ZN7ap_uintILi16EEC2ILi128ELb0EEERK12ap_range_refIXT_EXT0_EE(%struct.ap_uint.12* %56, %struct.ap_range_ref* dereferenceable(16) %57)
          to label %343 unwind label %298, !dbg !17779

343:                                              ; preds = %342
  %344 = bitcast %struct.ap_uint.12* %56 to %struct.ap_int_base.13*, !dbg !17780
  %345 = invoke i64 @_ZNK11ap_int_baseILi16ELb0EEcvyEv(%struct.ap_int_base.13* %344)
          to label %346 unwind label %350, !dbg !17780

346:                                              ; preds = %343
  %347 = trunc i64 %345 to i32, !dbg !17780
  store i32 %347, i32* %54, align 4, !dbg !17781
  call void @_ZN7ap_uintILi16EED2Ev(%struct.ap_uint.12* %56) #3, !dbg !17782
  %348 = load i32, i32* %55, align 4, !dbg !17783
  %349 = add nsw i32 %348, 1, !dbg !17783
  store i32 %349, i32* %55, align 4, !dbg !17783
  br label %337, !dbg !17784, !llvm.loop !17785

350:                                              ; preds = %343
  %351 = landingpad { i8*, i32 }
          cleanup, !dbg !17787
  %352 = extractvalue { i8*, i32 } %351, 0, !dbg !17787
  store i8* %352, i8** %20, align 8, !dbg !17787
  %353 = extractvalue { i8*, i32 } %351, 1, !dbg !17787
  store i32 %353, i32* %21, align 4, !dbg !17787
  call void @_ZN7ap_uintILi16EED2Ev(%struct.ap_uint.12* %56) #3, !dbg !17782
  br label %562, !dbg !17782

354:                                              ; preds = %337
  call void @llvm.dbg.declare(metadata i32* %58, metadata !17788, metadata !DIExpression()), !dbg !17789
  call void @llvm.dbg.label(metadata !17790), !dbg !17791
  call void @llvm.dbg.declare(metadata i32* %59, metadata !17792, metadata !DIExpression()), !dbg !17794
  store i32 0, i32* %59, align 4, !dbg !17794
  br label %355, !dbg !17795

355:                                              ; preds = %364, %354
  %356 = load i32, i32* %59, align 4, !dbg !17796
  %357 = icmp slt i32 %356, 1, !dbg !17798
  br i1 %357, label %358, label %372, !dbg !17799

358:                                              ; preds = %355
  %359 = bitcast %struct.ap_uint.0* %41 to %struct.ap_int_base.1*, !dbg !17800
  invoke void @_ZN11ap_int_baseILi128ELb0EEclEii(%struct.ap_range_ref* sret %61, %struct.ap_int_base.1* %359, i32 111, i32 96)
          to label %360 unwind label %298, !dbg !17800

360:                                              ; preds = %358
  invoke void @_ZN7ap_uintILi16EEC2ILi128ELb0EEERK12ap_range_refIXT_EXT0_EE(%struct.ap_uint.12* %60, %struct.ap_range_ref* dereferenceable(16) %61)
          to label %361 unwind label %298, !dbg !17802

361:                                              ; preds = %360
  %362 = bitcast %struct.ap_uint.12* %60 to %struct.ap_int_base.13*, !dbg !17803
  %363 = invoke i64 @_ZNK11ap_int_baseILi16ELb0EEcvyEv(%struct.ap_int_base.13* %362)
          to label %364 unwind label %368, !dbg !17803

364:                                              ; preds = %361
  %365 = trunc i64 %363 to i32, !dbg !17803
  store i32 %365, i32* %58, align 4, !dbg !17804
  call void @_ZN7ap_uintILi16EED2Ev(%struct.ap_uint.12* %60) #3, !dbg !17805
  %366 = load i32, i32* %59, align 4, !dbg !17806
  %367 = add nsw i32 %366, 1, !dbg !17806
  store i32 %367, i32* %59, align 4, !dbg !17806
  br label %355, !dbg !17807, !llvm.loop !17808

368:                                              ; preds = %361
  %369 = landingpad { i8*, i32 }
          cleanup, !dbg !17810
  %370 = extractvalue { i8*, i32 } %369, 0, !dbg !17810
  store i8* %370, i8** %20, align 8, !dbg !17810
  %371 = extractvalue { i8*, i32 } %369, 1, !dbg !17810
  store i32 %371, i32* %21, align 4, !dbg !17810
  call void @_ZN7ap_uintILi16EED2Ev(%struct.ap_uint.12* %60) #3, !dbg !17805
  br label %562, !dbg !17805

372:                                              ; preds = %355
  call void @llvm.dbg.declare(metadata i32* %62, metadata !17811, metadata !DIExpression()), !dbg !17812
  call void @llvm.dbg.declare(metadata i32* %63, metadata !17813, metadata !DIExpression()), !dbg !17814
  call void @llvm.dbg.label(metadata !17815), !dbg !17816
  call void @llvm.dbg.declare(metadata i32* %64, metadata !17817, metadata !DIExpression()), !dbg !17819
  store i32 0, i32* %64, align 4, !dbg !17819
  br label %373, !dbg !17820

373:                                              ; preds = %558, %372
  %374 = load i32, i32* %64, align 4, !dbg !17821
  %375 = load i32, i32* %50, align 4, !dbg !17823
  %376 = icmp ult i32 %374, %375, !dbg !17824
  br i1 %376, label %377, label %561, !dbg !17825

377:                                              ; preds = %373
  call void @llvm.dbg.label(metadata !17826), !dbg !17828
  call void @llvm.dbg.declare(metadata i32* %65, metadata !17829, metadata !DIExpression()), !dbg !17831
  store i32 0, i32* %65, align 4, !dbg !17831
  br label %378, !dbg !17832

378:                                              ; preds = %555, %377
  %379 = load i32, i32* %65, align 4, !dbg !17833
  %380 = load i32, i32* %54, align 4, !dbg !17835
  %381 = icmp ult i32 %379, %380, !dbg !17836
  br i1 %381, label %382, label %558, !dbg !17837

382:                                              ; preds = %378
  call void @llvm.dbg.declare(metadata i32* %66, metadata !17838, metadata !DIExpression()), !dbg !17840
  call void @llvm.dbg.label(metadata !17841), !dbg !17842
  call void @llvm.dbg.declare(metadata i32* %67, metadata !17843, metadata !DIExpression()), !dbg !17845
  store i32 0, i32* %67, align 4, !dbg !17845
  br label %383, !dbg !17846

383:                                              ; preds = %406, %382
  %384 = load i32, i32* %67, align 4, !dbg !17847
  %385 = icmp slt i32 %384, 1, !dbg !17849
  br i1 %385, label %386, label %449, !dbg !17850

386:                                              ; preds = %383
  invoke void @_ZN6ap_intILi66EEC2ILi16EEERK7ap_uintIXT_EE(%struct.ap_int.26* %70, %struct.ap_uint.12* dereferenceable(2) %43)
          to label %387 unwind label %298, !dbg !17851

387:                                              ; preds = %386
  %388 = bitcast %struct.ap_int.26* %70 to %struct.ap_int_base.23*, !dbg !17853
  %389 = load i32, i32* %64, align 4, !dbg !17854
  invoke void @_ZN6ap_intILi64EEC2Ei(%struct.ap_int.34* %73, i32 %389)
          to label %390 unwind label %410, !dbg !17855

390:                                              ; preds = %387
  %391 = bitcast %struct.ap_int.34* %73 to %struct.ap_int_base.31*, !dbg !17856
  %392 = load i32, i32* %54, align 4, !dbg !17857
  invoke void @_ZN6ap_intILi64EEC2Ei(%struct.ap_int.34* %74, i32 %392)
          to label %393 unwind label %414, !dbg !17858

393:                                              ; preds = %390
  %394 = bitcast %struct.ap_int.34* %74 to %struct.ap_int_base.31*, !dbg !17859
  invoke void @_ZmlILi64ELb1ELi64ELb1EEN11ap_int_baseIXT_EXT0_EE5RTypeIXT1_EXT2_EE4multERKS1_RKS0_IXT1_EXT2_EE(%struct.ap_int.27* sret %72, %struct.ap_int_base.31* dereferenceable(8) %391, %struct.ap_int_base.31* dereferenceable(8) %394)
          to label %395 unwind label %418, !dbg !17860

395:                                              ; preds = %393
  invoke void @_ZN6ap_intILi66EEC2ILi128EEERKS_IXT_EE(%struct.ap_int.26* %71, %struct.ap_int.27* dereferenceable(16) %72)
          to label %396 unwind label %422, !dbg !17861

396:                                              ; preds = %395
  %397 = bitcast %struct.ap_int.26* %71 to %struct.ap_int_base.23*, !dbg !17862
  invoke void @_ZplILi66ELb1ELi66ELb1EEN11ap_int_baseIXT_EXT0_EE5RTypeIXT1_EXT2_EE4plusERKS1_RKS0_IXT1_EXT2_EE(%struct.ap_int.22* sret %69, %struct.ap_int_base.23* dereferenceable(16) %388, %struct.ap_int_base.23* dereferenceable(16) %397)
          to label %398 unwind label %426, !dbg !17863

398:                                              ; preds = %396
  %399 = bitcast %struct.ap_int.22* %69 to %struct.ap_int_base.19*, !dbg !17864
  %400 = load i32, i32* %65, align 4, !dbg !17865
  invoke void @_ZN6ap_intILi67EEC2Ei(%struct.ap_int.22* %75, i32 %400)
          to label %401 unwind label %430, !dbg !17866

401:                                              ; preds = %398
  %402 = bitcast %struct.ap_int.22* %75 to %struct.ap_int_base.19*, !dbg !17867
  invoke void @_ZplILi67ELb1ELi67ELb1EEN11ap_int_baseIXT_EXT0_EE5RTypeIXT1_EXT2_EE4plusERKS1_RKS0_IXT1_EXT2_EE(%struct.ap_int* sret %68, %struct.ap_int_base.19* dereferenceable(16) %399, %struct.ap_int_base.19* dereferenceable(16) %402)
          to label %403 unwind label %434, !dbg !17868

403:                                              ; preds = %401
  %404 = bitcast %struct.ap_int* %68 to %struct.ap_int_base.16*, !dbg !17869
  %405 = invoke i64 @_ZNK11ap_int_baseILi68ELb1EEcvxEv(%struct.ap_int_base.16* %404)
          to label %406 unwind label %438, !dbg !17869

406:                                              ; preds = %403
  %407 = trunc i64 %405 to i32, !dbg !17869
  store i32 %407, i32* %66, align 4, !dbg !17870
  call void @_ZN6ap_intILi68EED2Ev(%struct.ap_int* %68) #3, !dbg !17871
  call void @_ZN6ap_intILi67EED2Ev(%struct.ap_int.22* %75) #3, !dbg !17871
  call void @_ZN6ap_intILi67EED2Ev(%struct.ap_int.22* %69) #3, !dbg !17871
  call void @_ZN6ap_intILi66EED2Ev(%struct.ap_int.26* %71) #3, !dbg !17871
  call void @_ZN6ap_intILi128EED2Ev(%struct.ap_int.27* %72) #3, !dbg !17871
  call void @_ZN6ap_intILi64EED2Ev(%struct.ap_int.34* %74) #3, !dbg !17871
  call void @_ZN6ap_intILi64EED2Ev(%struct.ap_int.34* %73) #3, !dbg !17871
  call void @_ZN6ap_intILi66EED2Ev(%struct.ap_int.26* %70) #3, !dbg !17871
  %408 = load i32, i32* %67, align 4, !dbg !17872
  %409 = add nsw i32 %408, 1, !dbg !17872
  store i32 %409, i32* %67, align 4, !dbg !17872
  br label %383, !dbg !17873, !llvm.loop !17874

410:                                              ; preds = %387
  %411 = landingpad { i8*, i32 }
          cleanup, !dbg !17876
  %412 = extractvalue { i8*, i32 } %411, 0, !dbg !17876
  store i8* %412, i8** %20, align 8, !dbg !17876
  %413 = extractvalue { i8*, i32 } %411, 1, !dbg !17876
  store i32 %413, i32* %21, align 4, !dbg !17876
  br label %448, !dbg !17876

414:                                              ; preds = %390
  %415 = landingpad { i8*, i32 }
          cleanup, !dbg !17876
  %416 = extractvalue { i8*, i32 } %415, 0, !dbg !17876
  store i8* %416, i8** %20, align 8, !dbg !17876
  %417 = extractvalue { i8*, i32 } %415, 1, !dbg !17876
  store i32 %417, i32* %21, align 4, !dbg !17876
  br label %447, !dbg !17876

418:                                              ; preds = %393
  %419 = landingpad { i8*, i32 }
          cleanup, !dbg !17876
  %420 = extractvalue { i8*, i32 } %419, 0, !dbg !17876
  store i8* %420, i8** %20, align 8, !dbg !17876
  %421 = extractvalue { i8*, i32 } %419, 1, !dbg !17876
  store i32 %421, i32* %21, align 4, !dbg !17876
  br label %446, !dbg !17876

422:                                              ; preds = %395
  %423 = landingpad { i8*, i32 }
          cleanup, !dbg !17876
  %424 = extractvalue { i8*, i32 } %423, 0, !dbg !17876
  store i8* %424, i8** %20, align 8, !dbg !17876
  %425 = extractvalue { i8*, i32 } %423, 1, !dbg !17876
  store i32 %425, i32* %21, align 4, !dbg !17876
  br label %445, !dbg !17876

426:                                              ; preds = %396
  %427 = landingpad { i8*, i32 }
          cleanup, !dbg !17876
  %428 = extractvalue { i8*, i32 } %427, 0, !dbg !17876
  store i8* %428, i8** %20, align 8, !dbg !17876
  %429 = extractvalue { i8*, i32 } %427, 1, !dbg !17876
  store i32 %429, i32* %21, align 4, !dbg !17876
  br label %444, !dbg !17876

430:                                              ; preds = %398
  %431 = landingpad { i8*, i32 }
          cleanup, !dbg !17876
  %432 = extractvalue { i8*, i32 } %431, 0, !dbg !17876
  store i8* %432, i8** %20, align 8, !dbg !17876
  %433 = extractvalue { i8*, i32 } %431, 1, !dbg !17876
  store i32 %433, i32* %21, align 4, !dbg !17876
  br label %443, !dbg !17876

434:                                              ; preds = %401
  %435 = landingpad { i8*, i32 }
          cleanup, !dbg !17876
  %436 = extractvalue { i8*, i32 } %435, 0, !dbg !17876
  store i8* %436, i8** %20, align 8, !dbg !17876
  %437 = extractvalue { i8*, i32 } %435, 1, !dbg !17876
  store i32 %437, i32* %21, align 4, !dbg !17876
  br label %442, !dbg !17876

438:                                              ; preds = %403
  %439 = landingpad { i8*, i32 }
          cleanup, !dbg !17876
  %440 = extractvalue { i8*, i32 } %439, 0, !dbg !17876
  store i8* %440, i8** %20, align 8, !dbg !17876
  %441 = extractvalue { i8*, i32 } %439, 1, !dbg !17876
  store i32 %441, i32* %21, align 4, !dbg !17876
  call void @_ZN6ap_intILi68EED2Ev(%struct.ap_int* %68) #3, !dbg !17871
  br label %442, !dbg !17871

442:                                              ; preds = %438, %434
  call void @_ZN6ap_intILi67EED2Ev(%struct.ap_int.22* %75) #3, !dbg !17871
  br label %443, !dbg !17871

443:                                              ; preds = %442, %430
  call void @_ZN6ap_intILi67EED2Ev(%struct.ap_int.22* %69) #3, !dbg !17871
  br label %444, !dbg !17871

444:                                              ; preds = %443, %426
  call void @_ZN6ap_intILi66EED2Ev(%struct.ap_int.26* %71) #3, !dbg !17871
  br label %445, !dbg !17871

445:                                              ; preds = %444, %422
  call void @_ZN6ap_intILi128EED2Ev(%struct.ap_int.27* %72) #3, !dbg !17871
  br label %446, !dbg !17871

446:                                              ; preds = %445, %418
  call void @_ZN6ap_intILi64EED2Ev(%struct.ap_int.34* %74) #3, !dbg !17871
  br label %447, !dbg !17871

447:                                              ; preds = %446, %414
  call void @_ZN6ap_intILi64EED2Ev(%struct.ap_int.34* %73) #3, !dbg !17871
  br label %448, !dbg !17871

448:                                              ; preds = %447, %410
  call void @_ZN6ap_intILi66EED2Ev(%struct.ap_int.26* %70) #3, !dbg !17871
  br label %562, !dbg !17871

449:                                              ; preds = %383
  call void @llvm.dbg.declare(metadata i32* %76, metadata !17877, metadata !DIExpression()), !dbg !17878
  call void @llvm.dbg.label(metadata !17879), !dbg !17880
  call void @llvm.dbg.declare(metadata i32* %77, metadata !17881, metadata !DIExpression()), !dbg !17883
  store i32 0, i32* %77, align 4, !dbg !17883
  br label %450, !dbg !17884

450:                                              ; preds = %474, %449
  %451 = load i32, i32* %77, align 4, !dbg !17885
  %452 = icmp slt i32 %451, 1, !dbg !17887
  br i1 %452, label %453, label %517, !dbg !17888

453:                                              ; preds = %450
  %454 = load i32, i32* %47, align 4, !dbg !17889
  invoke void @_ZN6ap_intILi66EEC2Ej(%struct.ap_int.26* %80, i32 %454)
          to label %455 unwind label %298, !dbg !17891

455:                                              ; preds = %453
  %456 = bitcast %struct.ap_int.26* %80 to %struct.ap_int_base.23*, !dbg !17892
  %457 = load i32, i32* %64, align 4, !dbg !17893
  invoke void @_ZN6ap_intILi64EEC2Ei(%struct.ap_int.34* %83, i32 %457)
          to label %458 unwind label %478, !dbg !17894

458:                                              ; preds = %455
  %459 = bitcast %struct.ap_int.34* %83 to %struct.ap_int_base.31*, !dbg !17895
  %460 = load i32, i32* %58, align 4, !dbg !17896
  invoke void @_ZN6ap_intILi64EEC2Ei(%struct.ap_int.34* %84, i32 %460)
          to label %461 unwind label %482, !dbg !17897

461:                                              ; preds = %458
  %462 = bitcast %struct.ap_int.34* %84 to %struct.ap_int_base.31*, !dbg !17898
  invoke void @_ZmlILi64ELb1ELi64ELb1EEN11ap_int_baseIXT_EXT0_EE5RTypeIXT1_EXT2_EE4multERKS1_RKS0_IXT1_EXT2_EE(%struct.ap_int.27* sret %82, %struct.ap_int_base.31* dereferenceable(8) %459, %struct.ap_int_base.31* dereferenceable(8) %462)
          to label %463 unwind label %486, !dbg !17899

463:                                              ; preds = %461
  invoke void @_ZN6ap_intILi66EEC2ILi128EEERKS_IXT_EE(%struct.ap_int.26* %81, %struct.ap_int.27* dereferenceable(16) %82)
          to label %464 unwind label %490, !dbg !17900

464:                                              ; preds = %463
  %465 = bitcast %struct.ap_int.26* %81 to %struct.ap_int_base.23*, !dbg !17901
  invoke void @_ZplILi66ELb1ELi66ELb1EEN11ap_int_baseIXT_EXT0_EE5RTypeIXT1_EXT2_EE4plusERKS1_RKS0_IXT1_EXT2_EE(%struct.ap_int.22* sret %79, %struct.ap_int_base.23* dereferenceable(16) %456, %struct.ap_int_base.23* dereferenceable(16) %465)
          to label %466 unwind label %494, !dbg !17902

466:                                              ; preds = %464
  %467 = bitcast %struct.ap_int.22* %79 to %struct.ap_int_base.19*, !dbg !17903
  %468 = load i32, i32* %65, align 4, !dbg !17904
  invoke void @_ZN6ap_intILi67EEC2Ei(%struct.ap_int.22* %85, i32 %468)
          to label %469 unwind label %498, !dbg !17905

469:                                              ; preds = %466
  %470 = bitcast %struct.ap_int.22* %85 to %struct.ap_int_base.19*, !dbg !17906
  invoke void @_ZplILi67ELb1ELi67ELb1EEN11ap_int_baseIXT_EXT0_EE5RTypeIXT1_EXT2_EE4plusERKS1_RKS0_IXT1_EXT2_EE(%struct.ap_int* sret %78, %struct.ap_int_base.19* dereferenceable(16) %467, %struct.ap_int_base.19* dereferenceable(16) %470)
          to label %471 unwind label %502, !dbg !17907

471:                                              ; preds = %469
  %472 = bitcast %struct.ap_int* %78 to %struct.ap_int_base.16*, !dbg !17908
  %473 = invoke i64 @_ZNK11ap_int_baseILi68ELb1EEcvxEv(%struct.ap_int_base.16* %472)
          to label %474 unwind label %506, !dbg !17908

474:                                              ; preds = %471
  %475 = trunc i64 %473 to i32, !dbg !17908
  store i32 %475, i32* %76, align 4, !dbg !17909
  call void @_ZN6ap_intILi68EED2Ev(%struct.ap_int* %78) #3, !dbg !17910
  call void @_ZN6ap_intILi67EED2Ev(%struct.ap_int.22* %85) #3, !dbg !17910
  call void @_ZN6ap_intILi67EED2Ev(%struct.ap_int.22* %79) #3, !dbg !17910
  call void @_ZN6ap_intILi66EED2Ev(%struct.ap_int.26* %81) #3, !dbg !17910
  call void @_ZN6ap_intILi128EED2Ev(%struct.ap_int.27* %82) #3, !dbg !17910
  call void @_ZN6ap_intILi64EED2Ev(%struct.ap_int.34* %84) #3, !dbg !17910
  call void @_ZN6ap_intILi64EED2Ev(%struct.ap_int.34* %83) #3, !dbg !17910
  call void @_ZN6ap_intILi66EED2Ev(%struct.ap_int.26* %80) #3, !dbg !17910
  %476 = load i32, i32* %77, align 4, !dbg !17911
  %477 = add nsw i32 %476, 1, !dbg !17911
  store i32 %477, i32* %77, align 4, !dbg !17911
  br label %450, !dbg !17912, !llvm.loop !17913

478:                                              ; preds = %455
  %479 = landingpad { i8*, i32 }
          cleanup, !dbg !17915
  %480 = extractvalue { i8*, i32 } %479, 0, !dbg !17915
  store i8* %480, i8** %20, align 8, !dbg !17915
  %481 = extractvalue { i8*, i32 } %479, 1, !dbg !17915
  store i32 %481, i32* %21, align 4, !dbg !17915
  br label %516, !dbg !17915

482:                                              ; preds = %458
  %483 = landingpad { i8*, i32 }
          cleanup, !dbg !17915
  %484 = extractvalue { i8*, i32 } %483, 0, !dbg !17915
  store i8* %484, i8** %20, align 8, !dbg !17915
  %485 = extractvalue { i8*, i32 } %483, 1, !dbg !17915
  store i32 %485, i32* %21, align 4, !dbg !17915
  br label %515, !dbg !17915

486:                                              ; preds = %461
  %487 = landingpad { i8*, i32 }
          cleanup, !dbg !17915
  %488 = extractvalue { i8*, i32 } %487, 0, !dbg !17915
  store i8* %488, i8** %20, align 8, !dbg !17915
  %489 = extractvalue { i8*, i32 } %487, 1, !dbg !17915
  store i32 %489, i32* %21, align 4, !dbg !17915
  br label %514, !dbg !17915

490:                                              ; preds = %463
  %491 = landingpad { i8*, i32 }
          cleanup, !dbg !17915
  %492 = extractvalue { i8*, i32 } %491, 0, !dbg !17915
  store i8* %492, i8** %20, align 8, !dbg !17915
  %493 = extractvalue { i8*, i32 } %491, 1, !dbg !17915
  store i32 %493, i32* %21, align 4, !dbg !17915
  br label %513, !dbg !17915

494:                                              ; preds = %464
  %495 = landingpad { i8*, i32 }
          cleanup, !dbg !17915
  %496 = extractvalue { i8*, i32 } %495, 0, !dbg !17915
  store i8* %496, i8** %20, align 8, !dbg !17915
  %497 = extractvalue { i8*, i32 } %495, 1, !dbg !17915
  store i32 %497, i32* %21, align 4, !dbg !17915
  br label %512, !dbg !17915

498:                                              ; preds = %466
  %499 = landingpad { i8*, i32 }
          cleanup, !dbg !17915
  %500 = extractvalue { i8*, i32 } %499, 0, !dbg !17915
  store i8* %500, i8** %20, align 8, !dbg !17915
  %501 = extractvalue { i8*, i32 } %499, 1, !dbg !17915
  store i32 %501, i32* %21, align 4, !dbg !17915
  br label %511, !dbg !17915

502:                                              ; preds = %469
  %503 = landingpad { i8*, i32 }
          cleanup, !dbg !17915
  %504 = extractvalue { i8*, i32 } %503, 0, !dbg !17915
  store i8* %504, i8** %20, align 8, !dbg !17915
  %505 = extractvalue { i8*, i32 } %503, 1, !dbg !17915
  store i32 %505, i32* %21, align 4, !dbg !17915
  br label %510, !dbg !17915

506:                                              ; preds = %471
  %507 = landingpad { i8*, i32 }
          cleanup, !dbg !17915
  %508 = extractvalue { i8*, i32 } %507, 0, !dbg !17915
  store i8* %508, i8** %20, align 8, !dbg !17915
  %509 = extractvalue { i8*, i32 } %507, 1, !dbg !17915
  store i32 %509, i32* %21, align 4, !dbg !17915
  call void @_ZN6ap_intILi68EED2Ev(%struct.ap_int* %78) #3, !dbg !17910
  br label %510, !dbg !17910

510:                                              ; preds = %506, %502
  call void @_ZN6ap_intILi67EED2Ev(%struct.ap_int.22* %85) #3, !dbg !17910
  br label %511, !dbg !17910

511:                                              ; preds = %510, %498
  call void @_ZN6ap_intILi67EED2Ev(%struct.ap_int.22* %79) #3, !dbg !17910
  br label %512, !dbg !17910

512:                                              ; preds = %511, %494
  call void @_ZN6ap_intILi66EED2Ev(%struct.ap_int.26* %81) #3, !dbg !17910
  br label %513, !dbg !17910

513:                                              ; preds = %512, %490
  call void @_ZN6ap_intILi128EED2Ev(%struct.ap_int.27* %82) #3, !dbg !17910
  br label %514, !dbg !17910

514:                                              ; preds = %513, %486
  call void @_ZN6ap_intILi64EED2Ev(%struct.ap_int.34* %84) #3, !dbg !17910
  br label %515, !dbg !17910

515:                                              ; preds = %514, %482
  call void @_ZN6ap_intILi64EED2Ev(%struct.ap_int.34* %83) #3, !dbg !17910
  br label %516, !dbg !17910

516:                                              ; preds = %515, %478
  call void @_ZN6ap_intILi66EED2Ev(%struct.ap_int.26* %80) #3, !dbg !17910
  br label %562, !dbg !17910

517:                                              ; preds = %450
  call void @llvm.dbg.declare(metadata i32* %86, metadata !17916, metadata !DIExpression()), !dbg !17917
  call void @llvm.dbg.declare(metadata i32* %87, metadata !17918, metadata !DIExpression()), !dbg !17919
  call void @llvm.dbg.label(metadata !17920), !dbg !17921
  call void @llvm.dbg.declare(metadata i32* %88, metadata !17922, metadata !DIExpression()), !dbg !17924
  store i32 0, i32* %88, align 4, !dbg !17924
  br label %518, !dbg !17925

518:                                              ; preds = %552, %517
  %519 = load i32, i32* %88, align 4, !dbg !17926
  %520 = icmp slt i32 %519, 1, !dbg !17928
  br i1 %520, label %521, label %555, !dbg !17929

521:                                              ; preds = %518
  call void @llvm.dbg.label(metadata !17930), !dbg !17932
  call void @llvm.dbg.declare(metadata i32* %89, metadata !17933, metadata !DIExpression()), !dbg !17935
  store i32 0, i32* %89, align 4, !dbg !17935
  br label %522, !dbg !17936

522:                                              ; preds = %549, %521
  %523 = load i32, i32* %89, align 4, !dbg !17937
  %524 = icmp slt i32 %523, 16, !dbg !17939
  br i1 %524, label %525, label %552, !dbg !17940

525:                                              ; preds = %522
  %526 = load [1 x [16 x %struct.ap_uint]]*, [1 x [16 x %struct.ap_uint]]** %7, align 8, !dbg !17941
  %527 = getelementptr inbounds [1 x [16 x %struct.ap_uint]], [1 x [16 x %struct.ap_uint]]* %526, i64 0, !dbg !17941
  %528 = getelementptr inbounds [1 x [16 x %struct.ap_uint]], [1 x [16 x %struct.ap_uint]]* %527, i64 0, i64 0, !dbg !17941
  %529 = load i32, i32* %89, align 4, !dbg !17943
  %530 = load i32, i32* %88, align 4, !dbg !17944
  %531 = mul nsw i32 %530, 16, !dbg !17945
  %532 = add nsw i32 %529, %531, !dbg !17946
  %533 = load i32, i32* %66, align 4, !dbg !17947
  %534 = mul i32 %533, 16, !dbg !17948
  %535 = add i32 %532, %534, !dbg !17949
  %536 = zext i32 %535 to i64, !dbg !17941
  %537 = getelementptr inbounds [16 x %struct.ap_uint], [16 x %struct.ap_uint]* %528, i64 0, i64 %536, !dbg !17941
  %538 = load %struct.ap_uint*, %struct.ap_uint** %8, align 8, !dbg !17950
  %539 = load i32, i32* %76, align 4, !dbg !17951
  %540 = mul i32 %539, 16, !dbg !17952
  %541 = load i32, i32* %88, align 4, !dbg !17953
  %542 = mul nsw i32 %541, 16, !dbg !17954
  %543 = add i32 %540, %542, !dbg !17955
  %544 = load i32, i32* %89, align 4, !dbg !17956
  %545 = add i32 %543, %544, !dbg !17957
  %546 = zext i32 %545 to i64, !dbg !17950
  %547 = getelementptr inbounds %struct.ap_uint, %struct.ap_uint* %538, i64 %546, !dbg !17950
  %548 = invoke dereferenceable(1) %struct.ap_uint* @_ZN7ap_uintILi8EEaSERKS0_(%struct.ap_uint* %547, %struct.ap_uint* dereferenceable(1) %537)
          to label %549 unwind label %298, !dbg !17958

549:                                              ; preds = %525
  %550 = load i32, i32* %89, align 4, !dbg !17959
  %551 = add nsw i32 %550, 1, !dbg !17959
  store i32 %551, i32* %89, align 4, !dbg !17959
  br label %522, !dbg !17960, !llvm.loop !17961

552:                                              ; preds = %522
  %553 = load i32, i32* %88, align 4, !dbg !17963
  %554 = add nsw i32 %553, 1, !dbg !17963
  store i32 %554, i32* %88, align 4, !dbg !17963
  br label %518, !dbg !17964, !llvm.loop !17965

555:                                              ; preds = %518
  %556 = load i32, i32* %65, align 4, !dbg !17967
  %557 = add nsw i32 %556, 1, !dbg !17967
  store i32 %557, i32* %65, align 4, !dbg !17967
  br label %378, !dbg !17968, !llvm.loop !17969

558:                                              ; preds = %378
  %559 = load i32, i32* %64, align 4, !dbg !17971
  %560 = add nsw i32 %559, 1, !dbg !17971
  store i32 %560, i32* %64, align 4, !dbg !17971
  br label %373, !dbg !17972, !llvm.loop !17973

561:                                              ; preds = %373
  call void @_ZN7ap_uintILi16EED2Ev(%struct.ap_uint.12* %43) #3, !dbg !17975
  call void @_ZN7ap_uintILi128EED2Ev(%struct.ap_uint.0* %41) #3, !dbg !17975
  br label %564, !dbg !17976

562:                                              ; preds = %516, %448, %368, %350, %332, %302, %298
  call void @_ZN7ap_uintILi16EED2Ev(%struct.ap_uint.12* %43) #3, !dbg !17975
  br label %563, !dbg !17975

563:                                              ; preds = %562, %281
  call void @_ZN7ap_uintILi128EED2Ev(%struct.ap_uint.0* %41) #3, !dbg !17975
  br label %576, !dbg !17975

564:                                              ; preds = %561, %268
  %565 = load i32, i32* %11, align 4, !dbg !17977
  %566 = add nsw i32 %565, 16, !dbg !17978
  store i32 %566, i32* %11, align 4, !dbg !17979
  call void @_ZN7ap_uintILi128EED2Ev(%struct.ap_uint.0* %31) #3, !dbg !17980
  call void @_ZN7ap_uintILi128EED2Ev(%struct.ap_uint.0* %23) #3, !dbg !17980
  %567 = getelementptr inbounds [16 x %struct.ap_uint], [16 x %struct.ap_uint]* %19, i32 0, i32 0, !dbg !17980
  %568 = getelementptr inbounds %struct.ap_uint, %struct.ap_uint* %567, i64 16, !dbg !17980
  br label %569, !dbg !17980

569:                                              ; preds = %569, %564
  %570 = phi %struct.ap_uint* [ %568, %564 ], [ %571, %569 ], !dbg !17980
  %571 = getelementptr inbounds %struct.ap_uint, %struct.ap_uint* %570, i64 -1, !dbg !17980
  call void @_ZN7ap_uintILi8EED2Ev(%struct.ap_uint* %571) #3, !dbg !17980
  %572 = icmp eq %struct.ap_uint* %571, %567, !dbg !17980
  br i1 %572, label %573, label %569, !dbg !17980

573:                                              ; preds = %569
  %574 = load i32, i32* %18, align 4, !dbg !17981
  %575 = add nsw i32 %574, 1, !dbg !17981
  store i32 %575, i32* %18, align 4, !dbg !17981
  br label %118, !dbg !17982, !llvm.loop !17983

576:                                              ; preds = %563, %264, %246, %228
  call void @_ZN7ap_uintILi128EED2Ev(%struct.ap_uint.0* %31) #3, !dbg !17980
  br label %577, !dbg !17980

577:                                              ; preds = %576, %217, %177
  call void @_ZN7ap_uintILi128EED2Ev(%struct.ap_uint.0* %23) #3, !dbg !17980
  br label %578, !dbg !17980

578:                                              ; preds = %577, %157
  %579 = getelementptr inbounds [16 x %struct.ap_uint], [16 x %struct.ap_uint]* %19, i32 0, i32 0, !dbg !17980
  %580 = getelementptr inbounds %struct.ap_uint, %struct.ap_uint* %579, i64 16, !dbg !17980
  br label %581, !dbg !17980

581:                                              ; preds = %581, %578
  %582 = phi %struct.ap_uint* [ %580, %578 ], [ %583, %581 ], !dbg !17980
  %583 = getelementptr inbounds %struct.ap_uint, %struct.ap_uint* %582, i64 -1, !dbg !17980
  call void @_ZN7ap_uintILi8EED2Ev(%struct.ap_uint* %583) #3, !dbg !17980
  %584 = icmp eq %struct.ap_uint* %583, %579, !dbg !17980
  br i1 %584, label %589, label %581, !dbg !17980

585:                                              ; preds = %118
  %586 = load i32, i32* %15, align 4, !dbg !17985
  %587 = add nsw i32 %586, 1, !dbg !17985
  store i32 %587, i32* %15, align 4, !dbg !17985
  br label %105, !dbg !17986, !llvm.loop !17987

588:                                              ; preds = %105
  ret void, !dbg !17989

589:                                              ; preds = %581, %148, %153
  %590 = load i8*, i8** %20, align 8, !dbg !17517
  %591 = load i32, i32* %21, align 4, !dbg !17517
  %592 = insertvalue { i8*, i32 } undef, i8* %590, 0, !dbg !17517
  %593 = insertvalue { i8*, i32 } %592, i32 %591, 1, !dbg !17517
  resume { i8*, i32 } %593, !dbg !17517
}

; Function Attrs: nounwind readnone speculatable
declare void @llvm.dbg.declare(metadata, metadata, metadata) #4

; Function Attrs: nounwind readnone speculatable
declare void @llvm.dbg.label(metadata) #4

; Function Attrs: noinline uwtable
define linkonce_odr dso_local void @_ZN7ap_uintILi8EEC2Ev(%struct.ap_uint*) unnamed_addr #0 comdat align 2 !dbg !17990 {
  %2 = alloca %struct.ap_uint*, align 8
  store %struct.ap_uint* %0, %struct.ap_uint** %2, align 8
  call void @llvm.dbg.declare(metadata %struct.ap_uint** %2, metadata !17991, metadata !DIExpression()), !dbg !17992
  %3 = load %struct.ap_uint*, %struct.ap_uint** %2, align 8
  %4 = bitcast %struct.ap_uint* %3 to %struct.ap_int_base*, !dbg !17993
  call void @_ZN11ap_int_baseILi8ELb0EEC2Ev(%struct.ap_int_base* %4), !dbg !17994
  ret void, !dbg !17995
}

declare dso_local i32 @__gxx_personality_v0(...)

; Function Attrs: noinline nounwind uwtable
define linkonce_odr dso_local void @_ZN7ap_uintILi8EED2Ev(%struct.ap_uint*) unnamed_addr #5 comdat align 2 !dbg !17996 {
  %2 = alloca %struct.ap_uint*, align 8
  store %struct.ap_uint* %0, %struct.ap_uint** %2, align 8
  call void @llvm.dbg.declare(metadata %struct.ap_uint** %2, metadata !17998, metadata !DIExpression()), !dbg !17999
  %3 = load %struct.ap_uint*, %struct.ap_uint** %2, align 8
  %4 = bitcast %struct.ap_uint* %3 to %struct.ap_int_base*, !dbg !18000
  call void @_ZN11ap_int_baseILi8ELb0EED2Ev(%struct.ap_int_base* %4) #3, !dbg !18000
  ret void, !dbg !18002
}

; Function Attrs: noinline uwtable
define linkonce_odr dso_local dereferenceable(1) %struct.ap_uint* @_ZN7ap_uintILi8EEaSERKS0_(%struct.ap_uint*, %struct.ap_uint* dereferenceable(1)) #0 comdat align 2 !dbg !18003 {
  %3 = alloca %struct.ap_uint*, align 8
  %4 = alloca %struct.ap_uint*, align 8
  store %struct.ap_uint* %0, %struct.ap_uint** %3, align 8
  call void @llvm.dbg.declare(metadata %struct.ap_uint** %3, metadata !18004, metadata !DIExpression()), !dbg !18005
  store %struct.ap_uint* %1, %struct.ap_uint** %4, align 8
  call void @llvm.dbg.declare(metadata %struct.ap_uint** %4, metadata !18006, metadata !DIExpression()), !dbg !18007
  %5 = load %struct.ap_uint*, %struct.ap_uint** %3, align 8
  %6 = load %struct.ap_uint*, %struct.ap_uint** %4, align 8, !dbg !18008
  %7 = bitcast %struct.ap_uint* %6 to %struct.ssdm_int_sim*, !dbg !18008
  %8 = getelementptr inbounds %struct.ssdm_int_sim, %struct.ssdm_int_sim* %7, i32 0, i32 0, !dbg !18009
  %9 = bitcast %struct.ap_uint* %5 to %struct.ap_int_base*, !dbg !18010
  %10 = bitcast %struct.ap_int_base* %9 to %struct.ssdm_int_sim*, !dbg !18010
  %11 = getelementptr inbounds %struct.ssdm_int_sim, %struct.ssdm_int_sim* %10, i32 0, i32 0, !dbg !18010
  %12 = call dereferenceable(1) %class.ap_private* @_ZN10ap_privateILi8ELb0ELb1EEaSERKS0_(%class.ap_private* %11, %class.ap_private* dereferenceable(1) %8), !dbg !18011
  ret %struct.ap_uint* %5, !dbg !18012
}

; Function Attrs: noinline uwtable
define linkonce_odr dso_local void @_ZN7ap_uintILi128EEC2Ev(%struct.ap_uint.0*) unnamed_addr #0 comdat align 2 !dbg !18013 {
  %2 = alloca %struct.ap_uint.0*, align 8
  store %struct.ap_uint.0* %0, %struct.ap_uint.0** %2, align 8
  call void @llvm.dbg.declare(metadata %struct.ap_uint.0** %2, metadata !18014, metadata !DIExpression()), !dbg !18016
  %3 = load %struct.ap_uint.0*, %struct.ap_uint.0** %2, align 8
  %4 = bitcast %struct.ap_uint.0* %3 to %struct.ap_int_base.1*, !dbg !18017
  call void @_ZN11ap_int_baseILi128ELb0EEC2Ev(%struct.ap_int_base.1* %4), !dbg !18018
  ret void, !dbg !18019
}

; Function Attrs: noinline uwtable
define linkonce_odr dso_local void @_ZN7ap_uintILi128EEC2Ei(%struct.ap_uint.0*, i32) unnamed_addr #0 comdat align 2 personality i8* bitcast (i32 (...)* @__gxx_personality_v0 to i8*) !dbg !18020 {
  %3 = alloca %struct.ap_uint.0*, align 8
  %4 = alloca i32, align 4
  %5 = alloca i8*
  %6 = alloca i32
  store %struct.ap_uint.0* %0, %struct.ap_uint.0** %3, align 8
  call void @llvm.dbg.declare(metadata %struct.ap_uint.0** %3, metadata !18021, metadata !DIExpression()), !dbg !18022
  store i32 %1, i32* %4, align 4
  call void @llvm.dbg.declare(metadata i32* %4, metadata !18023, metadata !DIExpression()), !dbg !18024
  %7 = load %struct.ap_uint.0*, %struct.ap_uint.0** %3, align 8
  %8 = bitcast %struct.ap_uint.0* %7 to %struct.ap_int_base.1*, !dbg !18024
  call void @_ZN11ap_int_baseILi128ELb0EEC2Ev(%struct.ap_int_base.1* %8), !dbg !18024
  %9 = load i32, i32* %4, align 4, !dbg !18025
  %10 = bitcast %struct.ap_uint.0* %7 to %struct.ap_int_base.1*, !dbg !18025
  %11 = bitcast %struct.ap_int_base.1* %10 to %struct.ssdm_int_sim.2*, !dbg !18025
  %12 = getelementptr inbounds %struct.ssdm_int_sim.2, %struct.ssdm_int_sim.2* %11, i32 0, i32 0, !dbg !18025
  %13 = invoke dereferenceable(16) %class.ap_private.3* @_ZN10ap_privateILi128ELb0ELb0EEaSEi(%class.ap_private.3* %12, i32 %9)
          to label %14 unwind label %15, !dbg !18025

14:                                               ; preds = %2
  ret void, !dbg !18024

15:                                               ; preds = %2
  %16 = landingpad { i8*, i32 }
          cleanup, !dbg !18025
  %17 = extractvalue { i8*, i32 } %16, 0, !dbg !18025
  store i8* %17, i8** %5, align 8, !dbg !18025
  %18 = extractvalue { i8*, i32 } %16, 1, !dbg !18025
  store i32 %18, i32* %6, align 4, !dbg !18025
  %19 = bitcast %struct.ap_uint.0* %7 to %struct.ap_int_base.1*, !dbg !18025
  call void @_ZN11ap_int_baseILi128ELb0EED2Ev(%struct.ap_int_base.1* %19) #3, !dbg !18025
  %20 = load i8*, i8** %5, align 8, !dbg !18025
  %21 = load i32, i32* %6, align 4, !dbg !18025
  %22 = insertvalue { i8*, i32 } undef, i8* %20, 0, !dbg !18025
  %23 = insertvalue { i8*, i32 } %22, i32 %21, 1, !dbg !18025
  resume { i8*, i32 } %23, !dbg !18025
}

; Function Attrs: noinline uwtable
define linkonce_odr dso_local dereferenceable(16) %struct.ap_uint.0* @_ZN7ap_uintILi128EEaSERKS0_(%struct.ap_uint.0*, %struct.ap_uint.0* dereferenceable(16)) #0 comdat align 2 !dbg !18027 {
  %3 = alloca %struct.ap_uint.0*, align 8
  %4 = alloca %struct.ap_uint.0*, align 8
  store %struct.ap_uint.0* %0, %struct.ap_uint.0** %3, align 8
  call void @llvm.dbg.declare(metadata %struct.ap_uint.0** %3, metadata !18028, metadata !DIExpression()), !dbg !18029
  store %struct.ap_uint.0* %1, %struct.ap_uint.0** %4, align 8
  call void @llvm.dbg.declare(metadata %struct.ap_uint.0** %4, metadata !18030, metadata !DIExpression()), !dbg !18031
  %5 = load %struct.ap_uint.0*, %struct.ap_uint.0** %3, align 8
  %6 = load %struct.ap_uint.0*, %struct.ap_uint.0** %4, align 8, !dbg !18032
  %7 = bitcast %struct.ap_uint.0* %6 to %struct.ssdm_int_sim.2*, !dbg !18032
  %8 = getelementptr inbounds %struct.ssdm_int_sim.2, %struct.ssdm_int_sim.2* %7, i32 0, i32 0, !dbg !18033
  %9 = bitcast %struct.ap_uint.0* %5 to %struct.ap_int_base.1*, !dbg !18034
  %10 = bitcast %struct.ap_int_base.1* %9 to %struct.ssdm_int_sim.2*, !dbg !18034
  %11 = getelementptr inbounds %struct.ssdm_int_sim.2, %struct.ssdm_int_sim.2* %10, i32 0, i32 0, !dbg !18034
  %12 = call dereferenceable(16) %class.ap_private.3* @_ZN10ap_privateILi128ELb0ELb0EEaSERKS0_(%class.ap_private.3* %11, %class.ap_private.3* dereferenceable(16) %8), !dbg !18035
  ret %struct.ap_uint.0* %5, !dbg !18036
}

; Function Attrs: noinline nounwind uwtable
define linkonce_odr dso_local void @_ZN7ap_uintILi128EED2Ev(%struct.ap_uint.0*) unnamed_addr #5 comdat align 2 !dbg !18037 {
  %2 = alloca %struct.ap_uint.0*, align 8
  store %struct.ap_uint.0* %0, %struct.ap_uint.0** %2, align 8
  call void @llvm.dbg.declare(metadata %struct.ap_uint.0** %2, metadata !18039, metadata !DIExpression()), !dbg !18040
  %3 = load %struct.ap_uint.0*, %struct.ap_uint.0** %2, align 8
  %4 = bitcast %struct.ap_uint.0* %3 to %struct.ap_int_base.1*, !dbg !18041
  call void @_ZN11ap_int_baseILi128ELb0EED2Ev(%struct.ap_int_base.1* %4) #3, !dbg !18041
  ret void, !dbg !18043
}

; Function Attrs: noinline uwtable
define linkonce_odr dso_local void @_ZN11ap_int_baseILi128ELb0EEclEii(%struct.ap_range_ref* noalias sret, %struct.ap_int_base.1*, i32, i32) #0 comdat align 2 !dbg !18044 {
  %5 = alloca i8*, align 8
  %6 = alloca %struct.ap_int_base.1*, align 8
  %7 = alloca i32, align 4
  %8 = alloca i32, align 4
  %9 = bitcast %struct.ap_range_ref* %0 to i8*
  store i8* %9, i8** %5, align 8
  store %struct.ap_int_base.1* %1, %struct.ap_int_base.1** %6, align 8
  call void @llvm.dbg.declare(metadata %struct.ap_int_base.1** %6, metadata !18045, metadata !DIExpression()), !dbg !18047
  store i32 %2, i32* %7, align 4
  call void @llvm.dbg.declare(metadata i32* %7, metadata !18048, metadata !DIExpression()), !dbg !18049
  store i32 %3, i32* %8, align 4
  call void @llvm.dbg.declare(metadata i32* %8, metadata !18050, metadata !DIExpression()), !dbg !18051
  %10 = load %struct.ap_int_base.1*, %struct.ap_int_base.1** %6, align 8
  %11 = load i32, i32* %7, align 4, !dbg !18052
  %12 = load i32, i32* %8, align 4, !dbg !18053
  call void @_ZN11ap_int_baseILi128ELb0EE5rangeEii(%struct.ap_range_ref* sret %0, %struct.ap_int_base.1* %10, i32 %11, i32 %12), !dbg !18054
  ret void, !dbg !18055
}

; Function Attrs: noinline uwtable
define linkonce_odr dso_local dereferenceable(16) %struct.ap_range_ref* @_ZN12ap_range_refILi128ELb0EEaSILi8ELb0EEERS0_RK11ap_int_baseIXT_EXT0_EE(%struct.ap_range_ref*, %struct.ap_int_base* dereferenceable(1)) #0 comdat align 2 personality i8* bitcast (i32 (...)* @__gxx_personality_v0 to i8*) !dbg !18056 {
  %3 = alloca %struct.ap_range_ref*, align 8
  %4 = alloca %struct.ap_int_base*, align 8
  %5 = alloca %struct.ap_int_base.1, align 8
  %6 = alloca i8*
  %7 = alloca i32
  store %struct.ap_range_ref* %0, %struct.ap_range_ref** %3, align 8
  call void @llvm.dbg.declare(metadata %struct.ap_range_ref** %3, metadata !18060, metadata !DIExpression()), !dbg !18062
  store %struct.ap_int_base* %1, %struct.ap_int_base** %4, align 8
  call void @llvm.dbg.declare(metadata %struct.ap_int_base** %4, metadata !18063, metadata !DIExpression()), !dbg !18064
  %8 = load %struct.ap_range_ref*, %struct.ap_range_ref** %3, align 8
  call void @llvm.dbg.declare(metadata %struct.ap_int_base.1* %5, metadata !18065, metadata !DIExpression()), !dbg !18066
  %9 = load %struct.ap_int_base*, %struct.ap_int_base** %4, align 8, !dbg !18067
  call void @_ZN11ap_int_baseILi128ELb0EEC2ILi8ELb0EEERKS_IXT_EXT0_EE(%struct.ap_int_base.1* %5, %struct.ap_int_base* dereferenceable(1) %9), !dbg !18066
  %10 = getelementptr inbounds %struct.ap_range_ref, %struct.ap_range_ref* %8, i32 0, i32 0, !dbg !18068
  %11 = load %struct.ap_int_base.1*, %struct.ap_int_base.1** %10, align 8, !dbg !18068
  %12 = bitcast %struct.ap_int_base.1* %11 to %struct.ssdm_int_sim.2*, !dbg !18068
  %13 = getelementptr inbounds %struct.ssdm_int_sim.2, %struct.ssdm_int_sim.2* %12, i32 0, i32 0, !dbg !18069
  %14 = getelementptr inbounds %struct.ap_range_ref, %struct.ap_range_ref* %8, i32 0, i32 1, !dbg !18070
  %15 = getelementptr inbounds %struct.ap_range_ref, %struct.ap_range_ref* %8, i32 0, i32 2, !dbg !18071
  %16 = bitcast %struct.ap_int_base.1* %5 to %struct.ssdm_int_sim.2*, !dbg !18072
  %17 = getelementptr inbounds %struct.ssdm_int_sim.2, %struct.ssdm_int_sim.2* %16, i32 0, i32 0, !dbg !18073
  %18 = invoke dereferenceable(16) %class.ap_private.3* @_Z21_AP_ROOT_op_set_rangeI10ap_privateILi128ELb0ELb0EEiiS1_ERT_S3_RKT0_RKT1_RKT2_(%class.ap_private.3* dereferenceable(16) %13, i32* dereferenceable(4) %14, i32* dereferenceable(4) %15, %class.ap_private.3* dereferenceable(16) %17)
          to label %19 unwind label %26, !dbg !18074

19:                                               ; preds = %2
  %20 = getelementptr inbounds %struct.ap_range_ref, %struct.ap_range_ref* %8, i32 0, i32 0, !dbg !18075
  %21 = load %struct.ap_int_base.1*, %struct.ap_int_base.1** %20, align 8, !dbg !18075
  %22 = bitcast %struct.ap_int_base.1* %21 to %struct.ssdm_int_sim.2*, !dbg !18075
  %23 = getelementptr inbounds %struct.ssdm_int_sim.2, %struct.ssdm_int_sim.2* %22, i32 0, i32 0, !dbg !18076
  %24 = invoke dereferenceable(16) %class.ap_private.3* @_ZN10ap_privateILi128ELb0ELb0EEaSERKS0_(%class.ap_private.3* %23, %class.ap_private.3* dereferenceable(16) %18)
          to label %25 unwind label %26, !dbg !18077

25:                                               ; preds = %19
  call void @_ZN11ap_int_baseILi128ELb0EED2Ev(%struct.ap_int_base.1* %5) #3, !dbg !18078
  ret %struct.ap_range_ref* %8, !dbg !18078

26:                                               ; preds = %19, %2
  %27 = landingpad { i8*, i32 }
          cleanup, !dbg !18078
  %28 = extractvalue { i8*, i32 } %27, 0, !dbg !18078
  store i8* %28, i8** %6, align 8, !dbg !18078
  %29 = extractvalue { i8*, i32 } %27, 1, !dbg !18078
  store i32 %29, i32* %7, align 4, !dbg !18078
  call void @_ZN11ap_int_baseILi128ELb0EED2Ev(%struct.ap_int_base.1* %5) #3, !dbg !18078
  %30 = load i8*, i8** %6, align 8, !dbg !18078
  %31 = load i32, i32* %7, align 4, !dbg !18078
  %32 = insertvalue { i8*, i32 } undef, i8* %30, 0, !dbg !18078
  %33 = insertvalue { i8*, i32 } %32, i32 %31, 1, !dbg !18078
  resume { i8*, i32 } %33, !dbg !18078
}

; Function Attrs: noinline uwtable
define linkonce_odr dso_local void @_ZN7ap_uintILi3EEC2ILi128ELb0EEERK12ap_range_refIXT_EXT0_EE(%struct.ap_uint.4*, %struct.ap_range_ref* dereferenceable(16)) unnamed_addr #0 comdat align 2 !dbg !18079 {
  %3 = alloca %struct.ap_uint.4*, align 8
  %4 = alloca %struct.ap_range_ref*, align 8
  store %struct.ap_uint.4* %0, %struct.ap_uint.4** %3, align 8
  call void @llvm.dbg.declare(metadata %struct.ap_uint.4** %3, metadata !18083, metadata !DIExpression()), !dbg !18085
  store %struct.ap_range_ref* %1, %struct.ap_range_ref** %4, align 8
  call void @llvm.dbg.declare(metadata %struct.ap_range_ref** %4, metadata !18086, metadata !DIExpression()), !dbg !18087
  %5 = load %struct.ap_uint.4*, %struct.ap_uint.4** %3, align 8
  %6 = bitcast %struct.ap_uint.4* %5 to %struct.ap_int_base.5*, !dbg !18088
  %7 = load %struct.ap_range_ref*, %struct.ap_range_ref** %4, align 8, !dbg !18089
  call void @_ZN11ap_int_baseILi3ELb0EEC2ILi128ELb0EEERK12ap_range_refIXT_EXT0_EE(%struct.ap_int_base.5* %6, %struct.ap_range_ref* dereferenceable(16) %7), !dbg !18090
  ret void, !dbg !18091
}

; Function Attrs: noinline uwtable
define linkonce_odr dso_local i64 @_ZNK11ap_int_baseILi3ELb0EEcvyEv(%struct.ap_int_base.5*) #0 comdat align 2 !dbg !18092 {
  %2 = alloca %struct.ap_int_base.5*, align 8
  store %struct.ap_int_base.5* %0, %struct.ap_int_base.5** %2, align 8
  call void @llvm.dbg.declare(metadata %struct.ap_int_base.5** %2, metadata !18093, metadata !DIExpression()), !dbg !18095
  %3 = load %struct.ap_int_base.5*, %struct.ap_int_base.5** %2, align 8
  %4 = bitcast %struct.ap_int_base.5* %3 to %struct.ssdm_int_sim.6*, !dbg !18096
  %5 = getelementptr inbounds %struct.ssdm_int_sim.6, %struct.ssdm_int_sim.6* %4, i32 0, i32 0, !dbg !18096
  %6 = call zeroext i8 @_ZNK10ap_privateILi3ELb0ELb1EEcvhEv(%class.ap_private.7* %5), !dbg !18097
  %7 = zext i8 %6 to i64, !dbg !18097
  ret i64 %7, !dbg !18098
}

; Function Attrs: noinline nounwind uwtable
define linkonce_odr dso_local void @_ZN7ap_uintILi3EED2Ev(%struct.ap_uint.4*) unnamed_addr #5 comdat align 2 !dbg !18099 {
  %2 = alloca %struct.ap_uint.4*, align 8
  store %struct.ap_uint.4* %0, %struct.ap_uint.4** %2, align 8
  call void @llvm.dbg.declare(metadata %struct.ap_uint.4** %2, metadata !18101, metadata !DIExpression()), !dbg !18102
  %3 = load %struct.ap_uint.4*, %struct.ap_uint.4** %2, align 8
  %4 = bitcast %struct.ap_uint.4* %3 to %struct.ap_int_base.5*, !dbg !18103
  call void @_ZN11ap_int_baseILi3ELb0EED2Ev(%struct.ap_int_base.5* %4) #3, !dbg !18103
  ret void, !dbg !18105
}

; Function Attrs: noinline uwtable
define linkonce_odr dso_local void @_ZN7ap_uintILi2EEC2ILi128ELb0EEERK12ap_range_refIXT_EXT0_EE(%struct.ap_uint.8*, %struct.ap_range_ref* dereferenceable(16)) unnamed_addr #0 comdat align 2 !dbg !18106 {
  %3 = alloca %struct.ap_uint.8*, align 8
  %4 = alloca %struct.ap_range_ref*, align 8
  store %struct.ap_uint.8* %0, %struct.ap_uint.8** %3, align 8
  call void @llvm.dbg.declare(metadata %struct.ap_uint.8** %3, metadata !18110, metadata !DIExpression()), !dbg !18112
  store %struct.ap_range_ref* %1, %struct.ap_range_ref** %4, align 8
  call void @llvm.dbg.declare(metadata %struct.ap_range_ref** %4, metadata !18113, metadata !DIExpression()), !dbg !18114
  %5 = load %struct.ap_uint.8*, %struct.ap_uint.8** %3, align 8
  %6 = bitcast %struct.ap_uint.8* %5 to %struct.ap_int_base.9*, !dbg !18115
  %7 = load %struct.ap_range_ref*, %struct.ap_range_ref** %4, align 8, !dbg !18116
  call void @_ZN11ap_int_baseILi2ELb0EEC2ILi128ELb0EEERK12ap_range_refIXT_EXT0_EE(%struct.ap_int_base.9* %6, %struct.ap_range_ref* dereferenceable(16) %7), !dbg !18117
  ret void, !dbg !18118
}

; Function Attrs: noinline uwtable
define linkonce_odr dso_local i64 @_ZNK11ap_int_baseILi2ELb0EEcvyEv(%struct.ap_int_base.9*) #0 comdat align 2 !dbg !18119 {
  %2 = alloca %struct.ap_int_base.9*, align 8
  store %struct.ap_int_base.9* %0, %struct.ap_int_base.9** %2, align 8
  call void @llvm.dbg.declare(metadata %struct.ap_int_base.9** %2, metadata !18120, metadata !DIExpression()), !dbg !18122
  %3 = load %struct.ap_int_base.9*, %struct.ap_int_base.9** %2, align 8
  %4 = bitcast %struct.ap_int_base.9* %3 to %struct.ssdm_int_sim.10*, !dbg !18123
  %5 = getelementptr inbounds %struct.ssdm_int_sim.10, %struct.ssdm_int_sim.10* %4, i32 0, i32 0, !dbg !18123
  %6 = call zeroext i8 @_ZNK10ap_privateILi2ELb0ELb1EEcvhEv(%class.ap_private.11* %5), !dbg !18124
  %7 = zext i8 %6 to i64, !dbg !18124
  ret i64 %7, !dbg !18125
}

; Function Attrs: noinline nounwind uwtable
define linkonce_odr dso_local void @_ZN7ap_uintILi2EED2Ev(%struct.ap_uint.8*) unnamed_addr #5 comdat align 2 !dbg !18126 {
  %2 = alloca %struct.ap_uint.8*, align 8
  store %struct.ap_uint.8* %0, %struct.ap_uint.8** %2, align 8
  call void @llvm.dbg.declare(metadata %struct.ap_uint.8** %2, metadata !18128, metadata !DIExpression()), !dbg !18129
  %3 = load %struct.ap_uint.8*, %struct.ap_uint.8** %2, align 8
  %4 = bitcast %struct.ap_uint.8* %3 to %struct.ap_int_base.9*, !dbg !18130
  call void @_ZN11ap_int_baseILi2ELb0EED2Ev(%struct.ap_int_base.9* %4) #3, !dbg !18130
  ret void, !dbg !18132
}

; Function Attrs: noinline uwtable
define linkonce_odr dso_local void @_ZN7ap_uintILi16EEC2Ev(%struct.ap_uint.12*) unnamed_addr #0 comdat align 2 !dbg !18133 {
  %2 = alloca %struct.ap_uint.12*, align 8
  store %struct.ap_uint.12* %0, %struct.ap_uint.12** %2, align 8
  call void @llvm.dbg.declare(metadata %struct.ap_uint.12** %2, metadata !18134, metadata !DIExpression()), !dbg !18136
  %3 = load %struct.ap_uint.12*, %struct.ap_uint.12** %2, align 8
  %4 = bitcast %struct.ap_uint.12* %3 to %struct.ap_int_base.13*, !dbg !18137
  call void @_ZN11ap_int_baseILi16ELb0EEC2Ev(%struct.ap_int_base.13* %4), !dbg !18138
  ret void, !dbg !18139
}

; Function Attrs: noinline uwtable
define linkonce_odr dso_local void @_ZN7ap_uintILi16EEC2ILi128ELb0EEERK12ap_range_refIXT_EXT0_EE(%struct.ap_uint.12*, %struct.ap_range_ref* dereferenceable(16)) unnamed_addr #0 comdat align 2 !dbg !18140 {
  %3 = alloca %struct.ap_uint.12*, align 8
  %4 = alloca %struct.ap_range_ref*, align 8
  store %struct.ap_uint.12* %0, %struct.ap_uint.12** %3, align 8
  call void @llvm.dbg.declare(metadata %struct.ap_uint.12** %3, metadata !18144, metadata !DIExpression()), !dbg !18145
  store %struct.ap_range_ref* %1, %struct.ap_range_ref** %4, align 8
  call void @llvm.dbg.declare(metadata %struct.ap_range_ref** %4, metadata !18146, metadata !DIExpression()), !dbg !18147
  %5 = load %struct.ap_uint.12*, %struct.ap_uint.12** %3, align 8
  %6 = bitcast %struct.ap_uint.12* %5 to %struct.ap_int_base.13*, !dbg !18148
  %7 = load %struct.ap_range_ref*, %struct.ap_range_ref** %4, align 8, !dbg !18149
  call void @_ZN11ap_int_baseILi16ELb0EEC2ILi128ELb0EEERK12ap_range_refIXT_EXT0_EE(%struct.ap_int_base.13* %6, %struct.ap_range_ref* dereferenceable(16) %7), !dbg !18150
  ret void, !dbg !18151
}

; Function Attrs: noinline uwtable
define linkonce_odr dso_local dereferenceable(2) %struct.ap_uint.12* @_ZN7ap_uintILi16EEaSERKS0_(%struct.ap_uint.12*, %struct.ap_uint.12* dereferenceable(2)) #0 comdat align 2 !dbg !18152 {
  %3 = alloca %struct.ap_uint.12*, align 8
  %4 = alloca %struct.ap_uint.12*, align 8
  store %struct.ap_uint.12* %0, %struct.ap_uint.12** %3, align 8
  call void @llvm.dbg.declare(metadata %struct.ap_uint.12** %3, metadata !18153, metadata !DIExpression()), !dbg !18154
  store %struct.ap_uint.12* %1, %struct.ap_uint.12** %4, align 8
  call void @llvm.dbg.declare(metadata %struct.ap_uint.12** %4, metadata !18155, metadata !DIExpression()), !dbg !18156
  %5 = load %struct.ap_uint.12*, %struct.ap_uint.12** %3, align 8
  %6 = load %struct.ap_uint.12*, %struct.ap_uint.12** %4, align 8, !dbg !18157
  %7 = bitcast %struct.ap_uint.12* %6 to %struct.ssdm_int_sim.14*, !dbg !18157
  %8 = getelementptr inbounds %struct.ssdm_int_sim.14, %struct.ssdm_int_sim.14* %7, i32 0, i32 0, !dbg !18158
  %9 = bitcast %struct.ap_uint.12* %5 to %struct.ap_int_base.13*, !dbg !18159
  %10 = bitcast %struct.ap_int_base.13* %9 to %struct.ssdm_int_sim.14*, !dbg !18159
  %11 = getelementptr inbounds %struct.ssdm_int_sim.14, %struct.ssdm_int_sim.14* %10, i32 0, i32 0, !dbg !18159
  %12 = call dereferenceable(2) %class.ap_private.15* @_ZN10ap_privateILi16ELb0ELb1EEaSERKS0_(%class.ap_private.15* %11, %class.ap_private.15* dereferenceable(2) %8), !dbg !18160
  ret %struct.ap_uint.12* %5, !dbg !18161
}

; Function Attrs: noinline nounwind uwtable
define linkonce_odr dso_local void @_ZN7ap_uintILi16EED2Ev(%struct.ap_uint.12*) unnamed_addr #5 comdat align 2 !dbg !18162 {
  %2 = alloca %struct.ap_uint.12*, align 8
  store %struct.ap_uint.12* %0, %struct.ap_uint.12** %2, align 8
  call void @llvm.dbg.declare(metadata %struct.ap_uint.12** %2, metadata !18164, metadata !DIExpression()), !dbg !18165
  %3 = load %struct.ap_uint.12*, %struct.ap_uint.12** %2, align 8
  %4 = bitcast %struct.ap_uint.12* %3 to %struct.ap_int_base.13*, !dbg !18166
  call void @_ZN11ap_int_baseILi16ELb0EED2Ev(%struct.ap_int_base.13* %4) #3, !dbg !18166
  ret void, !dbg !18168
}

; Function Attrs: noinline uwtable
define linkonce_odr dso_local i64 @_ZNK12ap_range_refILi128ELb0EEcvyEv(%struct.ap_range_ref*) #0 comdat align 2 !dbg !18169 {
  %2 = alloca %struct.ap_range_ref*, align 8
  store %struct.ap_range_ref* %0, %struct.ap_range_ref** %2, align 8
  call void @llvm.dbg.declare(metadata %struct.ap_range_ref** %2, metadata !18170, metadata !DIExpression()), !dbg !18172
  %3 = load %struct.ap_range_ref*, %struct.ap_range_ref** %2, align 8
  %4 = call i64 @_ZNK12ap_range_refILi128ELb0EE9to_uint64Ev(%struct.ap_range_ref* %3), !dbg !18173
  ret i64 %4, !dbg !18174
}

; Function Attrs: noinline uwtable
define linkonce_odr dso_local i64 @_ZNK11ap_int_baseILi16ELb0EEcvyEv(%struct.ap_int_base.13*) #0 comdat align 2 !dbg !18175 {
  %2 = alloca %struct.ap_int_base.13*, align 8
  store %struct.ap_int_base.13* %0, %struct.ap_int_base.13** %2, align 8
  call void @llvm.dbg.declare(metadata %struct.ap_int_base.13** %2, metadata !18176, metadata !DIExpression()), !dbg !18178
  %3 = load %struct.ap_int_base.13*, %struct.ap_int_base.13** %2, align 8
  %4 = bitcast %struct.ap_int_base.13* %3 to %struct.ssdm_int_sim.14*, !dbg !18179
  %5 = getelementptr inbounds %struct.ssdm_int_sim.14, %struct.ssdm_int_sim.14* %4, i32 0, i32 0, !dbg !18179
  %6 = call zeroext i16 @_ZNK10ap_privateILi16ELb0ELb1EEcvtEv(%class.ap_private.15* %5), !dbg !18180
  %7 = zext i16 %6 to i64, !dbg !18180
  ret i64 %7, !dbg !18181
}

; Function Attrs: noinline uwtable
define linkonce_odr dso_local void @_ZplILi67ELb1ELi67ELb1EEN11ap_int_baseIXT_EXT0_EE5RTypeIXT1_EXT2_EE4plusERKS1_RKS0_IXT1_EXT2_EE(%struct.ap_int* noalias sret, %struct.ap_int_base.19* dereferenceable(16), %struct.ap_int_base.19* dereferenceable(16)) #0 comdat personality i8* bitcast (i32 (...)* @__gxx_personality_v0 to i8*) !dbg !18182 {
  %4 = alloca i8*, align 8
  %5 = alloca %struct.ap_int_base.19*, align 8
  %6 = alloca %struct.ap_int_base.19*, align 8
  %7 = alloca %struct.ap_int_base.16, align 8
  %8 = alloca %struct.ap_int_base.16, align 8
  %9 = alloca i8*
  %10 = alloca i32
  %11 = alloca %struct.ap_int_base.16, align 8
  %12 = alloca %class.ap_private.40, align 8
  %13 = bitcast %struct.ap_int* %0 to i8*
  store i8* %13, i8** %4, align 8
  store %struct.ap_int_base.19* %1, %struct.ap_int_base.19** %5, align 8
  call void @llvm.dbg.declare(metadata %struct.ap_int_base.19** %5, metadata !18187, metadata !DIExpression()), !dbg !18188
  store %struct.ap_int_base.19* %2, %struct.ap_int_base.19** %6, align 8
  call void @llvm.dbg.declare(metadata %struct.ap_int_base.19** %6, metadata !18189, metadata !DIExpression()), !dbg !18188
  call void @llvm.dbg.declare(metadata %struct.ap_int_base.16* %7, metadata !18190, metadata !DIExpression()), !dbg !18188
  %14 = load %struct.ap_int_base.19*, %struct.ap_int_base.19** %5, align 8, !dbg !18188
  call void @_ZN11ap_int_baseILi68ELb1EEC2ILi67ELb1EEERKS_IXT_EXT0_EE(%struct.ap_int_base.16* %7, %struct.ap_int_base.19* dereferenceable(16) %14), !dbg !18188
  call void @llvm.dbg.declare(metadata %struct.ap_int_base.16* %8, metadata !18192, metadata !DIExpression()), !dbg !18188
  %15 = load %struct.ap_int_base.19*, %struct.ap_int_base.19** %6, align 8, !dbg !18188
  invoke void @_ZN11ap_int_baseILi68ELb1EEC2ILi67ELb1EEERKS_IXT_EXT0_EE(%struct.ap_int_base.16* %8, %struct.ap_int_base.19* dereferenceable(16) %15)
          to label %16 unwind label %28, !dbg !18188

16:                                               ; preds = %3
  call void @llvm.dbg.declare(metadata %struct.ap_int_base.16* %11, metadata !18193, metadata !DIExpression()), !dbg !18188
  invoke void @_ZN11ap_int_baseILi68ELb1EEC2Ev(%struct.ap_int_base.16* %11)
          to label %17 unwind label %32, !dbg !18188

17:                                               ; preds = %16
  %18 = bitcast %struct.ap_int_base.16* %7 to %struct.ssdm_int_sim.17*, !dbg !18188
  %19 = getelementptr inbounds %struct.ssdm_int_sim.17, %struct.ssdm_int_sim.17* %18, i32 0, i32 0, !dbg !18188
  %20 = bitcast %struct.ap_int_base.16* %8 to %struct.ssdm_int_sim.17*, !dbg !18188
  %21 = getelementptr inbounds %struct.ssdm_int_sim.17, %struct.ssdm_int_sim.17* %20, i32 0, i32 0, !dbg !18188
  invoke void @_ZNK10ap_privateILi68ELb1ELb0EEplILi68ELb1EEENS0_5RTypeIXT_EXT0_EE4plusERKS_IXT_EXT0_EXleT_Li64EEE(%class.ap_private.40* sret %12, %class.ap_private.18* %19, %class.ap_private.18* dereferenceable(16) %21)
          to label %22 unwind label %36, !dbg !18188

22:                                               ; preds = %17
  %23 = bitcast %struct.ap_int_base.16* %11 to %struct.ssdm_int_sim.17*, !dbg !18188
  %24 = getelementptr inbounds %struct.ssdm_int_sim.17, %struct.ssdm_int_sim.17* %23, i32 0, i32 0, !dbg !18188
  %25 = invoke dereferenceable(16) %class.ap_private.18* @_ZN10ap_privateILi68ELb1ELb0EEaSILi69ELb1EEERS0_RKS_IXT_EXT0_EXleT_Li64EEE(%class.ap_private.18* %24, %class.ap_private.40* dereferenceable(16) %12)
          to label %26 unwind label %40, !dbg !18188

26:                                               ; preds = %22
  call void @_ZN10ap_privateILi69ELb1ELb0EED2Ev(%class.ap_private.40* %12) #3, !dbg !18188
  invoke void @_ZN6ap_intILi68EEC2ILi68ELb1EEERK11ap_int_baseIXT_EXT0_EE(%struct.ap_int* %0, %struct.ap_int_base.16* dereferenceable(16) %11)
          to label %27 unwind label %36, !dbg !18188

27:                                               ; preds = %26
  call void @_ZN11ap_int_baseILi68ELb1EED2Ev(%struct.ap_int_base.16* %11) #3, !dbg !18188
  call void @_ZN11ap_int_baseILi68ELb1EED2Ev(%struct.ap_int_base.16* %8) #3, !dbg !18188
  call void @_ZN11ap_int_baseILi68ELb1EED2Ev(%struct.ap_int_base.16* %7) #3, !dbg !18188
  ret void, !dbg !18188

28:                                               ; preds = %3
  %29 = landingpad { i8*, i32 }
          cleanup, !dbg !18188
  %30 = extractvalue { i8*, i32 } %29, 0, !dbg !18188
  store i8* %30, i8** %9, align 8, !dbg !18188
  %31 = extractvalue { i8*, i32 } %29, 1, !dbg !18188
  store i32 %31, i32* %10, align 4, !dbg !18188
  br label %46, !dbg !18188

32:                                               ; preds = %16
  %33 = landingpad { i8*, i32 }
          cleanup, !dbg !18188
  %34 = extractvalue { i8*, i32 } %33, 0, !dbg !18188
  store i8* %34, i8** %9, align 8, !dbg !18188
  %35 = extractvalue { i8*, i32 } %33, 1, !dbg !18188
  store i32 %35, i32* %10, align 4, !dbg !18188
  br label %45, !dbg !18188

36:                                               ; preds = %26, %17
  %37 = landingpad { i8*, i32 }
          cleanup, !dbg !18188
  %38 = extractvalue { i8*, i32 } %37, 0, !dbg !18188
  store i8* %38, i8** %9, align 8, !dbg !18188
  %39 = extractvalue { i8*, i32 } %37, 1, !dbg !18188
  store i32 %39, i32* %10, align 4, !dbg !18188
  br label %44, !dbg !18188

40:                                               ; preds = %22
  %41 = landingpad { i8*, i32 }
          cleanup, !dbg !18188
  %42 = extractvalue { i8*, i32 } %41, 0, !dbg !18188
  store i8* %42, i8** %9, align 8, !dbg !18188
  %43 = extractvalue { i8*, i32 } %41, 1, !dbg !18188
  store i32 %43, i32* %10, align 4, !dbg !18188
  call void @_ZN10ap_privateILi69ELb1ELb0EED2Ev(%class.ap_private.40* %12) #3, !dbg !18188
  br label %44, !dbg !18188

44:                                               ; preds = %40, %36
  call void @_ZN11ap_int_baseILi68ELb1EED2Ev(%struct.ap_int_base.16* %11) #3, !dbg !18188
  br label %45, !dbg !18188

45:                                               ; preds = %44, %32
  call void @_ZN11ap_int_baseILi68ELb1EED2Ev(%struct.ap_int_base.16* %8) #3, !dbg !18188
  br label %46, !dbg !18188

46:                                               ; preds = %45, %28
  call void @_ZN11ap_int_baseILi68ELb1EED2Ev(%struct.ap_int_base.16* %7) #3, !dbg !18188
  %47 = load i8*, i8** %9, align 8, !dbg !18188
  %48 = load i32, i32* %10, align 4, !dbg !18188
  %49 = insertvalue { i8*, i32 } undef, i8* %47, 0, !dbg !18188
  %50 = insertvalue { i8*, i32 } %49, i32 %48, 1, !dbg !18188
  resume { i8*, i32 } %50, !dbg !18188
}

; Function Attrs: noinline uwtable
define linkonce_odr dso_local void @_ZplILi66ELb1ELi66ELb1EEN11ap_int_baseIXT_EXT0_EE5RTypeIXT1_EXT2_EE4plusERKS1_RKS0_IXT1_EXT2_EE(%struct.ap_int.22* noalias sret, %struct.ap_int_base.23* dereferenceable(16), %struct.ap_int_base.23* dereferenceable(16)) #0 comdat personality i8* bitcast (i32 (...)* @__gxx_personality_v0 to i8*) !dbg !18194 {
  %4 = alloca i8*, align 8
  %5 = alloca %struct.ap_int_base.23*, align 8
  %6 = alloca %struct.ap_int_base.23*, align 8
  %7 = alloca %struct.ap_int_base.19, align 8
  %8 = alloca %struct.ap_int_base.19, align 8
  %9 = alloca i8*
  %10 = alloca i32
  %11 = alloca %struct.ap_int_base.19, align 8
  %12 = alloca %class.ap_private.18, align 8
  %13 = bitcast %struct.ap_int.22* %0 to i8*
  store i8* %13, i8** %4, align 8
  store %struct.ap_int_base.23* %1, %struct.ap_int_base.23** %5, align 8
  call void @llvm.dbg.declare(metadata %struct.ap_int_base.23** %5, metadata !18199, metadata !DIExpression()), !dbg !18200
  store %struct.ap_int_base.23* %2, %struct.ap_int_base.23** %6, align 8
  call void @llvm.dbg.declare(metadata %struct.ap_int_base.23** %6, metadata !18201, metadata !DIExpression()), !dbg !18200
  call void @llvm.dbg.declare(metadata %struct.ap_int_base.19* %7, metadata !18202, metadata !DIExpression()), !dbg !18200
  %14 = load %struct.ap_int_base.23*, %struct.ap_int_base.23** %5, align 8, !dbg !18200
  call void @_ZN11ap_int_baseILi67ELb1EEC2ILi66ELb1EEERKS_IXT_EXT0_EE(%struct.ap_int_base.19* %7, %struct.ap_int_base.23* dereferenceable(16) %14), !dbg !18200
  call void @llvm.dbg.declare(metadata %struct.ap_int_base.19* %8, metadata !18204, metadata !DIExpression()), !dbg !18200
  %15 = load %struct.ap_int_base.23*, %struct.ap_int_base.23** %6, align 8, !dbg !18200
  invoke void @_ZN11ap_int_baseILi67ELb1EEC2ILi66ELb1EEERKS_IXT_EXT0_EE(%struct.ap_int_base.19* %8, %struct.ap_int_base.23* dereferenceable(16) %15)
          to label %16 unwind label %28, !dbg !18200

16:                                               ; preds = %3
  call void @llvm.dbg.declare(metadata %struct.ap_int_base.19* %11, metadata !18205, metadata !DIExpression()), !dbg !18200
  invoke void @_ZN11ap_int_baseILi67ELb1EEC2Ev(%struct.ap_int_base.19* %11)
          to label %17 unwind label %32, !dbg !18200

17:                                               ; preds = %16
  %18 = bitcast %struct.ap_int_base.19* %7 to %struct.ssdm_int_sim.20*, !dbg !18200
  %19 = getelementptr inbounds %struct.ssdm_int_sim.20, %struct.ssdm_int_sim.20* %18, i32 0, i32 0, !dbg !18200
  %20 = bitcast %struct.ap_int_base.19* %8 to %struct.ssdm_int_sim.20*, !dbg !18200
  %21 = getelementptr inbounds %struct.ssdm_int_sim.20, %struct.ssdm_int_sim.20* %20, i32 0, i32 0, !dbg !18200
  invoke void @_ZNK10ap_privateILi67ELb1ELb0EEplILi67ELb1EEENS0_5RTypeIXT_EXT0_EE4plusERKS_IXT_EXT0_EXleT_Li64EEE(%class.ap_private.18* sret %12, %class.ap_private.21* %19, %class.ap_private.21* dereferenceable(16) %21)
          to label %22 unwind label %36, !dbg !18200

22:                                               ; preds = %17
  %23 = bitcast %struct.ap_int_base.19* %11 to %struct.ssdm_int_sim.20*, !dbg !18200
  %24 = getelementptr inbounds %struct.ssdm_int_sim.20, %struct.ssdm_int_sim.20* %23, i32 0, i32 0, !dbg !18200
  %25 = invoke dereferenceable(16) %class.ap_private.21* @_ZN10ap_privateILi67ELb1ELb0EEaSILi68ELb1EEERS0_RKS_IXT_EXT0_EXleT_Li64EEE(%class.ap_private.21* %24, %class.ap_private.18* dereferenceable(16) %12)
          to label %26 unwind label %40, !dbg !18200

26:                                               ; preds = %22
  call void @_ZN10ap_privateILi68ELb1ELb0EED2Ev(%class.ap_private.18* %12) #3, !dbg !18200
  invoke void @_ZN6ap_intILi67EEC2ILi67ELb1EEERK11ap_int_baseIXT_EXT0_EE(%struct.ap_int.22* %0, %struct.ap_int_base.19* dereferenceable(16) %11)
          to label %27 unwind label %36, !dbg !18200

27:                                               ; preds = %26
  call void @_ZN11ap_int_baseILi67ELb1EED2Ev(%struct.ap_int_base.19* %11) #3, !dbg !18200
  call void @_ZN11ap_int_baseILi67ELb1EED2Ev(%struct.ap_int_base.19* %8) #3, !dbg !18200
  call void @_ZN11ap_int_baseILi67ELb1EED2Ev(%struct.ap_int_base.19* %7) #3, !dbg !18200
  ret void, !dbg !18200

28:                                               ; preds = %3
  %29 = landingpad { i8*, i32 }
          cleanup, !dbg !18200
  %30 = extractvalue { i8*, i32 } %29, 0, !dbg !18200
  store i8* %30, i8** %9, align 8, !dbg !18200
  %31 = extractvalue { i8*, i32 } %29, 1, !dbg !18200
  store i32 %31, i32* %10, align 4, !dbg !18200
  br label %46, !dbg !18200

32:                                               ; preds = %16
  %33 = landingpad { i8*, i32 }
          cleanup, !dbg !18200
  %34 = extractvalue { i8*, i32 } %33, 0, !dbg !18200
  store i8* %34, i8** %9, align 8, !dbg !18200
  %35 = extractvalue { i8*, i32 } %33, 1, !dbg !18200
  store i32 %35, i32* %10, align 4, !dbg !18200
  br label %45, !dbg !18200

36:                                               ; preds = %26, %17
  %37 = landingpad { i8*, i32 }
          cleanup, !dbg !18200
  %38 = extractvalue { i8*, i32 } %37, 0, !dbg !18200
  store i8* %38, i8** %9, align 8, !dbg !18200
  %39 = extractvalue { i8*, i32 } %37, 1, !dbg !18200
  store i32 %39, i32* %10, align 4, !dbg !18200
  br label %44, !dbg !18200

40:                                               ; preds = %22
  %41 = landingpad { i8*, i32 }
          cleanup, !dbg !18200
  %42 = extractvalue { i8*, i32 } %41, 0, !dbg !18200
  store i8* %42, i8** %9, align 8, !dbg !18200
  %43 = extractvalue { i8*, i32 } %41, 1, !dbg !18200
  store i32 %43, i32* %10, align 4, !dbg !18200
  call void @_ZN10ap_privateILi68ELb1ELb0EED2Ev(%class.ap_private.18* %12) #3, !dbg !18200
  br label %44, !dbg !18200

44:                                               ; preds = %40, %36
  call void @_ZN11ap_int_baseILi67ELb1EED2Ev(%struct.ap_int_base.19* %11) #3, !dbg !18200
  br label %45, !dbg !18200

45:                                               ; preds = %44, %32
  call void @_ZN11ap_int_baseILi67ELb1EED2Ev(%struct.ap_int_base.19* %8) #3, !dbg !18200
  br label %46, !dbg !18200

46:                                               ; preds = %45, %28
  call void @_ZN11ap_int_baseILi67ELb1EED2Ev(%struct.ap_int_base.19* %7) #3, !dbg !18200
  %47 = load i8*, i8** %9, align 8, !dbg !18200
  %48 = load i32, i32* %10, align 4, !dbg !18200
  %49 = insertvalue { i8*, i32 } undef, i8* %47, 0, !dbg !18200
  %50 = insertvalue { i8*, i32 } %49, i32 %48, 1, !dbg !18200
  resume { i8*, i32 } %50, !dbg !18200
}

; Function Attrs: noinline uwtable
define linkonce_odr dso_local void @_ZN6ap_intILi66EEC2ILi16EEERK7ap_uintIXT_EE(%struct.ap_int.26*, %struct.ap_uint.12* dereferenceable(2)) unnamed_addr #0 comdat align 2 personality i8* bitcast (i32 (...)* @__gxx_personality_v0 to i8*) !dbg !18206 {
  %3 = alloca %struct.ap_int.26*, align 8
  %4 = alloca %struct.ap_uint.12*, align 8
  %5 = alloca i8*
  %6 = alloca i32
  store %struct.ap_int.26* %0, %struct.ap_int.26** %3, align 8
  call void @llvm.dbg.declare(metadata %struct.ap_int.26** %3, metadata !18211, metadata !DIExpression()), !dbg !18213
  store %struct.ap_uint.12* %1, %struct.ap_uint.12** %4, align 8
  call void @llvm.dbg.declare(metadata %struct.ap_uint.12** %4, metadata !18214, metadata !DIExpression()), !dbg !18215
  %7 = load %struct.ap_int.26*, %struct.ap_int.26** %3, align 8
  %8 = bitcast %struct.ap_int.26* %7 to %struct.ap_int_base.23*, !dbg !18216
  call void @_ZN11ap_int_baseILi66ELb1EEC2Ev(%struct.ap_int_base.23* %8), !dbg !18217
  %9 = load %struct.ap_uint.12*, %struct.ap_uint.12** %4, align 8, !dbg !18218
  %10 = bitcast %struct.ap_uint.12* %9 to %struct.ssdm_int_sim.14*, !dbg !18218
  %11 = getelementptr inbounds %struct.ssdm_int_sim.14, %struct.ssdm_int_sim.14* %10, i32 0, i32 0, !dbg !18220
  %12 = bitcast %struct.ap_int.26* %7 to %struct.ap_int_base.23*, !dbg !18221
  %13 = bitcast %struct.ap_int_base.23* %12 to %struct.ssdm_int_sim.24*, !dbg !18221
  %14 = getelementptr inbounds %struct.ssdm_int_sim.24, %struct.ssdm_int_sim.24* %13, i32 0, i32 0, !dbg !18221
  %15 = invoke dereferenceable(16) %class.ap_private.25* @_ZN10ap_privateILi66ELb1ELb0EEaSILi16ELb0EEERS0_RKS_IXT_EXT0_EXleT_Li64EEE(%class.ap_private.25* %14, %class.ap_private.15* dereferenceable(2) %11)
          to label %16 unwind label %17, !dbg !18222

16:                                               ; preds = %2
  ret void, !dbg !18223

17:                                               ; preds = %2
  %18 = landingpad { i8*, i32 }
          cleanup, !dbg !18224
  %19 = extractvalue { i8*, i32 } %18, 0, !dbg !18224
  store i8* %19, i8** %5, align 8, !dbg !18224
  %20 = extractvalue { i8*, i32 } %18, 1, !dbg !18224
  store i32 %20, i32* %6, align 4, !dbg !18224
  %21 = bitcast %struct.ap_int.26* %7 to %struct.ap_int_base.23*, !dbg !18224
  call void @_ZN11ap_int_baseILi66ELb1EED2Ev(%struct.ap_int_base.23* %21) #3, !dbg !18224
  %22 = load i8*, i8** %5, align 8, !dbg !18224
  %23 = load i32, i32* %6, align 4, !dbg !18224
  %24 = insertvalue { i8*, i32 } undef, i8* %22, 0, !dbg !18224
  %25 = insertvalue { i8*, i32 } %24, i32 %23, 1, !dbg !18224
  resume { i8*, i32 } %25, !dbg !18224
}

; Function Attrs: noinline uwtable
define linkonce_odr dso_local void @_ZmlILi64ELb1ELi64ELb1EEN11ap_int_baseIXT_EXT0_EE5RTypeIXT1_EXT2_EE4multERKS1_RKS0_IXT1_EXT2_EE(%struct.ap_int.27* noalias sret, %struct.ap_int_base.31* dereferenceable(8), %struct.ap_int_base.31* dereferenceable(8)) #0 comdat personality i8* bitcast (i32 (...)* @__gxx_personality_v0 to i8*) !dbg !18225 {
  %4 = alloca i8*, align 8
  %5 = alloca %struct.ap_int_base.31*, align 8
  %6 = alloca %struct.ap_int_base.31*, align 8
  %7 = alloca %struct.ap_int_base.28, align 8
  %8 = alloca %struct.ap_int_base.28, align 8
  %9 = alloca i8*
  %10 = alloca i32
  %11 = alloca %struct.ap_int_base.28, align 8
  %12 = alloca %class.ap_private.39, align 8
  %13 = bitcast %struct.ap_int.27* %0 to i8*
  store i8* %13, i8** %4, align 8
  store %struct.ap_int_base.31* %1, %struct.ap_int_base.31** %5, align 8
  call void @llvm.dbg.declare(metadata %struct.ap_int_base.31** %5, metadata !18563, metadata !DIExpression()), !dbg !18564
  store %struct.ap_int_base.31* %2, %struct.ap_int_base.31** %6, align 8
  call void @llvm.dbg.declare(metadata %struct.ap_int_base.31** %6, metadata !18565, metadata !DIExpression()), !dbg !18564
  call void @llvm.dbg.declare(metadata %struct.ap_int_base.28* %7, metadata !18566, metadata !DIExpression()), !dbg !18564
  %14 = load %struct.ap_int_base.31*, %struct.ap_int_base.31** %5, align 8, !dbg !18564
  call void @_ZN11ap_int_baseILi128ELb1EEC2ILi64ELb1EEERKS_IXT_EXT0_EE(%struct.ap_int_base.28* %7, %struct.ap_int_base.31* dereferenceable(8) %14), !dbg !18564
  call void @llvm.dbg.declare(metadata %struct.ap_int_base.28* %8, metadata !18568, metadata !DIExpression()), !dbg !18564
  %15 = load %struct.ap_int_base.31*, %struct.ap_int_base.31** %6, align 8, !dbg !18564
  invoke void @_ZN11ap_int_baseILi128ELb1EEC2ILi64ELb1EEERKS_IXT_EXT0_EE(%struct.ap_int_base.28* %8, %struct.ap_int_base.31* dereferenceable(8) %15)
          to label %16 unwind label %28, !dbg !18564

16:                                               ; preds = %3
  call void @llvm.dbg.declare(metadata %struct.ap_int_base.28* %11, metadata !18569, metadata !DIExpression()), !dbg !18564
  invoke void @_ZN11ap_int_baseILi128ELb1EEC2Ev(%struct.ap_int_base.28* %11)
          to label %17 unwind label %32, !dbg !18564

17:                                               ; preds = %16
  %18 = bitcast %struct.ap_int_base.28* %7 to %struct.ssdm_int_sim.29*, !dbg !18564
  %19 = getelementptr inbounds %struct.ssdm_int_sim.29, %struct.ssdm_int_sim.29* %18, i32 0, i32 0, !dbg !18564
  %20 = bitcast %struct.ap_int_base.28* %8 to %struct.ssdm_int_sim.29*, !dbg !18564
  %21 = getelementptr inbounds %struct.ssdm_int_sim.29, %struct.ssdm_int_sim.29* %20, i32 0, i32 0, !dbg !18564
  invoke void @_ZNK10ap_privateILi128ELb1ELb0EEmlILi128ELb1EEENS0_5RTypeIXT_EXT0_EE4multERKS_IXT_EXT0_EXleT_Li64EEE(%class.ap_private.39* sret %12, %class.ap_private.30* %19, %class.ap_private.30* dereferenceable(16) %21)
          to label %22 unwind label %36, !dbg !18564

22:                                               ; preds = %17
  %23 = bitcast %struct.ap_int_base.28* %11 to %struct.ssdm_int_sim.29*, !dbg !18564
  %24 = getelementptr inbounds %struct.ssdm_int_sim.29, %struct.ssdm_int_sim.29* %23, i32 0, i32 0, !dbg !18564
  %25 = invoke dereferenceable(16) %class.ap_private.30* @_ZN10ap_privateILi128ELb1ELb0EEaSILi256ELb1EEERS0_RKS_IXT_EXT0_EXleT_Li64EEE(%class.ap_private.30* %24, %class.ap_private.39* dereferenceable(32) %12)
          to label %26 unwind label %40, !dbg !18564

26:                                               ; preds = %22
  call void @_ZN10ap_privateILi256ELb1ELb0EED2Ev(%class.ap_private.39* %12) #3, !dbg !18564
  invoke void @_ZN6ap_intILi128EEC2ILi128ELb1EEERK11ap_int_baseIXT_EXT0_EE(%struct.ap_int.27* %0, %struct.ap_int_base.28* dereferenceable(16) %11)
          to label %27 unwind label %36, !dbg !18564

27:                                               ; preds = %26
  call void @_ZN11ap_int_baseILi128ELb1EED2Ev(%struct.ap_int_base.28* %11) #3, !dbg !18564
  call void @_ZN11ap_int_baseILi128ELb1EED2Ev(%struct.ap_int_base.28* %8) #3, !dbg !18564
  call void @_ZN11ap_int_baseILi128ELb1EED2Ev(%struct.ap_int_base.28* %7) #3, !dbg !18564
  ret void, !dbg !18564

28:                                               ; preds = %3
  %29 = landingpad { i8*, i32 }
          cleanup, !dbg !18564
  %30 = extractvalue { i8*, i32 } %29, 0, !dbg !18564
  store i8* %30, i8** %9, align 8, !dbg !18564
  %31 = extractvalue { i8*, i32 } %29, 1, !dbg !18564
  store i32 %31, i32* %10, align 4, !dbg !18564
  br label %46, !dbg !18564

32:                                               ; preds = %16
  %33 = landingpad { i8*, i32 }
          cleanup, !dbg !18564
  %34 = extractvalue { i8*, i32 } %33, 0, !dbg !18564
  store i8* %34, i8** %9, align 8, !dbg !18564
  %35 = extractvalue { i8*, i32 } %33, 1, !dbg !18564
  store i32 %35, i32* %10, align 4, !dbg !18564
  br label %45, !dbg !18564

36:                                               ; preds = %26, %17
  %37 = landingpad { i8*, i32 }
          cleanup, !dbg !18564
  %38 = extractvalue { i8*, i32 } %37, 0, !dbg !18564
  store i8* %38, i8** %9, align 8, !dbg !18564
  %39 = extractvalue { i8*, i32 } %37, 1, !dbg !18564
  store i32 %39, i32* %10, align 4, !dbg !18564
  br label %44, !dbg !18564

40:                                               ; preds = %22
  %41 = landingpad { i8*, i32 }
          cleanup, !dbg !18564
  %42 = extractvalue { i8*, i32 } %41, 0, !dbg !18564
  store i8* %42, i8** %9, align 8, !dbg !18564
  %43 = extractvalue { i8*, i32 } %41, 1, !dbg !18564
  store i32 %43, i32* %10, align 4, !dbg !18564
  call void @_ZN10ap_privateILi256ELb1ELb0EED2Ev(%class.ap_private.39* %12) #3, !dbg !18564
  br label %44, !dbg !18564

44:                                               ; preds = %40, %36
  call void @_ZN11ap_int_baseILi128ELb1EED2Ev(%struct.ap_int_base.28* %11) #3, !dbg !18564
  br label %45, !dbg !18564

45:                                               ; preds = %44, %32
  call void @_ZN11ap_int_baseILi128ELb1EED2Ev(%struct.ap_int_base.28* %8) #3, !dbg !18564
  br label %46, !dbg !18564

46:                                               ; preds = %45, %28
  call void @_ZN11ap_int_baseILi128ELb1EED2Ev(%struct.ap_int_base.28* %7) #3, !dbg !18564
  %47 = load i8*, i8** %9, align 8, !dbg !18564
  %48 = load i32, i32* %10, align 4, !dbg !18564
  %49 = insertvalue { i8*, i32 } undef, i8* %47, 0, !dbg !18564
  %50 = insertvalue { i8*, i32 } %49, i32 %48, 1, !dbg !18564
  resume { i8*, i32 } %50, !dbg !18564
}

; Function Attrs: noinline uwtable
define linkonce_odr dso_local void @_ZN6ap_intILi64EEC2Ei(%struct.ap_int.34*, i32) unnamed_addr #0 comdat align 2 personality i8* bitcast (i32 (...)* @__gxx_personality_v0 to i8*) !dbg !18570 {
  %3 = alloca %struct.ap_int.34*, align 8
  %4 = alloca i32, align 4
  %5 = alloca i8*
  %6 = alloca i32
  store %struct.ap_int.34* %0, %struct.ap_int.34** %3, align 8
  call void @llvm.dbg.declare(metadata %struct.ap_int.34** %3, metadata !18571, metadata !DIExpression()), !dbg !18573
  store i32 %1, i32* %4, align 4
  call void @llvm.dbg.declare(metadata i32* %4, metadata !18574, metadata !DIExpression()), !dbg !18575
  %7 = load %struct.ap_int.34*, %struct.ap_int.34** %3, align 8
  %8 = bitcast %struct.ap_int.34* %7 to %struct.ap_int_base.31*, !dbg !18575
  call void @_ZN11ap_int_baseILi64ELb1EEC2Ev(%struct.ap_int_base.31* %8), !dbg !18575
  %9 = load i32, i32* %4, align 4, !dbg !18576
  %10 = bitcast %struct.ap_int.34* %7 to %struct.ap_int_base.31*, !dbg !18576
  %11 = bitcast %struct.ap_int_base.31* %10 to %struct.ssdm_int_sim.32*, !dbg !18576
  %12 = getelementptr inbounds %struct.ssdm_int_sim.32, %struct.ssdm_int_sim.32* %11, i32 0, i32 0, !dbg !18576
  %13 = call dereferenceable(8) %class.ap_private.33* @_ZN10ap_privateILi64ELb1ELb1EEaSEi(%class.ap_private.33* %12, i32 %9), !dbg !18576
  ret void, !dbg !18575
}

; Function Attrs: noinline uwtable
define linkonce_odr dso_local void @_ZN6ap_intILi66EEC2ILi128EEERKS_IXT_EE(%struct.ap_int.26*, %struct.ap_int.27* dereferenceable(16)) unnamed_addr #0 comdat align 2 personality i8* bitcast (i32 (...)* @__gxx_personality_v0 to i8*) !dbg !18578 {
  %3 = alloca %struct.ap_int.26*, align 8
  %4 = alloca %struct.ap_int.27*, align 8
  %5 = alloca i8*
  %6 = alloca i32
  store %struct.ap_int.26* %0, %struct.ap_int.26** %3, align 8
  call void @llvm.dbg.declare(metadata %struct.ap_int.26** %3, metadata !18583, metadata !DIExpression()), !dbg !18584
  store %struct.ap_int.27* %1, %struct.ap_int.27** %4, align 8
  call void @llvm.dbg.declare(metadata %struct.ap_int.27** %4, metadata !18585, metadata !DIExpression()), !dbg !18586
  %7 = load %struct.ap_int.26*, %struct.ap_int.26** %3, align 8
  %8 = bitcast %struct.ap_int.26* %7 to %struct.ap_int_base.23*, !dbg !18587
  call void @_ZN11ap_int_baseILi66ELb1EEC2Ev(%struct.ap_int_base.23* %8), !dbg !18588
  %9 = load %struct.ap_int.27*, %struct.ap_int.27** %4, align 8, !dbg !18589
  %10 = bitcast %struct.ap_int.27* %9 to %struct.ssdm_int_sim.29*, !dbg !18589
  %11 = getelementptr inbounds %struct.ssdm_int_sim.29, %struct.ssdm_int_sim.29* %10, i32 0, i32 0, !dbg !18591
  %12 = bitcast %struct.ap_int.26* %7 to %struct.ap_int_base.23*, !dbg !18592
  %13 = bitcast %struct.ap_int_base.23* %12 to %struct.ssdm_int_sim.24*, !dbg !18592
  %14 = getelementptr inbounds %struct.ssdm_int_sim.24, %struct.ssdm_int_sim.24* %13, i32 0, i32 0, !dbg !18592
  %15 = invoke dereferenceable(16) %class.ap_private.25* @_ZN10ap_privateILi66ELb1ELb0EEaSILi128ELb1EEERS0_RKS_IXT_EXT0_EXleT_Li64EEE(%class.ap_private.25* %14, %class.ap_private.30* dereferenceable(16) %11)
          to label %16 unwind label %17, !dbg !18593

16:                                               ; preds = %2
  ret void, !dbg !18594

17:                                               ; preds = %2
  %18 = landingpad { i8*, i32 }
          cleanup, !dbg !18595
  %19 = extractvalue { i8*, i32 } %18, 0, !dbg !18595
  store i8* %19, i8** %5, align 8, !dbg !18595
  %20 = extractvalue { i8*, i32 } %18, 1, !dbg !18595
  store i32 %20, i32* %6, align 4, !dbg !18595
  %21 = bitcast %struct.ap_int.26* %7 to %struct.ap_int_base.23*, !dbg !18595
  call void @_ZN11ap_int_baseILi66ELb1EED2Ev(%struct.ap_int_base.23* %21) #3, !dbg !18595
  %22 = load i8*, i8** %5, align 8, !dbg !18595
  %23 = load i32, i32* %6, align 4, !dbg !18595
  %24 = insertvalue { i8*, i32 } undef, i8* %22, 0, !dbg !18595
  %25 = insertvalue { i8*, i32 } %24, i32 %23, 1, !dbg !18595
  resume { i8*, i32 } %25, !dbg !18595
}

; Function Attrs: noinline uwtable
define linkonce_odr dso_local void @_ZN6ap_intILi67EEC2Ei(%struct.ap_int.22*, i32) unnamed_addr #0 comdat align 2 personality i8* bitcast (i32 (...)* @__gxx_personality_v0 to i8*) !dbg !18596 {
  %3 = alloca %struct.ap_int.22*, align 8
  %4 = alloca i32, align 4
  %5 = alloca i8*
  %6 = alloca i32
  store %struct.ap_int.22* %0, %struct.ap_int.22** %3, align 8
  call void @llvm.dbg.declare(metadata %struct.ap_int.22** %3, metadata !18597, metadata !DIExpression()), !dbg !18599
  store i32 %1, i32* %4, align 4
  call void @llvm.dbg.declare(metadata i32* %4, metadata !18600, metadata !DIExpression()), !dbg !18601
  %7 = load %struct.ap_int.22*, %struct.ap_int.22** %3, align 8
  %8 = bitcast %struct.ap_int.22* %7 to %struct.ap_int_base.19*, !dbg !18601
  call void @_ZN11ap_int_baseILi67ELb1EEC2Ev(%struct.ap_int_base.19* %8), !dbg !18601
  %9 = load i32, i32* %4, align 4, !dbg !18602
  %10 = bitcast %struct.ap_int.22* %7 to %struct.ap_int_base.19*, !dbg !18602
  %11 = bitcast %struct.ap_int_base.19* %10 to %struct.ssdm_int_sim.20*, !dbg !18602
  %12 = getelementptr inbounds %struct.ssdm_int_sim.20, %struct.ssdm_int_sim.20* %11, i32 0, i32 0, !dbg !18602
  %13 = invoke dereferenceable(16) %class.ap_private.21* @_ZN10ap_privateILi67ELb1ELb0EEaSEi(%class.ap_private.21* %12, i32 %9)
          to label %14 unwind label %15, !dbg !18602

14:                                               ; preds = %2
  ret void, !dbg !18601

15:                                               ; preds = %2
  %16 = landingpad { i8*, i32 }
          cleanup, !dbg !18602
  %17 = extractvalue { i8*, i32 } %16, 0, !dbg !18602
  store i8* %17, i8** %5, align 8, !dbg !18602
  %18 = extractvalue { i8*, i32 } %16, 1, !dbg !18602
  store i32 %18, i32* %6, align 4, !dbg !18602
  %19 = bitcast %struct.ap_int.22* %7 to %struct.ap_int_base.19*, !dbg !18602
  call void @_ZN11ap_int_baseILi67ELb1EED2Ev(%struct.ap_int_base.19* %19) #3, !dbg !18602
  %20 = load i8*, i8** %5, align 8, !dbg !18602
  %21 = load i32, i32* %6, align 4, !dbg !18602
  %22 = insertvalue { i8*, i32 } undef, i8* %20, 0, !dbg !18602
  %23 = insertvalue { i8*, i32 } %22, i32 %21, 1, !dbg !18602
  resume { i8*, i32 } %23, !dbg !18602
}

; Function Attrs: noinline uwtable
define linkonce_odr dso_local i64 @_ZNK11ap_int_baseILi68ELb1EEcvxEv(%struct.ap_int_base.16*) #0 comdat align 2 !dbg !18604 {
  %2 = alloca %struct.ap_int_base.16*, align 8
  store %struct.ap_int_base.16* %0, %struct.ap_int_base.16** %2, align 8
  call void @llvm.dbg.declare(metadata %struct.ap_int_base.16** %2, metadata !18605, metadata !DIExpression()), !dbg !18607
  %3 = load %struct.ap_int_base.16*, %struct.ap_int_base.16** %2, align 8
  %4 = bitcast %struct.ap_int_base.16* %3 to %struct.ssdm_int_sim.17*, !dbg !18608
  %5 = getelementptr inbounds %struct.ssdm_int_sim.17, %struct.ssdm_int_sim.17* %4, i32 0, i32 0, !dbg !18608
  %6 = call i64 @_ZNK10ap_privateILi68ELb1ELb0EEcvlEv(%class.ap_private.18* %5), !dbg !18609
  ret i64 %6, !dbg !18610
}

; Function Attrs: noinline nounwind uwtable
define linkonce_odr dso_local void @_ZN6ap_intILi68EED2Ev(%struct.ap_int*) unnamed_addr #5 comdat align 2 !dbg !18611 {
  %2 = alloca %struct.ap_int*, align 8
  store %struct.ap_int* %0, %struct.ap_int** %2, align 8
  call void @llvm.dbg.declare(metadata %struct.ap_int** %2, metadata !18613, metadata !DIExpression()), !dbg !18615
  %3 = load %struct.ap_int*, %struct.ap_int** %2, align 8
  %4 = bitcast %struct.ap_int* %3 to %struct.ap_int_base.16*, !dbg !18616
  call void @_ZN11ap_int_baseILi68ELb1EED2Ev(%struct.ap_int_base.16* %4) #3, !dbg !18616
  ret void, !dbg !18618
}

; Function Attrs: noinline nounwind uwtable
define linkonce_odr dso_local void @_ZN6ap_intILi67EED2Ev(%struct.ap_int.22*) unnamed_addr #5 comdat align 2 !dbg !18619 {
  %2 = alloca %struct.ap_int.22*, align 8
  store %struct.ap_int.22* %0, %struct.ap_int.22** %2, align 8
  call void @llvm.dbg.declare(metadata %struct.ap_int.22** %2, metadata !18621, metadata !DIExpression()), !dbg !18622
  %3 = load %struct.ap_int.22*, %struct.ap_int.22** %2, align 8
  %4 = bitcast %struct.ap_int.22* %3 to %struct.ap_int_base.19*, !dbg !18623
  call void @_ZN11ap_int_baseILi67ELb1EED2Ev(%struct.ap_int_base.19* %4) #3, !dbg !18623
  ret void, !dbg !18625
}

; Function Attrs: noinline nounwind uwtable
define linkonce_odr dso_local void @_ZN6ap_intILi66EED2Ev(%struct.ap_int.26*) unnamed_addr #5 comdat align 2 !dbg !18626 {
  %2 = alloca %struct.ap_int.26*, align 8
  store %struct.ap_int.26* %0, %struct.ap_int.26** %2, align 8
  call void @llvm.dbg.declare(metadata %struct.ap_int.26** %2, metadata !18628, metadata !DIExpression()), !dbg !18629
  %3 = load %struct.ap_int.26*, %struct.ap_int.26** %2, align 8
  %4 = bitcast %struct.ap_int.26* %3 to %struct.ap_int_base.23*, !dbg !18630
  call void @_ZN11ap_int_baseILi66ELb1EED2Ev(%struct.ap_int_base.23* %4) #3, !dbg !18630
  ret void, !dbg !18632
}

; Function Attrs: noinline nounwind uwtable
define linkonce_odr dso_local void @_ZN6ap_intILi128EED2Ev(%struct.ap_int.27*) unnamed_addr #5 comdat align 2 !dbg !18633 {
  %2 = alloca %struct.ap_int.27*, align 8
  store %struct.ap_int.27* %0, %struct.ap_int.27** %2, align 8
  call void @llvm.dbg.declare(metadata %struct.ap_int.27** %2, metadata !18635, metadata !DIExpression()), !dbg !18637
  %3 = load %struct.ap_int.27*, %struct.ap_int.27** %2, align 8
  %4 = bitcast %struct.ap_int.27* %3 to %struct.ap_int_base.28*, !dbg !18638
  call void @_ZN11ap_int_baseILi128ELb1EED2Ev(%struct.ap_int_base.28* %4) #3, !dbg !18638
  ret void, !dbg !18640
}

; Function Attrs: noinline nounwind uwtable
define linkonce_odr dso_local void @_ZN6ap_intILi64EED2Ev(%struct.ap_int.34*) unnamed_addr #5 comdat align 2 !dbg !18641 {
  %2 = alloca %struct.ap_int.34*, align 8
  store %struct.ap_int.34* %0, %struct.ap_int.34** %2, align 8
  call void @llvm.dbg.declare(metadata %struct.ap_int.34** %2, metadata !18643, metadata !DIExpression()), !dbg !18644
  %3 = load %struct.ap_int.34*, %struct.ap_int.34** %2, align 8
  %4 = bitcast %struct.ap_int.34* %3 to %struct.ap_int_base.31*, !dbg !18645
  call void @_ZN11ap_int_baseILi64ELb1EED2Ev(%struct.ap_int_base.31* %4) #3, !dbg !18645
  ret void, !dbg !18647
}

; Function Attrs: noinline uwtable
define linkonce_odr dso_local void @_ZN6ap_intILi66EEC2Ej(%struct.ap_int.26*, i32) unnamed_addr #0 comdat align 2 personality i8* bitcast (i32 (...)* @__gxx_personality_v0 to i8*) !dbg !18648 {
  %3 = alloca %struct.ap_int.26*, align 8
  %4 = alloca i32, align 4
  %5 = alloca i8*
  %6 = alloca i32
  store %struct.ap_int.26* %0, %struct.ap_int.26** %3, align 8
  call void @llvm.dbg.declare(metadata %struct.ap_int.26** %3, metadata !18649, metadata !DIExpression()), !dbg !18650
  store i32 %1, i32* %4, align 4
  call void @llvm.dbg.declare(metadata i32* %4, metadata !18651, metadata !DIExpression()), !dbg !18652
  %7 = load %struct.ap_int.26*, %struct.ap_int.26** %3, align 8
  %8 = bitcast %struct.ap_int.26* %7 to %struct.ap_int_base.23*, !dbg !18652
  call void @_ZN11ap_int_baseILi66ELb1EEC2Ev(%struct.ap_int_base.23* %8), !dbg !18652
  %9 = load i32, i32* %4, align 4, !dbg !18653
  %10 = bitcast %struct.ap_int.26* %7 to %struct.ap_int_base.23*, !dbg !18653
  %11 = bitcast %struct.ap_int_base.23* %10 to %struct.ssdm_int_sim.24*, !dbg !18653
  %12 = getelementptr inbounds %struct.ssdm_int_sim.24, %struct.ssdm_int_sim.24* %11, i32 0, i32 0, !dbg !18653
  %13 = invoke dereferenceable(16) %class.ap_private.25* @_ZN10ap_privateILi66ELb1ELb0EEaSEj(%class.ap_private.25* %12, i32 %9)
          to label %14 unwind label %15, !dbg !18653

14:                                               ; preds = %2
  ret void, !dbg !18652

15:                                               ; preds = %2
  %16 = landingpad { i8*, i32 }
          cleanup, !dbg !18653
  %17 = extractvalue { i8*, i32 } %16, 0, !dbg !18653
  store i8* %17, i8** %5, align 8, !dbg !18653
  %18 = extractvalue { i8*, i32 } %16, 1, !dbg !18653
  store i32 %18, i32* %6, align 4, !dbg !18653
  %19 = bitcast %struct.ap_int.26* %7 to %struct.ap_int_base.23*, !dbg !18653
  call void @_ZN11ap_int_baseILi66ELb1EED2Ev(%struct.ap_int_base.23* %19) #3, !dbg !18653
  %20 = load i8*, i8** %5, align 8, !dbg !18653
  %21 = load i32, i32* %6, align 4, !dbg !18653
  %22 = insertvalue { i8*, i32 } undef, i8* %20, 0, !dbg !18653
  %23 = insertvalue { i8*, i32 } %22, i32 %21, 1, !dbg !18653
  resume { i8*, i32 } %23, !dbg !18653
}

; Function Attrs: noinline norecurse uwtable
define dso_local i32 @main() #6 personality i8* bitcast (i32 (...)* @__gxx_personality_v0 to i8*) !dbg !18655 {
  call void @klee.ctor_stub()
  %1 = alloca i32, align 4
  %2 = alloca i32, align 4
  %3 = alloca i32, align 4
  %4 = alloca [32768 x [1 x [16 x %struct.ap_uint]]], align 16
  %5 = alloca i8*
  %6 = alloca i32
  %7 = alloca [134217728 x %struct.ap_uint], align 16
  %8 = alloca %struct.ap_int.35, align 4
  %9 = alloca i32, align 4
  %10 = alloca %struct.ap_int.35, align 4
  %11 = alloca %struct.ap_int.35, align 4
  %12 = alloca %struct.ap_uint, align 1
  %13 = alloca %struct.ap_int.35, align 4
  %14 = alloca %struct.ap_uint, align 1
  store i32 0, i32* %1, align 4
  call void @llvm.dbg.declare(metadata i32* %2, metadata !18656, metadata !DIExpression()), !dbg !18657
  call void @llvm.dbg.declare(metadata i32* %3, metadata !18658, metadata !DIExpression()), !dbg !18659
  call void @llvm.dbg.declare(metadata [32768 x [1 x [16 x %struct.ap_uint]]]* %4, metadata !18660, metadata !DIExpression()), !dbg !18664
  %15 = getelementptr inbounds [32768 x [1 x [16 x %struct.ap_uint]]], [32768 x [1 x [16 x %struct.ap_uint]]]* %4, i32 0, i32 0, i32 0, i32 0, !dbg !18664
  %16 = getelementptr inbounds %struct.ap_uint, %struct.ap_uint* %15, i64 524288, !dbg !18664
  br label %17, !dbg !18664

17:                                               ; preds = %19, %0
  %18 = phi %struct.ap_uint* [ %15, %0 ], [ %20, %19 ], !dbg !18664
  invoke void @_ZN7ap_uintILi8EEC2Ev(%struct.ap_uint* %18)
          to label %19 unwind label %36, !dbg !18664

19:                                               ; preds = %17
  %20 = getelementptr inbounds %struct.ap_uint, %struct.ap_uint* %18, i64 1, !dbg !18664
  %21 = icmp eq %struct.ap_uint* %20, %16, !dbg !18664
  br i1 %21, label %22, label %17, !dbg !18664

22:                                               ; preds = %19
  call void @llvm.dbg.declare(metadata [134217728 x %struct.ap_uint]* %7, metadata !18665, metadata !DIExpression()), !dbg !18669
  %23 = getelementptr inbounds [134217728 x %struct.ap_uint], [134217728 x %struct.ap_uint]* %7, i32 0, i32 0, !dbg !18669
  %24 = getelementptr inbounds %struct.ap_uint, %struct.ap_uint* %23, i64 134217728, !dbg !18669
  br label %25, !dbg !18669

25:                                               ; preds = %27, %22
  %26 = phi %struct.ap_uint* [ %23, %22 ], [ %28, %27 ], !dbg !18669
  invoke void @_ZN7ap_uintILi8EEC2Ev(%struct.ap_uint* %26)
          to label %27 unwind label %45, !dbg !18669

27:                                               ; preds = %25
  %28 = getelementptr inbounds %struct.ap_uint, %struct.ap_uint* %26, i64 1, !dbg !18669
  %29 = icmp eq %struct.ap_uint* %28, %24, !dbg !18669
  br i1 %29, label %30, label %25, !dbg !18669

30:                                               ; preds = %27
  store i32 7, i32* %3, align 4, !dbg !18670
  store i32 33566720, i32* %2, align 4, !dbg !18671
  call void @llvm.dbg.declare(metadata %struct.ap_int.35* %8, metadata !18672, metadata !DIExpression()), !dbg !18674
  invoke void @_ZN6ap_intILi32EEC2Ei(%struct.ap_int.35* %8, i32 0)
          to label %31 unwind label %54, !dbg !18675

31:                                               ; preds = %67, %30
  %32 = bitcast %struct.ap_int.35* %8 to %struct.ap_int_base.36*, !dbg !18676
  %33 = invoke zeroext i1 @_ZltILi32ELb1EEbRK11ap_int_baseIXT_EXT0_EEi(%struct.ap_int_base.36* dereferenceable(4) %32, i32 32768)
          to label %34 unwind label %58, !dbg !18678

34:                                               ; preds = %31
  br i1 %33, label %62, label %35, !dbg !18679

35:                                               ; preds = %34
  store i32 2, i32* %9, align 4
  call void @_ZN6ap_intILi32EED2Ev(%struct.ap_int.35* %8) #3, !dbg !18680
  call void @llvm.dbg.declare(metadata %struct.ap_int.35* %13, metadata !18681, metadata !DIExpression()), !dbg !18683
  invoke void @_ZN6ap_intILi32EEC2Ei(%struct.ap_int.35* %13, i32 0)
          to label %111 unwind label %54, !dbg !18684

36:                                               ; preds = %17
  %37 = landingpad { i8*, i32 }
          cleanup, !dbg !18685
  %38 = extractvalue { i8*, i32 } %37, 0, !dbg !18685
  store i8* %38, i8** %5, align 8, !dbg !18685
  %39 = extractvalue { i8*, i32 } %37, 1, !dbg !18685
  store i32 %39, i32* %6, align 4, !dbg !18685
  %40 = icmp eq %struct.ap_uint* %15, %18, !dbg !18664
  br i1 %40, label %169, label %41, !dbg !18664

41:                                               ; preds = %41, %36
  %42 = phi %struct.ap_uint* [ %18, %36 ], [ %43, %41 ], !dbg !18664
  %43 = getelementptr inbounds %struct.ap_uint, %struct.ap_uint* %42, i64 -1, !dbg !18664
  call void @_ZN7ap_uintILi8EED2Ev(%struct.ap_uint* %43) #3, !dbg !18664
  %44 = icmp eq %struct.ap_uint* %43, %15, !dbg !18664
  br i1 %44, label %169, label %41, !dbg !18664

45:                                               ; preds = %25
  %46 = landingpad { i8*, i32 }
          cleanup, !dbg !18685
  %47 = extractvalue { i8*, i32 } %46, 0, !dbg !18685
  store i8* %47, i8** %5, align 8, !dbg !18685
  %48 = extractvalue { i8*, i32 } %46, 1, !dbg !18685
  store i32 %48, i32* %6, align 4, !dbg !18685
  %49 = icmp eq %struct.ap_uint* %23, %26, !dbg !18669
  br i1 %49, label %162, label %50, !dbg !18669

50:                                               ; preds = %50, %45
  %51 = phi %struct.ap_uint* [ %26, %45 ], [ %52, %50 ], !dbg !18669
  %52 = getelementptr inbounds %struct.ap_uint, %struct.ap_uint* %51, i64 -1, !dbg !18669
  call void @_ZN7ap_uintILi8EED2Ev(%struct.ap_uint* %52) #3, !dbg !18669
  %53 = icmp eq %struct.ap_uint* %52, %23, !dbg !18669
  br i1 %53, label %162, label %50, !dbg !18669

54:                                               ; preds = %115, %35, %30
  %55 = landingpad { i8*, i32 }
          cleanup, !dbg !18686
  %56 = extractvalue { i8*, i32 } %55, 0, !dbg !18686
  store i8* %56, i8** %5, align 8, !dbg !18686
  %57 = extractvalue { i8*, i32 } %55, 1, !dbg !18686
  store i32 %57, i32* %6, align 4, !dbg !18686
  br label %149, !dbg !18686

58:                                               ; preds = %67, %62, %31
  %59 = landingpad { i8*, i32 }
          cleanup, !dbg !18687
  %60 = extractvalue { i8*, i32 } %59, 0, !dbg !18687
  store i8* %60, i8** %5, align 8, !dbg !18687
  %61 = extractvalue { i8*, i32 } %59, 1, !dbg !18687
  store i32 %61, i32* %6, align 4, !dbg !18687
  br label %110, !dbg !18687

62:                                               ; preds = %34
  call void @llvm.dbg.declare(metadata %struct.ap_int.35* %10, metadata !18688, metadata !DIExpression()), !dbg !18691
  invoke void @_ZN6ap_intILi32EEC2Ei(%struct.ap_int.35* %10, i32 0)
          to label %63 unwind label %58, !dbg !18692

63:                                               ; preds = %79, %62
  %64 = bitcast %struct.ap_int.35* %10 to %struct.ap_int_base.36*, !dbg !18693
  %65 = invoke zeroext i1 @_ZltILi32ELb1EEbRK11ap_int_baseIXT_EXT0_EEi(%struct.ap_int_base.36* dereferenceable(4) %64, i32 1)
          to label %66 unwind label %70, !dbg !18695

66:                                               ; preds = %63
  br i1 %65, label %74, label %67, !dbg !18696

67:                                               ; preds = %66
  store i32 5, i32* %9, align 4
  call void @_ZN6ap_intILi32EED2Ev(%struct.ap_int.35* %10) #3, !dbg !18697
  %68 = bitcast %struct.ap_int.35* %8 to %struct.ap_int_base.36*, !dbg !18698
  %69 = invoke dereferenceable(4) %struct.ap_int_base.36* @_ZN11ap_int_baseILi32ELb1EEppEv(%struct.ap_int_base.36* %68)
          to label %31 unwind label %58, !dbg !18699, !llvm.loop !18700

70:                                               ; preds = %79, %74, %63
  %71 = landingpad { i8*, i32 }
          cleanup, !dbg !18702
  %72 = extractvalue { i8*, i32 } %71, 0, !dbg !18702
  store i8* %72, i8** %5, align 8, !dbg !18702
  %73 = extractvalue { i8*, i32 } %71, 1, !dbg !18702
  store i32 %73, i32* %6, align 4, !dbg !18702
  br label %109, !dbg !18702

74:                                               ; preds = %66
  call void @llvm.dbg.declare(metadata %struct.ap_int.35* %11, metadata !18703, metadata !DIExpression()), !dbg !18706
  invoke void @_ZN6ap_intILi32EEC2Ei(%struct.ap_int.35* %11, i32 0)
          to label %75 unwind label %70, !dbg !18707

75:                                               ; preds = %101, %74
  %76 = bitcast %struct.ap_int.35* %11 to %struct.ap_int_base.36*, !dbg !18708
  %77 = invoke zeroext i1 @_ZltILi32ELb1EEbRK11ap_int_baseIXT_EXT0_EEi(%struct.ap_int_base.36* dereferenceable(4) %76, i32 16)
          to label %78 unwind label %82, !dbg !18710

78:                                               ; preds = %75
  br i1 %77, label %86, label %79, !dbg !18711

79:                                               ; preds = %78
  store i32 8, i32* %9, align 4
  call void @_ZN6ap_intILi32EED2Ev(%struct.ap_int.35* %11) #3, !dbg !18712
  %80 = bitcast %struct.ap_int.35* %10 to %struct.ap_int_base.36*, !dbg !18713
  %81 = invoke dereferenceable(4) %struct.ap_int_base.36* @_ZN11ap_int_baseILi32ELb1EEppEv(%struct.ap_int_base.36* %80)
          to label %63 unwind label %70, !dbg !18714, !llvm.loop !18715

82:                                               ; preds = %101, %86, %75
  %83 = landingpad { i8*, i32 }
          cleanup, !dbg !18717
  %84 = extractvalue { i8*, i32 } %83, 0, !dbg !18717
  store i8* %84, i8** %5, align 8, !dbg !18717
  %85 = extractvalue { i8*, i32 } %83, 1, !dbg !18717
  store i32 %85, i32* %6, align 4, !dbg !18717
  br label %108, !dbg !18717

86:                                               ; preds = %78
  invoke void @_ZN7ap_uintILi8EEC2Ei(%struct.ap_uint* %12, i32 1)
          to label %87 unwind label %82, !dbg !18718

87:                                               ; preds = %86
  %88 = bitcast %struct.ap_int.35* %8 to %struct.ap_int_base.36*, !dbg !18720
  %89 = invoke i64 @_ZNK11ap_int_baseILi32ELb1EEcvxEv(%struct.ap_int_base.36* %88)
          to label %90 unwind label %104, !dbg !18720

90:                                               ; preds = %87
  %91 = getelementptr inbounds [32768 x [1 x [16 x %struct.ap_uint]]], [32768 x [1 x [16 x %struct.ap_uint]]]* %4, i64 0, i64 %89, !dbg !18721
  %92 = bitcast %struct.ap_int.35* %10 to %struct.ap_int_base.36*, !dbg !18722
  %93 = invoke i64 @_ZNK11ap_int_baseILi32ELb1EEcvxEv(%struct.ap_int_base.36* %92)
          to label %94 unwind label %104, !dbg !18722

94:                                               ; preds = %90
  %95 = getelementptr inbounds [1 x [16 x %struct.ap_uint]], [1 x [16 x %struct.ap_uint]]* %91, i64 0, i64 %93, !dbg !18721
  %96 = bitcast %struct.ap_int.35* %11 to %struct.ap_int_base.36*, !dbg !18723
  %97 = invoke i64 @_ZNK11ap_int_baseILi32ELb1EEcvxEv(%struct.ap_int_base.36* %96)
          to label %98 unwind label %104, !dbg !18723

98:                                               ; preds = %94
  %99 = getelementptr inbounds [16 x %struct.ap_uint], [16 x %struct.ap_uint]* %95, i64 0, i64 %97, !dbg !18721
  %100 = invoke dereferenceable(1) %struct.ap_uint* @_ZN7ap_uintILi8EEaSERKS0_(%struct.ap_uint* %99, %struct.ap_uint* dereferenceable(1) %12)
          to label %101 unwind label %104, !dbg !18724

101:                                              ; preds = %98
  call void @_ZN7ap_uintILi8EED2Ev(%struct.ap_uint* %12) #3, !dbg !18721
  %102 = bitcast %struct.ap_int.35* %11 to %struct.ap_int_base.36*, !dbg !18725
  %103 = invoke dereferenceable(4) %struct.ap_int_base.36* @_ZN11ap_int_baseILi32ELb1EEppEv(%struct.ap_int_base.36* %102)
          to label %75 unwind label %82, !dbg !18726, !llvm.loop !18727

104:                                              ; preds = %98, %94, %90, %87
  %105 = landingpad { i8*, i32 }
          cleanup, !dbg !18729
  %106 = extractvalue { i8*, i32 } %105, 0, !dbg !18729
  store i8* %106, i8** %5, align 8, !dbg !18729
  %107 = extractvalue { i8*, i32 } %105, 1, !dbg !18729
  store i32 %107, i32* %6, align 4, !dbg !18729
  call void @_ZN7ap_uintILi8EED2Ev(%struct.ap_uint* %12) #3, !dbg !18721
  br label %108, !dbg !18721

108:                                              ; preds = %104, %82
  call void @_ZN6ap_intILi32EED2Ev(%struct.ap_int.35* %11) #3, !dbg !18712
  br label %109, !dbg !18712

109:                                              ; preds = %108, %70
  call void @_ZN6ap_intILi32EED2Ev(%struct.ap_int.35* %10) #3, !dbg !18697
  br label %110, !dbg !18697

110:                                              ; preds = %109, %58
  call void @_ZN6ap_intILi32EED2Ev(%struct.ap_int.35* %8) #3, !dbg !18680
  br label %149, !dbg !18680

111:                                              ; preds = %131, %35
  %112 = bitcast %struct.ap_int.35* %13 to %struct.ap_int_base.36*, !dbg !18730
  %113 = invoke zeroext i1 @_ZltILi32ELb1EEbRK11ap_int_baseIXT_EXT0_EEi(%struct.ap_int_base.36* dereferenceable(4) %112, i32 134217728)
          to label %114 unwind label %120, !dbg !18732

114:                                              ; preds = %111
  br i1 %113, label %124, label %115, !dbg !18733

115:                                              ; preds = %114
  store i32 11, i32* %9, align 4
  call void @_ZN6ap_intILi32EED2Ev(%struct.ap_int.35* %13) #3, !dbg !18734
  %116 = load i32, i32* %2, align 4, !dbg !18735
  %117 = load i32, i32* %3, align 4, !dbg !18736
  %118 = getelementptr inbounds [32768 x [1 x [16 x %struct.ap_uint]]], [32768 x [1 x [16 x %struct.ap_uint]]]* %4, i64 0, i64 0, !dbg !18737
  %119 = getelementptr inbounds [134217728 x %struct.ap_uint], [134217728 x %struct.ap_uint]* %7, i64 0, i64 0, !dbg !18738
  invoke void @_Z16default_functionjjPA1_A16_7ap_uintILi8EEPS0_(i32 %116, i32 %117, [1 x [16 x %struct.ap_uint]]* %118, %struct.ap_uint* %119)
          to label %139 unwind label %54, !dbg !18739

120:                                              ; preds = %131, %124, %111
  %121 = landingpad { i8*, i32 }
          cleanup, !dbg !18740
  %122 = extractvalue { i8*, i32 } %121, 0, !dbg !18740
  store i8* %122, i8** %5, align 8, !dbg !18740
  %123 = extractvalue { i8*, i32 } %121, 1, !dbg !18740
  store i32 %123, i32* %6, align 4, !dbg !18740
  br label %138, !dbg !18740

124:                                              ; preds = %114
  invoke void @_ZN7ap_uintILi8EEC2Ei(%struct.ap_uint* %14, i32 1)
          to label %125 unwind label %120, !dbg !18741

125:                                              ; preds = %124
  %126 = bitcast %struct.ap_int.35* %13 to %struct.ap_int_base.36*, !dbg !18743
  %127 = invoke i64 @_ZNK11ap_int_baseILi32ELb1EEcvxEv(%struct.ap_int_base.36* %126)
          to label %128 unwind label %134, !dbg !18743

128:                                              ; preds = %125
  %129 = getelementptr inbounds [134217728 x %struct.ap_uint], [134217728 x %struct.ap_uint]* %7, i64 0, i64 %127, !dbg !18744
  %130 = invoke dereferenceable(1) %struct.ap_uint* @_ZN7ap_uintILi8EEaSERKS0_(%struct.ap_uint* %129, %struct.ap_uint* dereferenceable(1) %14)
          to label %131 unwind label %134, !dbg !18745

131:                                              ; preds = %128
  call void @_ZN7ap_uintILi8EED2Ev(%struct.ap_uint* %14) #3, !dbg !18744
  %132 = bitcast %struct.ap_int.35* %13 to %struct.ap_int_base.36*, !dbg !18746
  %133 = invoke dereferenceable(4) %struct.ap_int_base.36* @_ZN11ap_int_baseILi32ELb1EEppEv(%struct.ap_int_base.36* %132)
          to label %111 unwind label %120, !dbg !18747, !llvm.loop !18748

134:                                              ; preds = %128, %125
  %135 = landingpad { i8*, i32 }
          cleanup, !dbg !18750
  %136 = extractvalue { i8*, i32 } %135, 0, !dbg !18750
  store i8* %136, i8** %5, align 8, !dbg !18750
  %137 = extractvalue { i8*, i32 } %135, 1, !dbg !18750
  store i32 %137, i32* %6, align 4, !dbg !18750
  call void @_ZN7ap_uintILi8EED2Ev(%struct.ap_uint* %14) #3, !dbg !18744
  br label %138, !dbg !18744

138:                                              ; preds = %134, %120
  call void @_ZN6ap_intILi32EED2Ev(%struct.ap_int.35* %13) #3, !dbg !18734
  br label %149, !dbg !18734

139:                                              ; preds = %115
  store i32 0, i32* %1, align 4, !dbg !18751
  store i32 1, i32* %9, align 4
  %140 = getelementptr inbounds [134217728 x %struct.ap_uint], [134217728 x %struct.ap_uint]* %7, i32 0, i32 0, !dbg !18685
  %141 = getelementptr inbounds %struct.ap_uint, %struct.ap_uint* %140, i64 134217728, !dbg !18685
  br label %142, !dbg !18685

142:                                              ; preds = %142, %139
  %143 = phi %struct.ap_uint* [ %141, %139 ], [ %144, %142 ], !dbg !18685
  %144 = getelementptr inbounds %struct.ap_uint, %struct.ap_uint* %143, i64 -1, !dbg !18685
  call void @_ZN7ap_uintILi8EED2Ev(%struct.ap_uint* %144) #3, !dbg !18685
  %145 = icmp eq %struct.ap_uint* %144, %140, !dbg !18685
  br i1 %145, label %146, label %142, !dbg !18685

146:                                              ; preds = %142
  %147 = getelementptr inbounds [32768 x [1 x [16 x %struct.ap_uint]]], [32768 x [1 x [16 x %struct.ap_uint]]]* %4, i32 0, i32 0, i32 0, i32 0, !dbg !18685
  %148 = getelementptr inbounds %struct.ap_uint, %struct.ap_uint* %147, i64 524288, !dbg !18685
  br label %156, !dbg !18685

149:                                              ; preds = %138, %110, %54
  %150 = getelementptr inbounds [134217728 x %struct.ap_uint], [134217728 x %struct.ap_uint]* %7, i32 0, i32 0, !dbg !18685
  %151 = getelementptr inbounds %struct.ap_uint, %struct.ap_uint* %150, i64 134217728, !dbg !18685
  br label %152, !dbg !18685

152:                                              ; preds = %152, %149
  %153 = phi %struct.ap_uint* [ %151, %149 ], [ %154, %152 ], !dbg !18685
  %154 = getelementptr inbounds %struct.ap_uint, %struct.ap_uint* %153, i64 -1, !dbg !18685
  call void @_ZN7ap_uintILi8EED2Ev(%struct.ap_uint* %154) #3, !dbg !18685
  %155 = icmp eq %struct.ap_uint* %154, %150, !dbg !18685
  br i1 %155, label %162, label %152, !dbg !18685

156:                                              ; preds = %156, %146
  %157 = phi %struct.ap_uint* [ %148, %146 ], [ %158, %156 ], !dbg !18685
  %158 = getelementptr inbounds %struct.ap_uint, %struct.ap_uint* %157, i64 -1, !dbg !18685
  call void @_ZN7ap_uintILi8EED2Ev(%struct.ap_uint* %158) #3, !dbg !18685
  %159 = icmp eq %struct.ap_uint* %158, %147, !dbg !18685
  br i1 %159, label %160, label %156, !dbg !18685

160:                                              ; preds = %156
  %161 = load i32, i32* %1, align 4, !dbg !18685
  ret i32 %161, !dbg !18685

162:                                              ; preds = %152, %45, %50
  %163 = getelementptr inbounds [32768 x [1 x [16 x %struct.ap_uint]]], [32768 x [1 x [16 x %struct.ap_uint]]]* %4, i32 0, i32 0, i32 0, i32 0, !dbg !18685
  %164 = getelementptr inbounds %struct.ap_uint, %struct.ap_uint* %163, i64 524288, !dbg !18685
  br label %165, !dbg !18685

165:                                              ; preds = %165, %162
  %166 = phi %struct.ap_uint* [ %164, %162 ], [ %167, %165 ], !dbg !18685
  %167 = getelementptr inbounds %struct.ap_uint, %struct.ap_uint* %166, i64 -1, !dbg !18685
  call void @_ZN7ap_uintILi8EED2Ev(%struct.ap_uint* %167) #3, !dbg !18685
  %168 = icmp eq %struct.ap_uint* %167, %163, !dbg !18685
  br i1 %168, label %169, label %165, !dbg !18685

169:                                              ; preds = %165, %36, %41
  %170 = load i8*, i8** %5, align 8, !dbg !18664
  %171 = load i32, i32* %6, align 4, !dbg !18664
  %172 = insertvalue { i8*, i32 } undef, i8* %170, 0, !dbg !18664
  %173 = insertvalue { i8*, i32 } %172, i32 %171, 1, !dbg !18664
  resume { i8*, i32 } %173, !dbg !18664
}

; Function Attrs: noinline uwtable
define linkonce_odr dso_local void @_ZN6ap_intILi32EEC2Ei(%struct.ap_int.35*, i32) unnamed_addr #0 comdat align 2 personality i8* bitcast (i32 (...)* @__gxx_personality_v0 to i8*) !dbg !18752 {
  %3 = alloca %struct.ap_int.35*, align 8
  %4 = alloca i32, align 4
  %5 = alloca i8*
  %6 = alloca i32
  store %struct.ap_int.35* %0, %struct.ap_int.35** %3, align 8
  call void @llvm.dbg.declare(metadata %struct.ap_int.35** %3, metadata !18753, metadata !DIExpression()), !dbg !18755
  store i32 %1, i32* %4, align 4
  call void @llvm.dbg.declare(metadata i32* %4, metadata !18756, metadata !DIExpression()), !dbg !18757
  %7 = load %struct.ap_int.35*, %struct.ap_int.35** %3, align 8
  %8 = bitcast %struct.ap_int.35* %7 to %struct.ap_int_base.36*, !dbg !18757
  call void @_ZN11ap_int_baseILi32ELb1EEC2Ev(%struct.ap_int_base.36* %8), !dbg !18757
  %9 = load i32, i32* %4, align 4, !dbg !18758
  %10 = bitcast %struct.ap_int.35* %7 to %struct.ap_int_base.36*, !dbg !18758
  %11 = bitcast %struct.ap_int_base.36* %10 to %struct.ssdm_int_sim.37*, !dbg !18758
  %12 = getelementptr inbounds %struct.ssdm_int_sim.37, %struct.ssdm_int_sim.37* %11, i32 0, i32 0, !dbg !18758
  %13 = call dereferenceable(4) %class.ap_private.38* @_ZN10ap_privateILi32ELb1ELb1EEaSEi(%class.ap_private.38* %12, i32 %9), !dbg !18758
  ret void, !dbg !18757
}

; Function Attrs: noinline uwtable
define linkonce_odr dso_local zeroext i1 @_ZltILi32ELb1EEbRK11ap_int_baseIXT_EXT0_EEi(%struct.ap_int_base.36* dereferenceable(4), i32) #0 comdat personality i8* bitcast (i32 (...)* @__gxx_personality_v0 to i8*) !dbg !18760 {
  %3 = alloca %struct.ap_int_base.36*, align 8
  %4 = alloca i32, align 4
  %5 = alloca %struct.ap_int_base.36, align 4
  %6 = alloca i8*
  %7 = alloca i32
  store %struct.ap_int_base.36* %0, %struct.ap_int_base.36** %3, align 8
  call void @llvm.dbg.declare(metadata %struct.ap_int_base.36** %3, metadata !18763, metadata !DIExpression()), !dbg !18764
  store i32 %1, i32* %4, align 4
  call void @llvm.dbg.declare(metadata i32* %4, metadata !18765, metadata !DIExpression()), !dbg !18764
  %8 = load %struct.ap_int_base.36*, %struct.ap_int_base.36** %3, align 8, !dbg !18764
  %9 = load i32, i32* %4, align 4, !dbg !18764
  call void @_ZN11ap_int_baseILi32ELb1EEC2Ei(%struct.ap_int_base.36* %5, i32 %9), !dbg !18764
  %10 = invoke zeroext i1 @_ZNK11ap_int_baseILi32ELb1EEltILi32ELb1EEEbRKS_IXT_EXT0_EE(%struct.ap_int_base.36* %8, %struct.ap_int_base.36* dereferenceable(4) %5)
          to label %11 unwind label %12, !dbg !18764

11:                                               ; preds = %2
  call void @_ZN11ap_int_baseILi32ELb1EED2Ev(%struct.ap_int_base.36* %5) #3, !dbg !18764
  ret i1 %10, !dbg !18764

12:                                               ; preds = %2
  %13 = landingpad { i8*, i32 }
          cleanup, !dbg !18764
  %14 = extractvalue { i8*, i32 } %13, 0, !dbg !18764
  store i8* %14, i8** %6, align 8, !dbg !18764
  %15 = extractvalue { i8*, i32 } %13, 1, !dbg !18764
  store i32 %15, i32* %7, align 4, !dbg !18764
  call void @_ZN11ap_int_baseILi32ELb1EED2Ev(%struct.ap_int_base.36* %5) #3, !dbg !18764
  %16 = load i8*, i8** %6, align 8, !dbg !18764
  %17 = load i32, i32* %7, align 4, !dbg !18764
  %18 = insertvalue { i8*, i32 } undef, i8* %16, 0, !dbg !18764
  %19 = insertvalue { i8*, i32 } %18, i32 %17, 1, !dbg !18764
  resume { i8*, i32 } %19, !dbg !18764
}

; Function Attrs: noinline uwtable
define linkonce_odr dso_local void @_ZN7ap_uintILi8EEC2Ei(%struct.ap_uint*, i32) unnamed_addr #0 comdat align 2 personality i8* bitcast (i32 (...)* @__gxx_personality_v0 to i8*) !dbg !18766 {
  %3 = alloca %struct.ap_uint*, align 8
  %4 = alloca i32, align 4
  %5 = alloca i8*
  %6 = alloca i32
  store %struct.ap_uint* %0, %struct.ap_uint** %3, align 8
  call void @llvm.dbg.declare(metadata %struct.ap_uint** %3, metadata !18767, metadata !DIExpression()), !dbg !18768
  store i32 %1, i32* %4, align 4
  call void @llvm.dbg.declare(metadata i32* %4, metadata !18769, metadata !DIExpression()), !dbg !18770
  %7 = load %struct.ap_uint*, %struct.ap_uint** %3, align 8
  %8 = bitcast %struct.ap_uint* %7 to %struct.ap_int_base*, !dbg !18770
  call void @_ZN11ap_int_baseILi8ELb0EEC2Ev(%struct.ap_int_base* %8), !dbg !18770
  %9 = load i32, i32* %4, align 4, !dbg !18771
  %10 = bitcast %struct.ap_uint* %7 to %struct.ap_int_base*, !dbg !18771
  %11 = bitcast %struct.ap_int_base* %10 to %struct.ssdm_int_sim*, !dbg !18771
  %12 = getelementptr inbounds %struct.ssdm_int_sim, %struct.ssdm_int_sim* %11, i32 0, i32 0, !dbg !18771
  %13 = call dereferenceable(1) %class.ap_private* @_ZN10ap_privateILi8ELb0ELb1EEaSEi(%class.ap_private* %12, i32 %9), !dbg !18771
  ret void, !dbg !18770
}

; Function Attrs: noinline uwtable
define linkonce_odr dso_local i64 @_ZNK11ap_int_baseILi32ELb1EEcvxEv(%struct.ap_int_base.36*) #0 comdat align 2 !dbg !18773 {
  %2 = alloca %struct.ap_int_base.36*, align 8
  store %struct.ap_int_base.36* %0, %struct.ap_int_base.36** %2, align 8
  call void @llvm.dbg.declare(metadata %struct.ap_int_base.36** %2, metadata !18774, metadata !DIExpression()), !dbg !18776
  %3 = load %struct.ap_int_base.36*, %struct.ap_int_base.36** %2, align 8
  %4 = bitcast %struct.ap_int_base.36* %3 to %struct.ssdm_int_sim.37*, !dbg !18777
  %5 = getelementptr inbounds %struct.ssdm_int_sim.37, %struct.ssdm_int_sim.37* %4, i32 0, i32 0, !dbg !18777
  %6 = call i32 @_ZNK10ap_privateILi32ELb1ELb1EEcviEv(%class.ap_private.38* %5), !dbg !18778
  %7 = sext i32 %6 to i64, !dbg !18778
  ret i64 %7, !dbg !18779
}

; Function Attrs: noinline uwtable
define linkonce_odr dso_local dereferenceable(4) %struct.ap_int_base.36* @_ZN11ap_int_baseILi32ELb1EEppEv(%struct.ap_int_base.36*) #0 comdat align 2 personality i8* bitcast (i32 (...)* @__gxx_personality_v0 to i8*) !dbg !18780 {
  %2 = alloca %struct.ap_int_base.36*, align 8
  %3 = alloca %struct.ap_int_base.43, align 1
  %4 = alloca i8*
  %5 = alloca i32
  store %struct.ap_int_base.36* %0, %struct.ap_int_base.36** %2, align 8
  call void @llvm.dbg.declare(metadata %struct.ap_int_base.36** %2, metadata !18781, metadata !DIExpression()), !dbg !18783
  %6 = load %struct.ap_int_base.36*, %struct.ap_int_base.36** %2, align 8
  call void @_ZN11ap_int_baseILi1ELb0EEC2Ei(%struct.ap_int_base.43* %3, i32 1), !dbg !18784
  %7 = invoke dereferenceable(4) %struct.ap_int_base.36* @_ZN11ap_int_baseILi32ELb1EEpLILi1ELb0EEERS0_RKS_IXT_EXT0_EE(%struct.ap_int_base.36* %6, %struct.ap_int_base.43* dereferenceable(1) %3)
          to label %8 unwind label %9, !dbg !18785

8:                                                ; preds = %1
  call void @_ZN11ap_int_baseILi1ELb0EED2Ev(%struct.ap_int_base.43* %3) #3, !dbg !18785
  ret %struct.ap_int_base.36* %6, !dbg !18786

9:                                                ; preds = %1
  %10 = landingpad { i8*, i32 }
          cleanup, !dbg !18787
  %11 = extractvalue { i8*, i32 } %10, 0, !dbg !18787
  store i8* %11, i8** %4, align 8, !dbg !18787
  %12 = extractvalue { i8*, i32 } %10, 1, !dbg !18787
  store i32 %12, i32* %5, align 4, !dbg !18787
  call void @_ZN11ap_int_baseILi1ELb0EED2Ev(%struct.ap_int_base.43* %3) #3, !dbg !18785
  %13 = load i8*, i8** %4, align 8, !dbg !18785
  %14 = load i32, i32* %5, align 4, !dbg !18785
  %15 = insertvalue { i8*, i32 } undef, i8* %13, 0, !dbg !18785
  %16 = insertvalue { i8*, i32 } %15, i32 %14, 1, !dbg !18785
  resume { i8*, i32 } %16, !dbg !18785
}

; Function Attrs: noinline nounwind uwtable
define linkonce_odr dso_local void @_ZN6ap_intILi32EED2Ev(%struct.ap_int.35*) unnamed_addr #5 comdat align 2 !dbg !18788 {
  %2 = alloca %struct.ap_int.35*, align 8
  store %struct.ap_int.35* %0, %struct.ap_int.35** %2, align 8
  call void @llvm.dbg.declare(metadata %struct.ap_int.35** %2, metadata !18790, metadata !DIExpression()), !dbg !18791
  %3 = load %struct.ap_int.35*, %struct.ap_int.35** %2, align 8
  %4 = bitcast %struct.ap_int.35* %3 to %struct.ap_int_base.36*, !dbg !18792
  call void @_ZN11ap_int_baseILi32ELb1EED2Ev(%struct.ap_int_base.36* %4) #3, !dbg !18792
  ret void, !dbg !18794
}

; Function Attrs: noinline nounwind uwtable
define linkonce_odr dso_local void @_ZN11ap_int_baseILi8ELb0EED2Ev(%struct.ap_int_base*) unnamed_addr #5 comdat align 2 !dbg !18795 {
  %2 = alloca %struct.ap_int_base*, align 8
  store %struct.ap_int_base* %0, %struct.ap_int_base** %2, align 8
  call void @llvm.dbg.declare(metadata %struct.ap_int_base** %2, metadata !18797, metadata !DIExpression()), !dbg !18799
  %3 = load %struct.ap_int_base*, %struct.ap_int_base** %2, align 8
  %4 = bitcast %struct.ap_int_base* %3 to %struct.ssdm_int_sim*, !dbg !18800
  call void @_ZN12ssdm_int_simILi8ELb0EED2Ev(%struct.ssdm_int_sim* %4) #3, !dbg !18800
  ret void, !dbg !18802
}

; Function Attrs: noinline nounwind uwtable
define linkonce_odr dso_local void @_ZN12ssdm_int_simILi8ELb0EED2Ev(%struct.ssdm_int_sim*) unnamed_addr #5 comdat align 2 !dbg !18803 {
  %2 = alloca %struct.ssdm_int_sim*, align 8
  store %struct.ssdm_int_sim* %0, %struct.ssdm_int_sim** %2, align 8
  call void @llvm.dbg.declare(metadata %struct.ssdm_int_sim** %2, metadata !18805, metadata !DIExpression()), !dbg !18807
  %3 = load %struct.ssdm_int_sim*, %struct.ssdm_int_sim** %2, align 8
  %4 = getelementptr inbounds %struct.ssdm_int_sim, %struct.ssdm_int_sim* %3, i32 0, i32 0, !dbg !18808
  call void @_ZN10ap_privateILi8ELb0ELb1EED2Ev(%class.ap_private* %4) #3, !dbg !18808
  ret void, !dbg !18810
}

; Function Attrs: noinline nounwind uwtable
define linkonce_odr dso_local void @_ZN10ap_privateILi8ELb0ELb1EED2Ev(%class.ap_private*) unnamed_addr #5 comdat align 2 personality i8* bitcast (i32 (...)* @__gxx_personality_v0 to i8*) !dbg !18811 {
  %2 = alloca %class.ap_private*, align 8
  store %class.ap_private* %0, %class.ap_private** %2, align 8
  call void @llvm.dbg.declare(metadata %class.ap_private** %2, metadata !18812, metadata !DIExpression()), !dbg !18814
  %3 = load %class.ap_private*, %class.ap_private** %2, align 8
  call void @_ZN10ap_privateILi8ELb0ELb1EE12check_canaryEv(%class.ap_private* %3), !dbg !18815
  ret void, !dbg !18817
}

; Function Attrs: noinline nounwind uwtable
define linkonce_odr dso_local void @_ZN10ap_privateILi8ELb0ELb1EE12check_canaryEv(%class.ap_private*) #5 comdat align 2 !dbg !18818 {
  %2 = alloca %class.ap_private*, align 8
  store %class.ap_private* %0, %class.ap_private** %2, align 8
  call void @llvm.dbg.declare(metadata %class.ap_private** %2, metadata !18819, metadata !DIExpression()), !dbg !18820
  %3 = load %class.ap_private*, %class.ap_private** %2, align 8
  ret void, !dbg !18821
}

; Function Attrs: noinline noreturn nounwind
define linkonce_odr hidden void @__clang_call_terminate(i8*) #7 comdat {
  %2 = call i8* @__cxa_begin_catch(i8* %0) #3
  call void @_ZSt9terminatev() #11
  unreachable
}

declare dso_local i8* @__cxa_begin_catch(i8*)

declare dso_local void @_ZSt9terminatev()

; Function Attrs: noinline nounwind uwtable
define linkonce_odr dso_local void @_ZN12ssdm_int_simILi128ELb0EED2Ev(%struct.ssdm_int_sim.2*) unnamed_addr #5 comdat align 2 !dbg !18822 {
  %2 = alloca %struct.ssdm_int_sim.2*, align 8
  store %struct.ssdm_int_sim.2* %0, %struct.ssdm_int_sim.2** %2, align 8
  call void @llvm.dbg.declare(metadata %struct.ssdm_int_sim.2** %2, metadata !18824, metadata !DIExpression()), !dbg !18826
  %3 = load %struct.ssdm_int_sim.2*, %struct.ssdm_int_sim.2** %2, align 8
  %4 = getelementptr inbounds %struct.ssdm_int_sim.2, %struct.ssdm_int_sim.2* %3, i32 0, i32 0, !dbg !18827
  call void @_ZN10ap_privateILi128ELb0ELb0EED2Ev(%class.ap_private.3* %4) #3, !dbg !18827
  ret void, !dbg !18829
}

; Function Attrs: noinline nounwind uwtable
define linkonce_odr dso_local void @_ZN10ap_privateILi128ELb0ELb0EED2Ev(%class.ap_private.3*) unnamed_addr #5 comdat align 2 personality i8* bitcast (i32 (...)* @__gxx_personality_v0 to i8*) !dbg !18830 {
  %2 = alloca %class.ap_private.3*, align 8
  store %class.ap_private.3* %0, %class.ap_private.3** %2, align 8
  call void @llvm.dbg.declare(metadata %class.ap_private.3** %2, metadata !18831, metadata !DIExpression()), !dbg !18832
  %3 = load %class.ap_private.3*, %class.ap_private.3** %2, align 8
  call void @_ZN10ap_privateILi128ELb0ELb0EE12check_canaryEv(%class.ap_private.3* %3), !dbg !18833
  ret void, !dbg !18835
}

; Function Attrs: noinline nounwind uwtable
define linkonce_odr dso_local void @_ZN10ap_privateILi128ELb0ELb0EE12check_canaryEv(%class.ap_private.3*) #5 comdat align 2 !dbg !18836 {
  %2 = alloca %class.ap_private.3*, align 8
  store %class.ap_private.3* %0, %class.ap_private.3** %2, align 8
  call void @llvm.dbg.declare(metadata %class.ap_private.3** %2, metadata !18837, metadata !DIExpression()), !dbg !18838
  %3 = load %class.ap_private.3*, %class.ap_private.3** %2, align 8
  ret void, !dbg !18839
}

; Function Attrs: noinline nounwind uwtable
define linkonce_odr dso_local void @_ZN11ap_int_baseILi3ELb0EED2Ev(%struct.ap_int_base.5*) unnamed_addr #5 comdat align 2 !dbg !18840 {
  %2 = alloca %struct.ap_int_base.5*, align 8
  store %struct.ap_int_base.5* %0, %struct.ap_int_base.5** %2, align 8
  call void @llvm.dbg.declare(metadata %struct.ap_int_base.5** %2, metadata !18842, metadata !DIExpression()), !dbg !18844
  %3 = load %struct.ap_int_base.5*, %struct.ap_int_base.5** %2, align 8
  %4 = bitcast %struct.ap_int_base.5* %3 to %struct.ssdm_int_sim.6*, !dbg !18845
  call void @_ZN12ssdm_int_simILi3ELb0EED2Ev(%struct.ssdm_int_sim.6* %4) #3, !dbg !18845
  ret void, !dbg !18847
}

; Function Attrs: noinline nounwind uwtable
define linkonce_odr dso_local void @_ZN12ssdm_int_simILi3ELb0EED2Ev(%struct.ssdm_int_sim.6*) unnamed_addr #5 comdat align 2 !dbg !18848 {
  %2 = alloca %struct.ssdm_int_sim.6*, align 8
  store %struct.ssdm_int_sim.6* %0, %struct.ssdm_int_sim.6** %2, align 8
  call void @llvm.dbg.declare(metadata %struct.ssdm_int_sim.6** %2, metadata !18850, metadata !DIExpression()), !dbg !18852
  %3 = load %struct.ssdm_int_sim.6*, %struct.ssdm_int_sim.6** %2, align 8
  %4 = getelementptr inbounds %struct.ssdm_int_sim.6, %struct.ssdm_int_sim.6* %3, i32 0, i32 0, !dbg !18853
  call void @_ZN10ap_privateILi3ELb0ELb1EED2Ev(%class.ap_private.7* %4) #3, !dbg !18853
  ret void, !dbg !18855
}

; Function Attrs: noinline nounwind uwtable
define linkonce_odr dso_local void @_ZN10ap_privateILi3ELb0ELb1EED2Ev(%class.ap_private.7*) unnamed_addr #5 comdat align 2 personality i8* bitcast (i32 (...)* @__gxx_personality_v0 to i8*) !dbg !18856 {
  %2 = alloca %class.ap_private.7*, align 8
  store %class.ap_private.7* %0, %class.ap_private.7** %2, align 8
  call void @llvm.dbg.declare(metadata %class.ap_private.7** %2, metadata !18857, metadata !DIExpression()), !dbg !18859
  %3 = load %class.ap_private.7*, %class.ap_private.7** %2, align 8
  call void @_ZN10ap_privateILi3ELb0ELb1EE12check_canaryEv(%class.ap_private.7* %3), !dbg !18860
  ret void, !dbg !18862
}

; Function Attrs: noinline nounwind uwtable
define linkonce_odr dso_local void @_ZN10ap_privateILi3ELb0ELb1EE12check_canaryEv(%class.ap_private.7*) #5 comdat align 2 !dbg !18863 {
  %2 = alloca %class.ap_private.7*, align 8
  store %class.ap_private.7* %0, %class.ap_private.7** %2, align 8
  call void @llvm.dbg.declare(metadata %class.ap_private.7** %2, metadata !18864, metadata !DIExpression()), !dbg !18865
  %3 = load %class.ap_private.7*, %class.ap_private.7** %2, align 8
  ret void, !dbg !18866
}

; Function Attrs: noinline nounwind uwtable
define linkonce_odr dso_local void @_ZN11ap_int_baseILi2ELb0EED2Ev(%struct.ap_int_base.9*) unnamed_addr #5 comdat align 2 !dbg !18867 {
  %2 = alloca %struct.ap_int_base.9*, align 8
  store %struct.ap_int_base.9* %0, %struct.ap_int_base.9** %2, align 8
  call void @llvm.dbg.declare(metadata %struct.ap_int_base.9** %2, metadata !18869, metadata !DIExpression()), !dbg !18871
  %3 = load %struct.ap_int_base.9*, %struct.ap_int_base.9** %2, align 8
  %4 = bitcast %struct.ap_int_base.9* %3 to %struct.ssdm_int_sim.10*, !dbg !18872
  call void @_ZN12ssdm_int_simILi2ELb0EED2Ev(%struct.ssdm_int_sim.10* %4) #3, !dbg !18872
  ret void, !dbg !18874
}

; Function Attrs: noinline nounwind uwtable
define linkonce_odr dso_local void @_ZN12ssdm_int_simILi2ELb0EED2Ev(%struct.ssdm_int_sim.10*) unnamed_addr #5 comdat align 2 !dbg !18875 {
  %2 = alloca %struct.ssdm_int_sim.10*, align 8
  store %struct.ssdm_int_sim.10* %0, %struct.ssdm_int_sim.10** %2, align 8
  call void @llvm.dbg.declare(metadata %struct.ssdm_int_sim.10** %2, metadata !18877, metadata !DIExpression()), !dbg !18879
  %3 = load %struct.ssdm_int_sim.10*, %struct.ssdm_int_sim.10** %2, align 8
  %4 = getelementptr inbounds %struct.ssdm_int_sim.10, %struct.ssdm_int_sim.10* %3, i32 0, i32 0, !dbg !18880
  call void @_ZN10ap_privateILi2ELb0ELb1EED2Ev(%class.ap_private.11* %4) #3, !dbg !18880
  ret void, !dbg !18882
}

; Function Attrs: noinline nounwind uwtable
define linkonce_odr dso_local void @_ZN10ap_privateILi2ELb0ELb1EED2Ev(%class.ap_private.11*) unnamed_addr #5 comdat align 2 personality i8* bitcast (i32 (...)* @__gxx_personality_v0 to i8*) !dbg !18883 {
  %2 = alloca %class.ap_private.11*, align 8
  store %class.ap_private.11* %0, %class.ap_private.11** %2, align 8
  call void @llvm.dbg.declare(metadata %class.ap_private.11** %2, metadata !18884, metadata !DIExpression()), !dbg !18886
  %3 = load %class.ap_private.11*, %class.ap_private.11** %2, align 8
  call void @_ZN10ap_privateILi2ELb0ELb1EE12check_canaryEv(%class.ap_private.11* %3), !dbg !18887
  ret void, !dbg !18889
}

; Function Attrs: noinline nounwind uwtable
define linkonce_odr dso_local void @_ZN10ap_privateILi2ELb0ELb1EE12check_canaryEv(%class.ap_private.11*) #5 comdat align 2 !dbg !18890 {
  %2 = alloca %class.ap_private.11*, align 8
  store %class.ap_private.11* %0, %class.ap_private.11** %2, align 8
  call void @llvm.dbg.declare(metadata %class.ap_private.11** %2, metadata !18891, metadata !DIExpression()), !dbg !18892
  %3 = load %class.ap_private.11*, %class.ap_private.11** %2, align 8
  ret void, !dbg !18893
}

; Function Attrs: noinline nounwind uwtable
define linkonce_odr dso_local void @_ZN11ap_int_baseILi16ELb0EED2Ev(%struct.ap_int_base.13*) unnamed_addr #5 comdat align 2 !dbg !18894 {
  %2 = alloca %struct.ap_int_base.13*, align 8
  store %struct.ap_int_base.13* %0, %struct.ap_int_base.13** %2, align 8
  call void @llvm.dbg.declare(metadata %struct.ap_int_base.13** %2, metadata !18896, metadata !DIExpression()), !dbg !18898
  %3 = load %struct.ap_int_base.13*, %struct.ap_int_base.13** %2, align 8
  %4 = bitcast %struct.ap_int_base.13* %3 to %struct.ssdm_int_sim.14*, !dbg !18899
  call void @_ZN12ssdm_int_simILi16ELb0EED2Ev(%struct.ssdm_int_sim.14* %4) #3, !dbg !18899
  ret void, !dbg !18901
}

; Function Attrs: noinline nounwind uwtable
define linkonce_odr dso_local void @_ZN12ssdm_int_simILi16ELb0EED2Ev(%struct.ssdm_int_sim.14*) unnamed_addr #5 comdat align 2 !dbg !18902 {
  %2 = alloca %struct.ssdm_int_sim.14*, align 8
  store %struct.ssdm_int_sim.14* %0, %struct.ssdm_int_sim.14** %2, align 8
  call void @llvm.dbg.declare(metadata %struct.ssdm_int_sim.14** %2, metadata !18904, metadata !DIExpression()), !dbg !18906
  %3 = load %struct.ssdm_int_sim.14*, %struct.ssdm_int_sim.14** %2, align 8
  %4 = getelementptr inbounds %struct.ssdm_int_sim.14, %struct.ssdm_int_sim.14* %3, i32 0, i32 0, !dbg !18907
  call void @_ZN10ap_privateILi16ELb0ELb1EED2Ev(%class.ap_private.15* %4) #3, !dbg !18907
  ret void, !dbg !18909
}

; Function Attrs: noinline nounwind uwtable
define linkonce_odr dso_local void @_ZN10ap_privateILi16ELb0ELb1EED2Ev(%class.ap_private.15*) unnamed_addr #5 comdat align 2 personality i8* bitcast (i32 (...)* @__gxx_personality_v0 to i8*) !dbg !18910 {
  %2 = alloca %class.ap_private.15*, align 8
  store %class.ap_private.15* %0, %class.ap_private.15** %2, align 8
  call void @llvm.dbg.declare(metadata %class.ap_private.15** %2, metadata !18911, metadata !DIExpression()), !dbg !18913
  %3 = load %class.ap_private.15*, %class.ap_private.15** %2, align 8
  call void @_ZN10ap_privateILi16ELb0ELb1EE12check_canaryEv(%class.ap_private.15* %3), !dbg !18914
  ret void, !dbg !18916
}

; Function Attrs: noinline nounwind uwtable
define linkonce_odr dso_local void @_ZN10ap_privateILi16ELb0ELb1EE12check_canaryEv(%class.ap_private.15*) #5 comdat align 2 !dbg !18917 {
  %2 = alloca %class.ap_private.15*, align 8
  store %class.ap_private.15* %0, %class.ap_private.15** %2, align 8
  call void @llvm.dbg.declare(metadata %class.ap_private.15** %2, metadata !18918, metadata !DIExpression()), !dbg !18919
  %3 = load %class.ap_private.15*, %class.ap_private.15** %2, align 8
  ret void, !dbg !18920
}

; Function Attrs: noinline nounwind uwtable
define linkonce_odr dso_local void @_ZN12ssdm_int_simILi68ELb1EED2Ev(%struct.ssdm_int_sim.17*) unnamed_addr #5 comdat align 2 !dbg !18921 {
  %2 = alloca %struct.ssdm_int_sim.17*, align 8
  store %struct.ssdm_int_sim.17* %0, %struct.ssdm_int_sim.17** %2, align 8
  call void @llvm.dbg.declare(metadata %struct.ssdm_int_sim.17** %2, metadata !18923, metadata !DIExpression()), !dbg !18925
  %3 = load %struct.ssdm_int_sim.17*, %struct.ssdm_int_sim.17** %2, align 8
  %4 = getelementptr inbounds %struct.ssdm_int_sim.17, %struct.ssdm_int_sim.17* %3, i32 0, i32 0, !dbg !18926
  call void @_ZN10ap_privateILi68ELb1ELb0EED2Ev(%class.ap_private.18* %4) #3, !dbg !18926
  ret void, !dbg !18928
}

; Function Attrs: noinline nounwind uwtable
define linkonce_odr dso_local void @_ZN10ap_privateILi68ELb1ELb0EED2Ev(%class.ap_private.18*) unnamed_addr #5 comdat align 2 personality i8* bitcast (i32 (...)* @__gxx_personality_v0 to i8*) !dbg !18929 {
  %2 = alloca %class.ap_private.18*, align 8
  store %class.ap_private.18* %0, %class.ap_private.18** %2, align 8
  call void @llvm.dbg.declare(metadata %class.ap_private.18** %2, metadata !18930, metadata !DIExpression()), !dbg !18932
  %3 = load %class.ap_private.18*, %class.ap_private.18** %2, align 8
  call void @_ZN10ap_privateILi68ELb1ELb0EE12check_canaryEv(%class.ap_private.18* %3), !dbg !18933
  ret void, !dbg !18935
}

; Function Attrs: noinline nounwind uwtable
define linkonce_odr dso_local void @_ZN10ap_privateILi68ELb1ELb0EE12check_canaryEv(%class.ap_private.18*) #5 comdat align 2 !dbg !18936 {
  %2 = alloca %class.ap_private.18*, align 8
  store %class.ap_private.18* %0, %class.ap_private.18** %2, align 8
  call void @llvm.dbg.declare(metadata %class.ap_private.18** %2, metadata !18937, metadata !DIExpression()), !dbg !18938
  %3 = load %class.ap_private.18*, %class.ap_private.18** %2, align 8
  ret void, !dbg !18939
}

; Function Attrs: noinline nounwind uwtable
define linkonce_odr dso_local void @_ZN12ssdm_int_simILi67ELb1EED2Ev(%struct.ssdm_int_sim.20*) unnamed_addr #5 comdat align 2 !dbg !18940 {
  %2 = alloca %struct.ssdm_int_sim.20*, align 8
  store %struct.ssdm_int_sim.20* %0, %struct.ssdm_int_sim.20** %2, align 8
  call void @llvm.dbg.declare(metadata %struct.ssdm_int_sim.20** %2, metadata !18942, metadata !DIExpression()), !dbg !18944
  %3 = load %struct.ssdm_int_sim.20*, %struct.ssdm_int_sim.20** %2, align 8
  %4 = getelementptr inbounds %struct.ssdm_int_sim.20, %struct.ssdm_int_sim.20* %3, i32 0, i32 0, !dbg !18945
  call void @_ZN10ap_privateILi67ELb1ELb0EED2Ev(%class.ap_private.21* %4) #3, !dbg !18945
  ret void, !dbg !18947
}

; Function Attrs: noinline nounwind uwtable
define linkonce_odr dso_local void @_ZN10ap_privateILi67ELb1ELb0EED2Ev(%class.ap_private.21*) unnamed_addr #5 comdat align 2 personality i8* bitcast (i32 (...)* @__gxx_personality_v0 to i8*) !dbg !18948 {
  %2 = alloca %class.ap_private.21*, align 8
  store %class.ap_private.21* %0, %class.ap_private.21** %2, align 8
  call void @llvm.dbg.declare(metadata %class.ap_private.21** %2, metadata !18949, metadata !DIExpression()), !dbg !18951
  %3 = load %class.ap_private.21*, %class.ap_private.21** %2, align 8
  call void @_ZN10ap_privateILi67ELb1ELb0EE12check_canaryEv(%class.ap_private.21* %3), !dbg !18952
  ret void, !dbg !18954
}

; Function Attrs: noinline nounwind uwtable
define linkonce_odr dso_local void @_ZN10ap_privateILi67ELb1ELb0EE12check_canaryEv(%class.ap_private.21*) #5 comdat align 2 !dbg !18955 {
  %2 = alloca %class.ap_private.21*, align 8
  store %class.ap_private.21* %0, %class.ap_private.21** %2, align 8
  call void @llvm.dbg.declare(metadata %class.ap_private.21** %2, metadata !18956, metadata !DIExpression()), !dbg !18957
  %3 = load %class.ap_private.21*, %class.ap_private.21** %2, align 8
  ret void, !dbg !18958
}

; Function Attrs: noinline nounwind uwtable
define linkonce_odr dso_local void @_ZN11ap_int_baseILi66ELb1EED2Ev(%struct.ap_int_base.23*) unnamed_addr #5 comdat align 2 !dbg !18959 {
  %2 = alloca %struct.ap_int_base.23*, align 8
  store %struct.ap_int_base.23* %0, %struct.ap_int_base.23** %2, align 8
  call void @llvm.dbg.declare(metadata %struct.ap_int_base.23** %2, metadata !18961, metadata !DIExpression()), !dbg !18963
  %3 = load %struct.ap_int_base.23*, %struct.ap_int_base.23** %2, align 8
  %4 = bitcast %struct.ap_int_base.23* %3 to %struct.ssdm_int_sim.24*, !dbg !18964
  call void @_ZN12ssdm_int_simILi66ELb1EED2Ev(%struct.ssdm_int_sim.24* %4) #3, !dbg !18964
  ret void, !dbg !18966
}

; Function Attrs: noinline nounwind uwtable
define linkonce_odr dso_local void @_ZN12ssdm_int_simILi66ELb1EED2Ev(%struct.ssdm_int_sim.24*) unnamed_addr #5 comdat align 2 !dbg !18967 {
  %2 = alloca %struct.ssdm_int_sim.24*, align 8
  store %struct.ssdm_int_sim.24* %0, %struct.ssdm_int_sim.24** %2, align 8
  call void @llvm.dbg.declare(metadata %struct.ssdm_int_sim.24** %2, metadata !18969, metadata !DIExpression()), !dbg !18971
  %3 = load %struct.ssdm_int_sim.24*, %struct.ssdm_int_sim.24** %2, align 8
  %4 = getelementptr inbounds %struct.ssdm_int_sim.24, %struct.ssdm_int_sim.24* %3, i32 0, i32 0, !dbg !18972
  call void @_ZN10ap_privateILi66ELb1ELb0EED2Ev(%class.ap_private.25* %4) #3, !dbg !18972
  ret void, !dbg !18974
}

; Function Attrs: noinline nounwind uwtable
define linkonce_odr dso_local void @_ZN10ap_privateILi66ELb1ELb0EED2Ev(%class.ap_private.25*) unnamed_addr #5 comdat align 2 personality i8* bitcast (i32 (...)* @__gxx_personality_v0 to i8*) !dbg !18975 {
  %2 = alloca %class.ap_private.25*, align 8
  store %class.ap_private.25* %0, %class.ap_private.25** %2, align 8
  call void @llvm.dbg.declare(metadata %class.ap_private.25** %2, metadata !18976, metadata !DIExpression()), !dbg !18978
  %3 = load %class.ap_private.25*, %class.ap_private.25** %2, align 8
  call void @_ZN10ap_privateILi66ELb1ELb0EE12check_canaryEv(%class.ap_private.25* %3), !dbg !18979
  ret void, !dbg !18981
}

; Function Attrs: noinline nounwind uwtable
define linkonce_odr dso_local void @_ZN10ap_privateILi66ELb1ELb0EE12check_canaryEv(%class.ap_private.25*) #5 comdat align 2 !dbg !18982 {
  %2 = alloca %class.ap_private.25*, align 8
  store %class.ap_private.25* %0, %class.ap_private.25** %2, align 8
  call void @llvm.dbg.declare(metadata %class.ap_private.25** %2, metadata !18983, metadata !DIExpression()), !dbg !18984
  %3 = load %class.ap_private.25*, %class.ap_private.25** %2, align 8
  ret void, !dbg !18985
}

; Function Attrs: noinline nounwind uwtable
define linkonce_odr dso_local void @_ZN12ssdm_int_simILi128ELb1EED2Ev(%struct.ssdm_int_sim.29*) unnamed_addr #5 comdat align 2 !dbg !18986 {
  %2 = alloca %struct.ssdm_int_sim.29*, align 8
  store %struct.ssdm_int_sim.29* %0, %struct.ssdm_int_sim.29** %2, align 8
  call void @llvm.dbg.declare(metadata %struct.ssdm_int_sim.29** %2, metadata !18988, metadata !DIExpression()), !dbg !18990
  %3 = load %struct.ssdm_int_sim.29*, %struct.ssdm_int_sim.29** %2, align 8
  %4 = getelementptr inbounds %struct.ssdm_int_sim.29, %struct.ssdm_int_sim.29* %3, i32 0, i32 0, !dbg !18991
  call void @_ZN10ap_privateILi128ELb1ELb0EED2Ev(%class.ap_private.30* %4) #3, !dbg !18991
  ret void, !dbg !18993
}

; Function Attrs: noinline nounwind uwtable
define linkonce_odr dso_local void @_ZN10ap_privateILi128ELb1ELb0EED2Ev(%class.ap_private.30*) unnamed_addr #5 comdat align 2 personality i8* bitcast (i32 (...)* @__gxx_personality_v0 to i8*) !dbg !18994 {
  %2 = alloca %class.ap_private.30*, align 8
  store %class.ap_private.30* %0, %class.ap_private.30** %2, align 8
  call void @llvm.dbg.declare(metadata %class.ap_private.30** %2, metadata !18995, metadata !DIExpression()), !dbg !18997
  %3 = load %class.ap_private.30*, %class.ap_private.30** %2, align 8
  call void @_ZN10ap_privateILi128ELb1ELb0EE12check_canaryEv(%class.ap_private.30* %3), !dbg !18998
  ret void, !dbg !19000
}

; Function Attrs: noinline nounwind uwtable
define linkonce_odr dso_local void @_ZN10ap_privateILi128ELb1ELb0EE12check_canaryEv(%class.ap_private.30*) #5 comdat align 2 !dbg !19001 {
  %2 = alloca %class.ap_private.30*, align 8
  store %class.ap_private.30* %0, %class.ap_private.30** %2, align 8
  call void @llvm.dbg.declare(metadata %class.ap_private.30** %2, metadata !19002, metadata !DIExpression()), !dbg !19003
  %3 = load %class.ap_private.30*, %class.ap_private.30** %2, align 8
  ret void, !dbg !19004
}

; Function Attrs: noinline nounwind uwtable
define linkonce_odr dso_local void @_ZN11ap_int_baseILi64ELb1EED2Ev(%struct.ap_int_base.31*) unnamed_addr #5 comdat align 2 !dbg !19005 {
  %2 = alloca %struct.ap_int_base.31*, align 8
  store %struct.ap_int_base.31* %0, %struct.ap_int_base.31** %2, align 8
  call void @llvm.dbg.declare(metadata %struct.ap_int_base.31** %2, metadata !19007, metadata !DIExpression()), !dbg !19009
  %3 = load %struct.ap_int_base.31*, %struct.ap_int_base.31** %2, align 8
  %4 = bitcast %struct.ap_int_base.31* %3 to %struct.ssdm_int_sim.32*, !dbg !19010
  call void @_ZN12ssdm_int_simILi64ELb1EED2Ev(%struct.ssdm_int_sim.32* %4) #3, !dbg !19010
  ret void, !dbg !19012
}

; Function Attrs: noinline nounwind uwtable
define linkonce_odr dso_local void @_ZN12ssdm_int_simILi64ELb1EED2Ev(%struct.ssdm_int_sim.32*) unnamed_addr #5 comdat align 2 !dbg !19013 {
  %2 = alloca %struct.ssdm_int_sim.32*, align 8
  store %struct.ssdm_int_sim.32* %0, %struct.ssdm_int_sim.32** %2, align 8
  call void @llvm.dbg.declare(metadata %struct.ssdm_int_sim.32** %2, metadata !19015, metadata !DIExpression()), !dbg !19017
  %3 = load %struct.ssdm_int_sim.32*, %struct.ssdm_int_sim.32** %2, align 8
  %4 = getelementptr inbounds %struct.ssdm_int_sim.32, %struct.ssdm_int_sim.32* %3, i32 0, i32 0, !dbg !19018
  call void @_ZN10ap_privateILi64ELb1ELb1EED2Ev(%class.ap_private.33* %4) #3, !dbg !19018
  ret void, !dbg !19020
}

; Function Attrs: noinline nounwind uwtable
define linkonce_odr dso_local void @_ZN10ap_privateILi64ELb1ELb1EED2Ev(%class.ap_private.33*) unnamed_addr #5 comdat align 2 personality i8* bitcast (i32 (...)* @__gxx_personality_v0 to i8*) !dbg !19021 {
  %2 = alloca %class.ap_private.33*, align 8
  store %class.ap_private.33* %0, %class.ap_private.33** %2, align 8
  call void @llvm.dbg.declare(metadata %class.ap_private.33** %2, metadata !19022, metadata !DIExpression()), !dbg !19024
  %3 = load %class.ap_private.33*, %class.ap_private.33** %2, align 8
  call void @_ZN10ap_privateILi64ELb1ELb1EE12check_canaryEv(%class.ap_private.33* %3), !dbg !19025
  ret void, !dbg !19027
}

; Function Attrs: noinline nounwind uwtable
define linkonce_odr dso_local void @_ZN10ap_privateILi64ELb1ELb1EE12check_canaryEv(%class.ap_private.33*) #5 comdat align 2 !dbg !19028 {
  %2 = alloca %class.ap_private.33*, align 8
  store %class.ap_private.33* %0, %class.ap_private.33** %2, align 8
  call void @llvm.dbg.declare(metadata %class.ap_private.33** %2, metadata !19029, metadata !DIExpression()), !dbg !19030
  %3 = load %class.ap_private.33*, %class.ap_private.33** %2, align 8
  ret void, !dbg !19031
}

; Function Attrs: noinline nounwind uwtable
define linkonce_odr dso_local void @_ZN12ssdm_int_simILi32ELb1EED2Ev(%struct.ssdm_int_sim.37*) unnamed_addr #5 comdat align 2 !dbg !19032 {
  %2 = alloca %struct.ssdm_int_sim.37*, align 8
  store %struct.ssdm_int_sim.37* %0, %struct.ssdm_int_sim.37** %2, align 8
  call void @llvm.dbg.declare(metadata %struct.ssdm_int_sim.37** %2, metadata !19034, metadata !DIExpression()), !dbg !19036
  %3 = load %struct.ssdm_int_sim.37*, %struct.ssdm_int_sim.37** %2, align 8
  %4 = getelementptr inbounds %struct.ssdm_int_sim.37, %struct.ssdm_int_sim.37* %3, i32 0, i32 0, !dbg !19037
  call void @_ZN10ap_privateILi32ELb1ELb1EED2Ev(%class.ap_private.38* %4) #3, !dbg !19037
  ret void, !dbg !19039
}

; Function Attrs: noinline nounwind uwtable
define linkonce_odr dso_local void @_ZN10ap_privateILi32ELb1ELb1EED2Ev(%class.ap_private.38*) unnamed_addr #5 comdat align 2 personality i8* bitcast (i32 (...)* @__gxx_personality_v0 to i8*) !dbg !19040 {
  %2 = alloca %class.ap_private.38*, align 8
  store %class.ap_private.38* %0, %class.ap_private.38** %2, align 8
  call void @llvm.dbg.declare(metadata %class.ap_private.38** %2, metadata !19041, metadata !DIExpression()), !dbg !19043
  %3 = load %class.ap_private.38*, %class.ap_private.38** %2, align 8
  call void @_ZN10ap_privateILi32ELb1ELb1EE12check_canaryEv(%class.ap_private.38* %3), !dbg !19044
  ret void, !dbg !19046
}

; Function Attrs: noinline nounwind uwtable
define linkonce_odr dso_local void @_ZN10ap_privateILi32ELb1ELb1EE12check_canaryEv(%class.ap_private.38*) #5 comdat align 2 !dbg !19047 {
  %2 = alloca %class.ap_private.38*, align 8
  store %class.ap_private.38* %0, %class.ap_private.38** %2, align 8
  call void @llvm.dbg.declare(metadata %class.ap_private.38** %2, metadata !19048, metadata !DIExpression()), !dbg !19049
  %3 = load %class.ap_private.38*, %class.ap_private.38** %2, align 8
  ret void, !dbg !19050
}

; Function Attrs: noinline uwtable
define linkonce_odr dso_local void @_ZN11ap_int_baseILi8ELb0EEC2Ev(%struct.ap_int_base*) unnamed_addr #0 comdat align 2 !dbg !19051 {
  %2 = alloca %struct.ap_int_base*, align 8
  store %struct.ap_int_base* %0, %struct.ap_int_base** %2, align 8
  call void @llvm.dbg.declare(metadata %struct.ap_int_base** %2, metadata !19052, metadata !DIExpression()), !dbg !19053
  %3 = load %struct.ap_int_base*, %struct.ap_int_base** %2, align 8
  %4 = bitcast %struct.ap_int_base* %3 to %struct.ssdm_int_sim*, !dbg !19054
  call void @_ZN12ssdm_int_simILi8ELb0EEC2Ev(%struct.ssdm_int_sim* %4), !dbg !19055
  ret void, !dbg !19056
}

; Function Attrs: noinline uwtable
define linkonce_odr dso_local void @_ZN12ssdm_int_simILi8ELb0EEC2Ev(%struct.ssdm_int_sim*) unnamed_addr #0 comdat align 2 !dbg !19057 {
  %2 = alloca %struct.ssdm_int_sim*, align 8
  store %struct.ssdm_int_sim* %0, %struct.ssdm_int_sim** %2, align 8
  call void @llvm.dbg.declare(metadata %struct.ssdm_int_sim** %2, metadata !19058, metadata !DIExpression()), !dbg !19059
  %3 = load %struct.ssdm_int_sim*, %struct.ssdm_int_sim** %2, align 8
  %4 = getelementptr inbounds %struct.ssdm_int_sim, %struct.ssdm_int_sim* %3, i32 0, i32 0, !dbg !19060
  call void @_ZN10ap_privateILi8ELb0ELb1EEC2Ev(%class.ap_private* %4), !dbg !19060
  ret void, !dbg !19061
}

; Function Attrs: noinline uwtable
define linkonce_odr dso_local void @_ZN10ap_privateILi8ELb0ELb1EEC2Ev(%class.ap_private*) unnamed_addr #0 comdat align 2 !dbg !19062 {
  %2 = alloca %class.ap_private*, align 8
  store %class.ap_private* %0, %class.ap_private** %2, align 8
  call void @llvm.dbg.declare(metadata %class.ap_private** %2, metadata !19063, metadata !DIExpression()), !dbg !19064
  %3 = load %class.ap_private*, %class.ap_private** %2, align 8
  call void @_ZN10ap_privateILi8ELb0ELb1EE10set_canaryEv(%class.ap_private* %3), !dbg !19065
  call void @_ZNV10ap_privateILi8ELb0ELb1EE15clearUnusedBitsEv(%class.ap_private* %3), !dbg !19067
  call void @_ZN10ap_privateILi8ELb0ELb1EE12check_canaryEv(%class.ap_private* %3), !dbg !19068
  ret void, !dbg !19069
}

; Function Attrs: noinline nounwind uwtable
define linkonce_odr dso_local void @_ZN10ap_privateILi8ELb0ELb1EE10set_canaryEv(%class.ap_private*) #5 comdat align 2 !dbg !19070 {
  %2 = alloca %class.ap_private*, align 8
  store %class.ap_private* %0, %class.ap_private** %2, align 8
  call void @llvm.dbg.declare(metadata %class.ap_private** %2, metadata !19071, metadata !DIExpression()), !dbg !19072
  %3 = load %class.ap_private*, %class.ap_private** %2, align 8
  ret void, !dbg !19073
}

; Function Attrs: noinline nounwind uwtable
define linkonce_odr dso_local void @_ZNV10ap_privateILi8ELb0ELb1EE15clearUnusedBitsEv(%class.ap_private*) #5 comdat align 2 !dbg !2459 {
  %2 = alloca %class.ap_private*, align 8
  store %class.ap_private* %0, %class.ap_private** %2, align 8
  call void @llvm.dbg.declare(metadata %class.ap_private** %2, metadata !19074, metadata !DIExpression()), !dbg !19076
  %3 = load %class.ap_private*, %class.ap_private** %2, align 8
  %4 = getelementptr inbounds %class.ap_private, %class.ap_private* %3, i32 0, i32 0, !dbg !19077
  %5 = load volatile i8, i8* %4, align 1, !dbg !19077
  %6 = zext i8 %5 to i64, !dbg !19077
  %7 = shl i64 %6, 56, !dbg !19078
  %8 = lshr i64 %7, 56, !dbg !19079
  %9 = trunc i64 %8 to i8, !dbg !19080
  %10 = getelementptr inbounds %class.ap_private, %class.ap_private* %3, i32 0, i32 0, !dbg !19081
  store volatile i8 %9, i8* %10, align 1, !dbg !19082
  ret void, !dbg !19083
}

; Function Attrs: noinline uwtable
define linkonce_odr dso_local dereferenceable(1) %class.ap_private* @_ZN10ap_privateILi8ELb0ELb1EEaSERKS0_(%class.ap_private*, %class.ap_private* dereferenceable(1)) #0 comdat align 2 !dbg !19084 {
  %3 = alloca %class.ap_private*, align 8
  %4 = alloca %class.ap_private*, align 8
  store %class.ap_private* %0, %class.ap_private** %3, align 8
  call void @llvm.dbg.declare(metadata %class.ap_private** %3, metadata !19085, metadata !DIExpression()), !dbg !19086
  store %class.ap_private* %1, %class.ap_private** %4, align 8
  call void @llvm.dbg.declare(metadata %class.ap_private** %4, metadata !19087, metadata !DIExpression()), !dbg !19088
  %5 = load %class.ap_private*, %class.ap_private** %3, align 8
  %6 = load %class.ap_private*, %class.ap_private** %4, align 8, !dbg !19089
  %7 = call zeroext i8 @_ZNK10ap_privateILi8ELb0ELb1EE7get_VALEv(%class.ap_private* %6), !dbg !19090
  %8 = getelementptr inbounds %class.ap_private, %class.ap_private* %5, i32 0, i32 0, !dbg !19091
  store i8 %7, i8* %8, align 1, !dbg !19092
  call void @_ZNV10ap_privateILi8ELb0ELb1EE15clearUnusedBitsEv(%class.ap_private* %5), !dbg !19093
  ret %class.ap_private* %5, !dbg !19094
}

; Function Attrs: noinline nounwind uwtable
define linkonce_odr dso_local zeroext i8 @_ZNK10ap_privateILi8ELb0ELb1EE7get_VALEv(%class.ap_private*) #5 comdat align 2 !dbg !19095 {
  %2 = alloca %class.ap_private*, align 8
  store %class.ap_private* %0, %class.ap_private** %2, align 8
  call void @llvm.dbg.declare(metadata %class.ap_private** %2, metadata !19096, metadata !DIExpression()), !dbg !19098
  %3 = load %class.ap_private*, %class.ap_private** %2, align 8
  %4 = getelementptr inbounds %class.ap_private, %class.ap_private* %3, i32 0, i32 0, !dbg !19099
  %5 = load i8, i8* %4, align 1, !dbg !19099
  ret i8 %5, !dbg !19100
}

; Function Attrs: noinline uwtable
define linkonce_odr dso_local void @_ZN12ssdm_int_simILi128ELb0EEC2Ev(%struct.ssdm_int_sim.2*) unnamed_addr #0 comdat align 2 !dbg !19101 {
  %2 = alloca %struct.ssdm_int_sim.2*, align 8
  store %struct.ssdm_int_sim.2* %0, %struct.ssdm_int_sim.2** %2, align 8
  call void @llvm.dbg.declare(metadata %struct.ssdm_int_sim.2** %2, metadata !19102, metadata !DIExpression()), !dbg !19103
  %3 = load %struct.ssdm_int_sim.2*, %struct.ssdm_int_sim.2** %2, align 8
  %4 = getelementptr inbounds %struct.ssdm_int_sim.2, %struct.ssdm_int_sim.2* %3, i32 0, i32 0, !dbg !19104
  call void @_ZN10ap_privateILi128ELb0ELb0EEC2Ev(%class.ap_private.3* %4), !dbg !19104
  ret void, !dbg !19105
}

; Function Attrs: noinline uwtable
define linkonce_odr dso_local void @_ZN10ap_privateILi128ELb0ELb0EEC2Ev(%class.ap_private.3*) unnamed_addr #0 comdat align 2 !dbg !19106 {
  %2 = alloca %class.ap_private.3*, align 8
  store %class.ap_private.3* %0, %class.ap_private.3** %2, align 8
  call void @llvm.dbg.declare(metadata %class.ap_private.3** %2, metadata !19107, metadata !DIExpression()), !dbg !19108
  %3 = load %class.ap_private.3*, %class.ap_private.3** %2, align 8
  call void @_ZN10ap_privateILi128ELb0ELb0EE10set_canaryEv(%class.ap_private.3* %3), !dbg !19109
  call void @_ZNV10ap_privateILi128ELb0ELb0EE15clearUnusedBitsEv(%class.ap_private.3* %3), !dbg !19111
  call void @_ZN10ap_privateILi128ELb0ELb0EE12check_canaryEv(%class.ap_private.3* %3), !dbg !19112
  ret void, !dbg !19113
}

; Function Attrs: noinline nounwind uwtable
define linkonce_odr dso_local void @_ZN10ap_privateILi128ELb0ELb0EE10set_canaryEv(%class.ap_private.3*) #5 comdat align 2 !dbg !19114 {
  %2 = alloca %class.ap_private.3*, align 8
  store %class.ap_private.3* %0, %class.ap_private.3** %2, align 8
  call void @llvm.dbg.declare(metadata %class.ap_private.3** %2, metadata !19115, metadata !DIExpression()), !dbg !19116
  %3 = load %class.ap_private.3*, %class.ap_private.3** %2, align 8
  ret void, !dbg !19117
}

; Function Attrs: noinline nounwind uwtable
define linkonce_odr dso_local void @_ZNV10ap_privateILi128ELb0ELb0EE15clearUnusedBitsEv(%class.ap_private.3*) #5 comdat align 2 !dbg !19118 {
  %2 = alloca %class.ap_private.3*, align 8
  store %class.ap_private.3* %0, %class.ap_private.3** %2, align 8
  call void @llvm.dbg.declare(metadata %class.ap_private.3** %2, metadata !19119, metadata !DIExpression()), !dbg !19121
  %3 = load %class.ap_private.3*, %class.ap_private.3** %2, align 8
  %4 = getelementptr inbounds %class.ap_private.3, %class.ap_private.3* %3, i32 0, i32 0, !dbg !19122
  %5 = getelementptr inbounds [2 x i64], [2 x i64]* %4, i64 0, i64 1, !dbg !19122
  %6 = load volatile i64, i64* %5, align 8, !dbg !19122
  %7 = getelementptr inbounds %class.ap_private.3, %class.ap_private.3* %3, i32 0, i32 0, !dbg !19123
  %8 = getelementptr inbounds [2 x i64], [2 x i64]* %7, i64 0, i64 1, !dbg !19123
  store volatile i64 %6, i64* %8, align 8, !dbg !19124
  ret void, !dbg !19125
}

; Function Attrs: noinline uwtable
define linkonce_odr dso_local dereferenceable(16) %class.ap_private.3* @_ZN10ap_privateILi128ELb0ELb0EEaSEi(%class.ap_private.3*, i32) #0 comdat align 2 personality i8* bitcast (i32 (...)* @__gxx_personality_v0 to i8*) !dbg !19126 {
  %3 = alloca %class.ap_private.3*, align 8
  %4 = alloca i32, align 4
  %5 = alloca %class.ap_private.38, align 4
  %6 = alloca i8*
  %7 = alloca i32
  store %class.ap_private.3* %0, %class.ap_private.3** %3, align 8
  call void @llvm.dbg.declare(metadata %class.ap_private.3** %3, metadata !19127, metadata !DIExpression()), !dbg !19128
  store i32 %1, i32* %4, align 4
  call void @llvm.dbg.declare(metadata i32* %4, metadata !19129, metadata !DIExpression()), !dbg !19130
  %8 = load %class.ap_private.3*, %class.ap_private.3** %3, align 8
  call void @llvm.dbg.declare(metadata %class.ap_private.38* %5, metadata !19131, metadata !DIExpression()), !dbg !19130
  %9 = load i32, i32* %4, align 4, !dbg !19130
  call void @_ZN10ap_privateILi32ELb1ELb1EEC2Ei(%class.ap_private.38* %5, i32 %9), !dbg !19130
  %10 = invoke dereferenceable(16) %class.ap_private.3* @_ZN10ap_privateILi128ELb0ELb0EEaSILi32ELb1EEERS0_RKS_IXT_EXT0_EXleT_Li64EEE(%class.ap_private.3* %8, %class.ap_private.38* dereferenceable(4) %5)
          to label %11 unwind label %12, !dbg !19130

11:                                               ; preds = %2
  call void @_ZN10ap_privateILi32ELb1ELb1EED2Ev(%class.ap_private.38* %5) #3, !dbg !19130
  ret %class.ap_private.3* %8, !dbg !19130

12:                                               ; preds = %2
  %13 = landingpad { i8*, i32 }
          cleanup, !dbg !19130
  %14 = extractvalue { i8*, i32 } %13, 0, !dbg !19130
  store i8* %14, i8** %6, align 8, !dbg !19130
  %15 = extractvalue { i8*, i32 } %13, 1, !dbg !19130
  store i32 %15, i32* %7, align 4, !dbg !19130
  call void @_ZN10ap_privateILi32ELb1ELb1EED2Ev(%class.ap_private.38* %5) #3, !dbg !19130
  %16 = load i8*, i8** %6, align 8, !dbg !19130
  %17 = load i32, i32* %7, align 4, !dbg !19130
  %18 = insertvalue { i8*, i32 } undef, i8* %16, 0, !dbg !19130
  %19 = insertvalue { i8*, i32 } %18, i32 %17, 1, !dbg !19130
  resume { i8*, i32 } %19, !dbg !19130
}

; Function Attrs: noinline uwtable
define linkonce_odr dso_local void @_ZN10ap_privateILi32ELb1ELb1EEC2Ei(%class.ap_private.38*, i32) unnamed_addr #0 comdat align 2 !dbg !19132 {
  %3 = alloca %class.ap_private.38*, align 8
  %4 = alloca i32, align 4
  store %class.ap_private.38* %0, %class.ap_private.38** %3, align 8
  call void @llvm.dbg.declare(metadata %class.ap_private.38** %3, metadata !19133, metadata !DIExpression()), !dbg !19134
  store i32 %1, i32* %4, align 4
  call void @llvm.dbg.declare(metadata i32* %4, metadata !19135, metadata !DIExpression()), !dbg !19136
  %5 = load %class.ap_private.38*, %class.ap_private.38** %3, align 8
  %6 = getelementptr inbounds %class.ap_private.38, %class.ap_private.38* %5, i32 0, i32 0, !dbg !19136
  %7 = load i32, i32* %4, align 4, !dbg !19136
  store i32 %7, i32* %6, align 4, !dbg !19136
  call void @_ZN10ap_privateILi32ELb1ELb1EE10set_canaryEv(%class.ap_private.38* %5), !dbg !19137
  call void @_ZNV10ap_privateILi32ELb1ELb1EE15clearUnusedBitsEv(%class.ap_private.38* %5), !dbg !19137
  call void @_ZN10ap_privateILi32ELb1ELb1EE12check_canaryEv(%class.ap_private.38* %5), !dbg !19137
  ret void, !dbg !19136
}

; Function Attrs: noinline uwtable
define linkonce_odr dso_local dereferenceable(16) %class.ap_private.3* @_ZN10ap_privateILi128ELb0ELb0EEaSILi32ELb1EEERS0_RKS_IXT_EXT0_EXleT_Li64EEE(%class.ap_private.3*, %class.ap_private.38* dereferenceable(4)) #0 comdat align 2 !dbg !19139 {
  %3 = alloca %class.ap_private.3*, align 8
  %4 = alloca %class.ap_private.38*, align 8
  store %class.ap_private.3* %0, %class.ap_private.3** %3, align 8
  call void @llvm.dbg.declare(metadata %class.ap_private.3** %3, metadata !19143, metadata !DIExpression()), !dbg !19144
  store %class.ap_private.38* %1, %class.ap_private.38** %4, align 8
  call void @llvm.dbg.declare(metadata %class.ap_private.38** %4, metadata !19145, metadata !DIExpression()), !dbg !19146
  %5 = load %class.ap_private.3*, %class.ap_private.3** %3, align 8
  %6 = load %class.ap_private.38*, %class.ap_private.38** %4, align 8, !dbg !19147
  call void @_ZN10ap_privateILi128ELb0ELb0EE13cpSextOrTruncILi32ELb1EEEvRKS_IXT_EXT0_EXleT_Li64EEE(%class.ap_private.3* %5, %class.ap_private.38* dereferenceable(4) %6), !dbg !19149
  call void @_ZNV10ap_privateILi128ELb0ELb0EE15clearUnusedBitsEv(%class.ap_private.3* %5), !dbg !19150
  ret %class.ap_private.3* %5, !dbg !19151
}

; Function Attrs: noinline nounwind uwtable
define linkonce_odr dso_local void @_ZN10ap_privateILi32ELb1ELb1EE10set_canaryEv(%class.ap_private.38*) #5 comdat align 2 !dbg !19152 {
  %2 = alloca %class.ap_private.38*, align 8
  store %class.ap_private.38* %0, %class.ap_private.38** %2, align 8
  call void @llvm.dbg.declare(metadata %class.ap_private.38** %2, metadata !19153, metadata !DIExpression()), !dbg !19154
  %3 = load %class.ap_private.38*, %class.ap_private.38** %2, align 8
  ret void, !dbg !19155
}

; Function Attrs: noinline nounwind uwtable
define linkonce_odr dso_local void @_ZNV10ap_privateILi32ELb1ELb1EE15clearUnusedBitsEv(%class.ap_private.38*) #5 comdat align 2 !dbg !4156 {
  %2 = alloca %class.ap_private.38*, align 8
  store %class.ap_private.38* %0, %class.ap_private.38** %2, align 8
  call void @llvm.dbg.declare(metadata %class.ap_private.38** %2, metadata !19156, metadata !DIExpression()), !dbg !19158
  %3 = load %class.ap_private.38*, %class.ap_private.38** %2, align 8
  %4 = getelementptr inbounds %class.ap_private.38, %class.ap_private.38* %3, i32 0, i32 0, !dbg !19159
  %5 = load volatile i32, i32* %4, align 4, !dbg !19159
  %6 = sext i32 %5 to i64, !dbg !19159
  %7 = shl i64 %6, 32, !dbg !19160
  %8 = ashr i64 %7, 32, !dbg !19161
  %9 = trunc i64 %8 to i32, !dbg !19162
  %10 = getelementptr inbounds %class.ap_private.38, %class.ap_private.38* %3, i32 0, i32 0, !dbg !19163
  store volatile i32 %9, i32* %10, align 4, !dbg !19164
  ret void, !dbg !19165
}

; Function Attrs: noinline uwtable
define linkonce_odr dso_local void @_ZN10ap_privateILi128ELb0ELb0EE13cpSextOrTruncILi32ELb1EEEvRKS_IXT_EXT0_EXleT_Li64EEE(%class.ap_private.3*, %class.ap_private.38* dereferenceable(4)) #0 comdat align 2 !dbg !19166 {
  %3 = alloca %class.ap_private.3*, align 8
  %4 = alloca %class.ap_private.38*, align 8
  store %class.ap_private.3* %0, %class.ap_private.3** %3, align 8
  call void @llvm.dbg.declare(metadata %class.ap_private.3** %3, metadata !19168, metadata !DIExpression()), !dbg !19169
  store %class.ap_private.38* %1, %class.ap_private.38** %4, align 8
  call void @llvm.dbg.declare(metadata %class.ap_private.38** %4, metadata !19170, metadata !DIExpression()), !dbg !19171
  %5 = load %class.ap_private.3*, %class.ap_private.3** %3, align 8
  %6 = load %class.ap_private.38*, %class.ap_private.38** %4, align 8, !dbg !19172
  call void @_ZN10ap_privateILi128ELb0ELb0EE6cpSextILi32ELb1EEEvRKS_IXT_EXT0_EXleT_Li64EEE(%class.ap_private.3* %5, %class.ap_private.38* dereferenceable(4) %6), !dbg !19174
  ret void, !dbg !19175
}

; Function Attrs: noinline uwtable
define linkonce_odr dso_local void @_ZN10ap_privateILi128ELb0ELb0EE6cpSextILi32ELb1EEEvRKS_IXT_EXT0_EXleT_Li64EEE(%class.ap_private.3*, %class.ap_private.38* dereferenceable(4)) #0 comdat align 2 !dbg !21 {
  %3 = alloca %class.ap_private.3*, align 8
  %4 = alloca %class.ap_private.38*, align 8
  %5 = alloca i32, align 4
  %6 = alloca i32, align 4
  store %class.ap_private.3* %0, %class.ap_private.3** %3, align 8
  call void @llvm.dbg.declare(metadata %class.ap_private.3** %3, metadata !19176, metadata !DIExpression()), !dbg !19177
  store %class.ap_private.38* %1, %class.ap_private.38** %4, align 8
  call void @llvm.dbg.declare(metadata %class.ap_private.38** %4, metadata !19178, metadata !DIExpression()), !dbg !19179
  %7 = load %class.ap_private.3*, %class.ap_private.3** %3, align 8
  %8 = load %class.ap_private.38*, %class.ap_private.38** %4, align 8, !dbg !19180
  %9 = call zeroext i1 @_ZNK10ap_privateILi32ELb1ELb1EE10isNegativeEv(%class.ap_private.38* %8), !dbg !19182
  br i1 %9, label %12, label %10, !dbg !19183

10:                                               ; preds = %2
  %11 = load %class.ap_private.38*, %class.ap_private.38** %4, align 8, !dbg !19184
  call void @_ZN10ap_privateILi128ELb0ELb0EE6cpZextILi32ELb1EEEvRKS_IXT_EXT0_EXleT_Li64EEE(%class.ap_private.3* %7, %class.ap_private.38* dereferenceable(4) %11), !dbg !19186
  br label %46, !dbg !19187

12:                                               ; preds = %2
  call void @llvm.dbg.declare(metadata i32* %5, metadata !19188, metadata !DIExpression()), !dbg !19189
  store i32 1, i32* %5, align 4, !dbg !19189
  call void @llvm.dbg.declare(metadata i32* %6, metadata !19190, metadata !DIExpression()), !dbg !19191
  store i32 0, i32* %6, align 4, !dbg !19192
  br label %13, !dbg !19194

13:                                               ; preds = %16, %12
  %14 = load i32, i32* %6, align 4, !dbg !19195
  %15 = icmp slt i32 %14, 1, !dbg !19197
  br i1 %15, label %16, label %27, !dbg !19198

16:                                               ; preds = %13
  %17 = load %class.ap_private.38*, %class.ap_private.38** %4, align 8, !dbg !19199
  %18 = load i32, i32* %6, align 4, !dbg !19200
  %19 = call i32 @_ZNK10ap_privateILi32ELb1ELb1EE8get_pValEi(%class.ap_private.38* %17, i32 %18), !dbg !19201
  %20 = sext i32 %19 to i64, !dbg !19199
  %21 = getelementptr inbounds %class.ap_private.3, %class.ap_private.3* %7, i32 0, i32 0, !dbg !19202
  %22 = load i32, i32* %6, align 4, !dbg !19203
  %23 = sext i32 %22 to i64, !dbg !19202
  %24 = getelementptr inbounds [2 x i64], [2 x i64]* %21, i64 0, i64 %23, !dbg !19202
  store i64 %20, i64* %24, align 8, !dbg !19204
  %25 = load i32, i32* %6, align 4, !dbg !19205
  %26 = add nsw i32 %25, 1, !dbg !19205
  store i32 %26, i32* %6, align 4, !dbg !19205
  br label %13, !dbg !19206, !llvm.loop !19207

27:                                               ; preds = %13
  %28 = getelementptr inbounds %class.ap_private.3, %class.ap_private.3* %7, i32 0, i32 0, !dbg !19209
  %29 = load i32, i32* %6, align 4, !dbg !19210
  %30 = sub nsw i32 %29, 1, !dbg !19211
  %31 = sext i32 %30 to i64, !dbg !19209
  %32 = getelementptr inbounds [2 x i64], [2 x i64]* %28, i64 0, i64 %31, !dbg !19209
  %33 = load i64, i64* %32, align 8, !dbg !19212
  %34 = or i64 %33, -4294967296, !dbg !19212
  store i64 %34, i64* %32, align 8, !dbg !19212
  br label %35, !dbg !19213

35:                                               ; preds = %42, %27
  %36 = load i32, i32* %6, align 4, !dbg !19214
  %37 = icmp slt i32 %36, 1, !dbg !19217
  %38 = getelementptr inbounds %class.ap_private.3, %class.ap_private.3* %7, i32 0, i32 0, !dbg !19177
  %39 = load i32, i32* %6, align 4, !dbg !19177
  %40 = sext i32 %39 to i64, !dbg !19177
  %41 = getelementptr inbounds [2 x i64], [2 x i64]* %38, i64 0, i64 %40, !dbg !19177
  store i64 -1, i64* %41, align 8, !dbg !19177
  br i1 %37, label %42, label %45, !dbg !19218

42:                                               ; preds = %35
  %43 = load i32, i32* %6, align 4, !dbg !19219
  %44 = add nsw i32 %43, 1, !dbg !19219
  store i32 %44, i32* %6, align 4, !dbg !19219
  br label %35, !dbg !19220, !llvm.loop !19221

45:                                               ; preds = %35
  call void @_ZNV10ap_privateILi128ELb0ELb0EE15clearUnusedBitsEv(%class.ap_private.3* %7), !dbg !19223
  br label %46, !dbg !19224

46:                                               ; preds = %45, %10
  ret void, !dbg !19225
}

; Function Attrs: noinline nounwind uwtable
define linkonce_odr dso_local zeroext i1 @_ZNK10ap_privateILi32ELb1ELb1EE10isNegativeEv(%class.ap_private.38*) #5 comdat align 2 !dbg !15483 {
  %2 = alloca %class.ap_private.38*, align 8
  store %class.ap_private.38* %0, %class.ap_private.38** %2, align 8
  call void @llvm.dbg.declare(metadata %class.ap_private.38** %2, metadata !19226, metadata !DIExpression()), !dbg !19228
  %3 = load %class.ap_private.38*, %class.ap_private.38** %2, align 8
  %4 = getelementptr inbounds %class.ap_private.38, %class.ap_private.38* %3, i32 0, i32 0, !dbg !19229
  %5 = load i32, i32* %4, align 4, !dbg !19229
  %6 = sext i32 %5 to i64, !dbg !19229
  %7 = and i64 2147483648, %6, !dbg !19230
  %8 = icmp ne i64 %7, 0, !dbg !19231
  ret i1 %8, !dbg !19232
}

; Function Attrs: noinline uwtable
define linkonce_odr dso_local void @_ZN10ap_privateILi128ELb0ELb0EE6cpZextILi32ELb1EEEvRKS_IXT_EXT0_EXleT_Li64EEE(%class.ap_private.3*, %class.ap_private.38* dereferenceable(4)) #0 comdat align 2 !dbg !19233 {
  %3 = alloca %class.ap_private.3*, align 8
  %4 = alloca %class.ap_private.38*, align 8
  %5 = alloca i32, align 4
  %6 = alloca i32, align 4
  store %class.ap_private.3* %0, %class.ap_private.3** %3, align 8
  call void @llvm.dbg.declare(metadata %class.ap_private.3** %3, metadata !19235, metadata !DIExpression()), !dbg !19236
  store %class.ap_private.38* %1, %class.ap_private.38** %4, align 8
  call void @llvm.dbg.declare(metadata %class.ap_private.38** %4, metadata !19237, metadata !DIExpression()), !dbg !19238
  %7 = load %class.ap_private.3*, %class.ap_private.3** %3, align 8
  call void @llvm.dbg.declare(metadata i32* %5, metadata !19239, metadata !DIExpression()), !dbg !19240
  store i32 1, i32* %5, align 4, !dbg !19240
  call void @llvm.dbg.declare(metadata i32* %6, metadata !19241, metadata !DIExpression()), !dbg !19242
  store i32 0, i32* %6, align 4, !dbg !19242
  br label %8, !dbg !19243

8:                                                ; preds = %11, %2
  %9 = load i32, i32* %6, align 4, !dbg !19244
  %10 = icmp slt i32 %9, 1, !dbg !19247
  br i1 %10, label %11, label %22, !dbg !19248

11:                                               ; preds = %8
  %12 = load %class.ap_private.38*, %class.ap_private.38** %4, align 8, !dbg !19249
  %13 = load i32, i32* %6, align 4, !dbg !19250
  %14 = call i32 @_ZNK10ap_privateILi32ELb1ELb1EE8get_pValEi(%class.ap_private.38* %12, i32 %13), !dbg !19251
  %15 = sext i32 %14 to i64, !dbg !19249
  %16 = getelementptr inbounds %class.ap_private.3, %class.ap_private.3* %7, i32 0, i32 0, !dbg !19252
  %17 = load i32, i32* %6, align 4, !dbg !19253
  %18 = sext i32 %17 to i64, !dbg !19252
  %19 = getelementptr inbounds [2 x i64], [2 x i64]* %16, i64 0, i64 %18, !dbg !19252
  store i64 %15, i64* %19, align 8, !dbg !19254
  %20 = load i32, i32* %6, align 4, !dbg !19255
  %21 = add nsw i32 %20, 1, !dbg !19255
  store i32 %21, i32* %6, align 4, !dbg !19255
  br label %8, !dbg !19256, !llvm.loop !19257

22:                                               ; preds = %8, %25
  %23 = load i32, i32* %6, align 4, !dbg !19259
  %24 = icmp slt i32 %23, 2, !dbg !19262
  br i1 %24, label %25, label %32, !dbg !19263

25:                                               ; preds = %22
  %26 = getelementptr inbounds %class.ap_private.3, %class.ap_private.3* %7, i32 0, i32 0, !dbg !19264
  %27 = load i32, i32* %6, align 4, !dbg !19265
  %28 = sext i32 %27 to i64, !dbg !19264
  %29 = getelementptr inbounds [2 x i64], [2 x i64]* %26, i64 0, i64 %28, !dbg !19264
  store i64 0, i64* %29, align 8, !dbg !19266
  %30 = load i32, i32* %6, align 4, !dbg !19267
  %31 = add nsw i32 %30, 1, !dbg !19267
  store i32 %31, i32* %6, align 4, !dbg !19267
  br label %22, !dbg !19268, !llvm.loop !19269

32:                                               ; preds = %22
  call void @_ZNV10ap_privateILi128ELb0ELb0EE15clearUnusedBitsEv(%class.ap_private.3* %7), !dbg !19271
  ret void, !dbg !19272
}

; Function Attrs: noinline nounwind uwtable
define linkonce_odr dso_local i32 @_ZNK10ap_privateILi32ELb1ELb1EE8get_pValEi(%class.ap_private.38*, i32) #5 comdat align 2 !dbg !19273 {
  %3 = alloca %class.ap_private.38*, align 8
  %4 = alloca i32, align 4
  store %class.ap_private.38* %0, %class.ap_private.38** %3, align 8
  call void @llvm.dbg.declare(metadata %class.ap_private.38** %3, metadata !19274, metadata !DIExpression()), !dbg !19275
  store i32 %1, i32* %4, align 4
  call void @llvm.dbg.declare(metadata i32* %4, metadata !19276, metadata !DIExpression()), !dbg !19277
  %5 = load %class.ap_private.38*, %class.ap_private.38** %3, align 8
  %6 = getelementptr inbounds %class.ap_private.38, %class.ap_private.38* %5, i32 0, i32 0, !dbg !19278
  %7 = load i32, i32* %6, align 4, !dbg !19278
  ret i32 %7, !dbg !19279
}

; Function Attrs: noinline uwtable
define linkonce_odr dso_local dereferenceable(16) %class.ap_private.3* @_ZN10ap_privateILi128ELb0ELb0EEaSERKS0_(%class.ap_private.3*, %class.ap_private.3* dereferenceable(16)) #0 comdat align 2 !dbg !19280 {
  %3 = alloca %class.ap_private.3*, align 8
  %4 = alloca %class.ap_private.3*, align 8
  store %class.ap_private.3* %0, %class.ap_private.3** %3, align 8
  call void @llvm.dbg.declare(metadata %class.ap_private.3** %3, metadata !19281, metadata !DIExpression()), !dbg !19282
  store %class.ap_private.3* %1, %class.ap_private.3** %4, align 8
  call void @llvm.dbg.declare(metadata %class.ap_private.3** %4, metadata !19283, metadata !DIExpression()), !dbg !19284
  %5 = load %class.ap_private.3*, %class.ap_private.3** %3, align 8
  %6 = load %class.ap_private.3*, %class.ap_private.3** %4, align 8, !dbg !19285
  %7 = icmp ne %class.ap_private.3* %5, %6, !dbg !19287
  br i1 %7, label %8, label %16, !dbg !19288

8:                                                ; preds = %2
  %9 = getelementptr inbounds %class.ap_private.3, %class.ap_private.3* %5, i32 0, i32 0, !dbg !19289
  %10 = getelementptr inbounds [2 x i64], [2 x i64]* %9, i64 0, i64 0, !dbg !19290
  %11 = bitcast i64* %10 to i8*, !dbg !19290
  %12 = load %class.ap_private.3*, %class.ap_private.3** %4, align 8, !dbg !19291
  %13 = call i64* @_ZNK10ap_privateILi128ELb0ELb0EE8get_pValEv(%class.ap_private.3* %12), !dbg !19292
  %14 = bitcast i64* %13 to i8*, !dbg !19290
  %15 = call i8* @memcpy(i8* %11, i8* %14, i64 16), !dbg !19290
  br label %16, !dbg !19290

16:                                               ; preds = %8, %2
  call void @_ZNV10ap_privateILi128ELb0ELb0EE15clearUnusedBitsEv(%class.ap_private.3* %5), !dbg !19293
  ret %class.ap_private.3* %5, !dbg !19294
}

; Function Attrs: noinline nounwind uwtable
define linkonce_odr dso_local i64* @_ZNK10ap_privateILi128ELb0ELb0EE8get_pValEv(%class.ap_private.3*) #5 comdat align 2 !dbg !19295 {
  %2 = alloca %class.ap_private.3*, align 8
  store %class.ap_private.3* %0, %class.ap_private.3** %2, align 8
  call void @llvm.dbg.declare(metadata %class.ap_private.3** %2, metadata !19296, metadata !DIExpression()), !dbg !19298
  %3 = load %class.ap_private.3*, %class.ap_private.3** %2, align 8
  %4 = getelementptr inbounds %class.ap_private.3, %class.ap_private.3* %3, i32 0, i32 0, !dbg !19299
  %5 = getelementptr inbounds [2 x i64], [2 x i64]* %4, i64 0, i64 0, !dbg !19299
  ret i64* %5, !dbg !19300
}

; Function Attrs: argmemonly nounwind
declare void @llvm.memcpy.p0i8.p0i8.i64(i8* nocapture writeonly, i8* nocapture readonly, i64, i1 immarg) #8

; Function Attrs: noinline uwtable
define linkonce_odr dso_local void @_ZN11ap_int_baseILi128ELb0EE5rangeEii(%struct.ap_range_ref* noalias sret, %struct.ap_int_base.1*, i32, i32) #0 comdat align 2 !dbg !19301 {
  %5 = alloca i8*, align 8
  %6 = alloca %struct.ap_int_base.1*, align 8
  %7 = alloca i32, align 4
  %8 = alloca i32, align 4
  %9 = bitcast %struct.ap_range_ref* %0 to i8*
  store i8* %9, i8** %5, align 8
  store %struct.ap_int_base.1* %1, %struct.ap_int_base.1** %6, align 8
  call void @llvm.dbg.declare(metadata %struct.ap_int_base.1** %6, metadata !19302, metadata !DIExpression()), !dbg !19303
  store i32 %2, i32* %7, align 4
  call void @llvm.dbg.declare(metadata i32* %7, metadata !19304, metadata !DIExpression()), !dbg !19305
  store i32 %3, i32* %8, align 4
  call void @llvm.dbg.declare(metadata i32* %8, metadata !19306, metadata !DIExpression()), !dbg !19307
  %10 = load %struct.ap_int_base.1*, %struct.ap_int_base.1** %6, align 8
  %11 = load i32, i32* %7, align 4, !dbg !19308
  %12 = icmp sge i32 %11, 128, !dbg !19308
  br i1 %12, label %13, label %19, !dbg !19311

13:                                               ; preds = %4
  %14 = load %struct._IO_FILE*, %struct._IO_FILE** @stderr, align 8, !dbg !19312
  %15 = load i32, i32* %7, align 4, !dbg !19312
  %16 = call i32 (%struct._IO_FILE*, i8*, ...) @fprintf(%struct._IO_FILE* %14, i8* getelementptr inbounds ([41 x i8], [41 x i8]* @.str, i64 0, i64 0), i32 %15, i32 128), !dbg !19312
  %17 = load %struct._IO_FILE*, %struct._IO_FILE** @stderr, align 8, !dbg !19312
  %18 = call i32 (%struct._IO_FILE*, i8*, ...) @fprintf(%struct._IO_FILE* %17, i8* getelementptr inbounds ([2 x i8], [2 x i8]* @.str.1, i64 0, i64 0)), !dbg !19312
  call void @abort() #11, !dbg !19312
  unreachable, !dbg !19312

19:                                               ; preds = %4
  %20 = load i32, i32* %8, align 4, !dbg !19314
  %21 = icmp sge i32 %20, 128, !dbg !19314
  br i1 %21, label %22, label %28, !dbg !19317

22:                                               ; preds = %19
  %23 = load %struct._IO_FILE*, %struct._IO_FILE** @stderr, align 8, !dbg !19318
  %24 = load i32, i32* %8, align 4, !dbg !19318
  %25 = call i32 (%struct._IO_FILE*, i8*, ...) @fprintf(%struct._IO_FILE* %23, i8* getelementptr inbounds ([41 x i8], [41 x i8]* @.str.2, i64 0, i64 0), i32 %24, i32 128), !dbg !19318
  %26 = load %struct._IO_FILE*, %struct._IO_FILE** @stderr, align 8, !dbg !19318
  %27 = call i32 (%struct._IO_FILE*, i8*, ...) @fprintf(%struct._IO_FILE* %26, i8* getelementptr inbounds ([2 x i8], [2 x i8]* @.str.1, i64 0, i64 0)), !dbg !19318
  call void @abort() #11, !dbg !19318
  unreachable, !dbg !19318

28:                                               ; preds = %19
  %29 = load i32, i32* %7, align 4, !dbg !19320
  %30 = load i32, i32* %8, align 4, !dbg !19321
  call void @_ZN12ap_range_refILi128ELb0EEC2EP11ap_int_baseILi128ELb0EEii(%struct.ap_range_ref* %0, %struct.ap_int_base.1* %10, i32 %29, i32 %30), !dbg !19322
  ret void, !dbg !19323
}

declare dso_local i32 @fprintf(%struct._IO_FILE*, i8*, ...) #1

; Function Attrs: noreturn nounwind
declare dso_local void @abort() #9

; Function Attrs: noinline nounwind uwtable
define linkonce_odr dso_local void @_ZN12ap_range_refILi128ELb0EEC2EP11ap_int_baseILi128ELb0EEii(%struct.ap_range_ref*, %struct.ap_int_base.1*, i32, i32) unnamed_addr #5 comdat align 2 !dbg !19324 {
  %5 = alloca %struct.ap_range_ref*, align 8
  %6 = alloca %struct.ap_int_base.1*, align 8
  %7 = alloca i32, align 4
  %8 = alloca i32, align 4
  store %struct.ap_range_ref* %0, %struct.ap_range_ref** %5, align 8
  call void @llvm.dbg.declare(metadata %struct.ap_range_ref** %5, metadata !19325, metadata !DIExpression()), !dbg !19326
  store %struct.ap_int_base.1* %1, %struct.ap_int_base.1** %6, align 8
  call void @llvm.dbg.declare(metadata %struct.ap_int_base.1** %6, metadata !19327, metadata !DIExpression()), !dbg !19328
  store i32 %2, i32* %7, align 4
  call void @llvm.dbg.declare(metadata i32* %7, metadata !19329, metadata !DIExpression()), !dbg !19330
  store i32 %3, i32* %8, align 4
  call void @llvm.dbg.declare(metadata i32* %8, metadata !19331, metadata !DIExpression()), !dbg !19332
  %9 = load %struct.ap_range_ref*, %struct.ap_range_ref** %5, align 8
  %10 = getelementptr inbounds %struct.ap_range_ref, %struct.ap_range_ref* %9, i32 0, i32 0, !dbg !19333
  %11 = load %struct.ap_int_base.1*, %struct.ap_int_base.1** %6, align 8, !dbg !19334
  store %struct.ap_int_base.1* %11, %struct.ap_int_base.1** %10, align 8, !dbg !19333
  %12 = getelementptr inbounds %struct.ap_range_ref, %struct.ap_range_ref* %9, i32 0, i32 1, !dbg !19335
  %13 = load i32, i32* %8, align 4, !dbg !19336
  store i32 %13, i32* %12, align 8, !dbg !19335
  %14 = getelementptr inbounds %struct.ap_range_ref, %struct.ap_range_ref* %9, i32 0, i32 2, !dbg !19337
  %15 = load i32, i32* %7, align 4, !dbg !19338
  store i32 %15, i32* %14, align 4, !dbg !19337
  ret void, !dbg !19339
}

; Function Attrs: noinline uwtable
define linkonce_odr dso_local void @_ZN11ap_int_baseILi128ELb0EEC2ILi8ELb0EEERKS_IXT_EXT0_EE(%struct.ap_int_base.1*, %struct.ap_int_base* dereferenceable(1)) unnamed_addr #0 comdat align 2 personality i8* bitcast (i32 (...)* @__gxx_personality_v0 to i8*) !dbg !19340 {
  %3 = alloca %struct.ap_int_base.1*, align 8
  %4 = alloca %struct.ap_int_base*, align 8
  %5 = alloca i8*
  %6 = alloca i32
  store %struct.ap_int_base.1* %0, %struct.ap_int_base.1** %3, align 8
  call void @llvm.dbg.declare(metadata %struct.ap_int_base.1** %3, metadata !19344, metadata !DIExpression()), !dbg !19345
  store %struct.ap_int_base* %1, %struct.ap_int_base** %4, align 8
  call void @llvm.dbg.declare(metadata %struct.ap_int_base** %4, metadata !19346, metadata !DIExpression()), !dbg !19347
  %7 = load %struct.ap_int_base.1*, %struct.ap_int_base.1** %3, align 8
  %8 = bitcast %struct.ap_int_base.1* %7 to %struct.ssdm_int_sim.2*, !dbg !19348
  call void @_ZN12ssdm_int_simILi128ELb0EEC2Ev(%struct.ssdm_int_sim.2* %8), !dbg !19349
  %9 = load %struct.ap_int_base*, %struct.ap_int_base** %4, align 8, !dbg !19350
  %10 = bitcast %struct.ap_int_base* %9 to %struct.ssdm_int_sim*, !dbg !19350
  %11 = getelementptr inbounds %struct.ssdm_int_sim, %struct.ssdm_int_sim* %10, i32 0, i32 0, !dbg !19352
  %12 = bitcast %struct.ap_int_base.1* %7 to %struct.ssdm_int_sim.2*, !dbg !19353
  %13 = getelementptr inbounds %struct.ssdm_int_sim.2, %struct.ssdm_int_sim.2* %12, i32 0, i32 0, !dbg !19353
  %14 = invoke dereferenceable(16) %class.ap_private.3* @_ZN10ap_privateILi128ELb0ELb0EEaSILi8ELb0EEERS0_RKS_IXT_EXT0_EXleT_Li64EEE(%class.ap_private.3* %13, %class.ap_private* dereferenceable(1) %11)
          to label %15 unwind label %16, !dbg !19354

15:                                               ; preds = %2
  ret void, !dbg !19355

16:                                               ; preds = %2
  %17 = landingpad { i8*, i32 }
          cleanup, !dbg !19356
  %18 = extractvalue { i8*, i32 } %17, 0, !dbg !19356
  store i8* %18, i8** %5, align 8, !dbg !19356
  %19 = extractvalue { i8*, i32 } %17, 1, !dbg !19356
  store i32 %19, i32* %6, align 4, !dbg !19356
  %20 = bitcast %struct.ap_int_base.1* %7 to %struct.ssdm_int_sim.2*, !dbg !19356
  call void @_ZN12ssdm_int_simILi128ELb0EED2Ev(%struct.ssdm_int_sim.2* %20) #3, !dbg !19356
  %21 = load i8*, i8** %5, align 8, !dbg !19356
  %22 = load i32, i32* %6, align 4, !dbg !19356
  %23 = insertvalue { i8*, i32 } undef, i8* %21, 0, !dbg !19356
  %24 = insertvalue { i8*, i32 } %23, i32 %22, 1, !dbg !19356
  resume { i8*, i32 } %24, !dbg !19356
}

; Function Attrs: noinline uwtable
define linkonce_odr dso_local dereferenceable(16) %class.ap_private.3* @_Z21_AP_ROOT_op_set_rangeI10ap_privateILi128ELb0ELb0EEiiS1_ERT_S3_RKT0_RKT1_RKT2_(%class.ap_private.3* dereferenceable(16), i32* dereferenceable(4), i32* dereferenceable(4), %class.ap_private.3* dereferenceable(16)) #0 comdat !dbg !19357 {
  %5 = alloca %class.ap_private.3*, align 8
  %6 = alloca i32*, align 8
  %7 = alloca i32*, align 8
  %8 = alloca %class.ap_private.3*, align 8
  %9 = alloca %struct._private_range_ref, align 8
  store %class.ap_private.3* %0, %class.ap_private.3** %5, align 8
  call void @llvm.dbg.declare(metadata %class.ap_private.3** %5, metadata !19366, metadata !DIExpression()), !dbg !19367
  store i32* %1, i32** %6, align 8
  call void @llvm.dbg.declare(metadata i32** %6, metadata !19368, metadata !DIExpression()), !dbg !19369
  store i32* %2, i32** %7, align 8
  call void @llvm.dbg.declare(metadata i32** %7, metadata !19370, metadata !DIExpression()), !dbg !19371
  store %class.ap_private.3* %3, %class.ap_private.3** %8, align 8
  call void @llvm.dbg.declare(metadata %class.ap_private.3** %8, metadata !19372, metadata !DIExpression()), !dbg !19373
  %10 = load %class.ap_private.3*, %class.ap_private.3** %8, align 8, !dbg !19374
  %11 = load %class.ap_private.3*, %class.ap_private.3** %5, align 8, !dbg !19375
  %12 = load i32*, i32** %7, align 8, !dbg !19376
  %13 = load i32, i32* %12, align 4, !dbg !19376
  %14 = load i32*, i32** %6, align 8, !dbg !19377
  %15 = load i32, i32* %14, align 4, !dbg !19377
  call void @_ZN10ap_privateILi128ELb0ELb0EE5rangeEii(%struct._private_range_ref* sret %9, %class.ap_private.3* %11, i32 %13, i32 %15), !dbg !19378
  %16 = call dereferenceable(16) %struct._private_range_ref* @_ZN18_private_range_refILi128ELb0EEaSILi128ELb0EEERS0_RK10ap_privateIXT_EXT0_EXleT_Li64EEE(%struct._private_range_ref* %9, %class.ap_private.3* dereferenceable(16) %10), !dbg !19379
  %17 = load %class.ap_private.3*, %class.ap_private.3** %5, align 8, !dbg !19380
  ret %class.ap_private.3* %17, !dbg !19381
}

; Function Attrs: noinline nounwind uwtable
define linkonce_odr dso_local void @_ZN11ap_int_baseILi128ELb0EED2Ev(%struct.ap_int_base.1*) unnamed_addr #5 comdat align 2 !dbg !19382 {
  %2 = alloca %struct.ap_int_base.1*, align 8
  store %struct.ap_int_base.1* %0, %struct.ap_int_base.1** %2, align 8
  call void @llvm.dbg.declare(metadata %struct.ap_int_base.1** %2, metadata !19384, metadata !DIExpression()), !dbg !19385
  %3 = load %struct.ap_int_base.1*, %struct.ap_int_base.1** %2, align 8
  %4 = bitcast %struct.ap_int_base.1* %3 to %struct.ssdm_int_sim.2*, !dbg !19386
  call void @_ZN12ssdm_int_simILi128ELb0EED2Ev(%struct.ssdm_int_sim.2* %4) #3, !dbg !19386
  ret void, !dbg !19388
}

; Function Attrs: noinline uwtable
define linkonce_odr dso_local dereferenceable(16) %class.ap_private.3* @_ZN10ap_privateILi128ELb0ELb0EEaSILi8ELb0EEERS0_RKS_IXT_EXT0_EXleT_Li64EEE(%class.ap_private.3*, %class.ap_private* dereferenceable(1)) #0 comdat align 2 !dbg !19389 {
  %3 = alloca %class.ap_private.3*, align 8
  %4 = alloca %class.ap_private*, align 8
  store %class.ap_private.3* %0, %class.ap_private.3** %3, align 8
  call void @llvm.dbg.declare(metadata %class.ap_private.3** %3, metadata !19396, metadata !DIExpression()), !dbg !19397
  store %class.ap_private* %1, %class.ap_private** %4, align 8
  call void @llvm.dbg.declare(metadata %class.ap_private** %4, metadata !19398, metadata !DIExpression()), !dbg !19399
  %5 = load %class.ap_private.3*, %class.ap_private.3** %3, align 8
  %6 = load %class.ap_private*, %class.ap_private** %4, align 8, !dbg !19400
  call void @_ZN10ap_privateILi128ELb0ELb0EE13cpZextOrTruncILi8ELb0EEEvRKS_IXT_EXT0_EXleT_Li64EEE(%class.ap_private.3* %5, %class.ap_private* dereferenceable(1) %6), !dbg !19402
  call void @_ZNV10ap_privateILi128ELb0ELb0EE15clearUnusedBitsEv(%class.ap_private.3* %5), !dbg !19403
  ret %class.ap_private.3* %5, !dbg !19404
}

; Function Attrs: noinline uwtable
define linkonce_odr dso_local void @_ZN10ap_privateILi128ELb0ELb0EE13cpZextOrTruncILi8ELb0EEEvRKS_IXT_EXT0_EXleT_Li64EEE(%class.ap_private.3*, %class.ap_private* dereferenceable(1)) #0 comdat align 2 !dbg !19405 {
  %3 = alloca %class.ap_private.3*, align 8
  %4 = alloca %class.ap_private*, align 8
  store %class.ap_private.3* %0, %class.ap_private.3** %3, align 8
  call void @llvm.dbg.declare(metadata %class.ap_private.3** %3, metadata !19409, metadata !DIExpression()), !dbg !19410
  store %class.ap_private* %1, %class.ap_private** %4, align 8
  call void @llvm.dbg.declare(metadata %class.ap_private** %4, metadata !19411, metadata !DIExpression()), !dbg !19412
  %5 = load %class.ap_private.3*, %class.ap_private.3** %3, align 8
  %6 = load %class.ap_private*, %class.ap_private** %4, align 8, !dbg !19413
  call void @_ZN10ap_privateILi128ELb0ELb0EE6cpZextILi8ELb0EEEvRKS_IXT_EXT0_EXleT_Li64EEE(%class.ap_private.3* %5, %class.ap_private* dereferenceable(1) %6), !dbg !19415
  ret void, !dbg !19416
}

; Function Attrs: noinline uwtable
